Pass1
Pass2
      1                        F000    GPU_CMD     EQU $F000
      2                        F003    GPU_CSIZE   EQU $F003
      3                        F005    GPU_DX      EQU $F005
      4                        F007    GPU_DY      EQU $F007
      5                        F008    GPU_X_MSB   EQU $F008
      6                        F009    GPU_X_LSB   EQU $F009
      7                        F00A    GPU_Y_MSB   EQU $F00A
      8                        F00B    GPU_Y_LSB   EQU $F00B
      9                        F010    GPU_COLOR   EQU $F010
     10                        F060    AY_REG      EQU $F060
     11                        F046    KEYB_REG    EQU $F046
     12
     13                        0030    MAZE_NB_LINES   EQU 48
     14
     15        0000                        org $0000
     16                        F0          setdp $F0
     17
     18  2     0000    86 F0               LDA #$F0
     19  8     0002    1E 8B               EXG A,DP
     20
     21        0004                    wait_video_chip
     22  4     0004    96 00               LDA GPU_CMD
     23  2     0006    84 04               ANDA #4
     24  3     0008    27 FA               BEQ wait_video_chip
     25
     26  6     000A    0F 10               CLR GPU_COLOR
     27
     28        000C                    wait_video_chip2
     29  4     000C    96 00               LDA GPU_CMD
     30  2     000E    84 04               ANDA #4
     31  3     0010    27 FA               BEQ wait_video_chip2
     32
     33                                ****************************
     34                                * SPLASH
     35                                ****************************
     36        0012                    splash
     37  8     0012    BD 0445             JSR clear_screen
     38
     39  3     0015    8E 062F             LDX #txt_splash_temps
     40  2     0018    86 06               LDA #$6
     41  4     001A    97 10               STA GPU_COLOR       ; Color (blue)
     42  2     001C    86 A0               LDA #$A0
     43  4     001E    97 0B               STA GPU_Y_LSB       ; Y = $78
     44  2     0020    86 45               LDA #$45
     45  4     0022    97 09               STA GPU_X_LSB
     46  2     0024    86 44               LDA #$44
     47  4     0026    97 03               STA GPU_CSIZE
     48  8     0028    BD 052A             JSR display_custom_text
     49
     50  3     002B    8E 0635             LDX #txt_splash_pourri
     51  2     002E    86 06               LDA #$6
     52  4     0030    97 10               STA GPU_COLOR       ; Color (blue)
     53  2     0032    86 70               LDA #$70
     54  4     0034    97 0B               STA GPU_Y_LSB       ; Y = $78
     55  2     0036    86 40               LDA #$40
     56  4     0038    97 09               STA GPU_X_LSB
     57  2     003A    86 44               LDA #$44
     58  4     003C    97 03               STA GPU_CSIZE
     59  8     003E    BD 052A             JSR display_custom_text
     60
     61  3     0041    8E 063C             LDX #txt_splash_credit
     62  2     0044    86 01               LDA #$1
     63  4     0046    97 10               STA GPU_COLOR       ; Color (blue)
     64  2     0048    86 40               LDA #$40
     65  4     004A    97 0B               STA GPU_Y_LSB       ; Y = $78
     66  2     004C    86 28               LDA #$28
     67  4     004E    97 09               STA GPU_X_LSB
     68  2     0050    86 11               LDA #$11
     69  4     0052    97 03               STA GPU_CSIZE
     70  8     0054    BD 052A             JSR display_custom_text
     71
     72        0057                    splash_loop
     73  8     0057    BD 0537             JSR wait_for_space_key
     74
     75                                ****************************
     76                                * GAME INIT
     77                                ****************************
     78  4     005A  108E 0000             LDY #0
     79  7     005E  10BF 061D             STY player_pos
     80
     81  8     0062    BD 0553             JSR rnd
     82  2     0065    84 0F               ANDA #$0F
     83  2     0067    48                  LSLA
     84  6     0068    1F 89               TFR A,B
     85  2     006A    86 00               LDA #0
     86  6     006C    1F 02               TFR D,Y
     87  6+4   006E  10AE A9 0664          LDY enemy_start_pos,Y
     88  7     0073  10BF 061F             STY enemy_pos               ; Reset enemy position
     89
     90  2     0077    86 31               LDA #49
     91  5     0079    B7 0621             STA enemy_hit
     92  4     007C  108E 0062             LDY #98
     93  7     0080  10BF 06AC             STY player_missile_pos
     94  7     0084    7F 06AE             CLR space_key_down
     95  7     0087    7F 062A             CLR gameover
     96  7     008A    7F 0624             CLR counter
     97        008D                    reset_missiles
     98  2     008D    C6 0A               LDB #10
     99  3     008F    8E 0000             LDX #0
    100        0092                    reset_missiles_loop
    101  6+4   0092    6F 89 0698          CLR missiles_life,X
    102  4+1   0096    30 02               LEAX 2,X                * X += 2
    103  2     0098    5A                  DECB
    104  3     0099    26 F7               BNE reset_missiles_loop
    105
    106        009B                    reset_playfield_color
    107  2     009B    C6 2C               LDB #44
    108  3     009D    8E 0004             LDX #4
    109  2     00A0    86 06               LDA #6
    110        00A2                    reset_playfield_color_loop
    111  4+4   00A2    A7 89 07A1          STA line_color,X
    112  4+1   00A6    30 01               LEAX 1,X
    113  2     00A8    5A                  DECB
    114  3     00A9    26 F7               BNE reset_playfield_color_loop
    115  2     00AB    86 01               LDA #1
    116  5     00AD    B7 07A1             STA line_color
    117  5     00B0    B7 07A2             STA line_color+1
    118  5     00B3    B7 07A3             STA line_color+2
    119  5     00B6    B7 07A4             STA line_color+3
    120
    121  2     00B9    86 F0               LDA #$F0
    122  5     00BB    B7 0629             STA energy
    123  2     00BE    86 11               LDA #$11
    124  5     00C0    B7 062B             STA gameover_size
    125  2     00C3    86 30               LDA #$30
    126  5     00C5    B7 05D2             STA score+7
    127  5     00C8    B7 05D3             STA score+8
    128  5     00CB    B7 05D4             STA score+9
    129  5     00CE    B7 05D5             STA score+10
    130  2     00D1    86 A0               LDA #$A0
    131  5     00D3    B7 062C             STA gameover_x
    132  2     00D6    86 02               LDA #2
    133  5     00D8    B7 0622             STA enemy_pause_move_rate
    134
    135                                ****************************
    136                                * MAIN LOOP
    137                                ****************************
    138        00DB                    MAIN_LOOP
    139  8     00DB    BD 0469             JSR vblank
    140  8     00DE    BD 0445             JSR clear_screen
    141
    142  3     00E1    8E 0030             LDX #MAZE_NB_LINES
    143        00E4                    line_loop
    144  4+1   00E4    30 1F               LEAX -1,X
    145  8     00E6    BD 0476             JSR draw_line
    146  4     00E9    8C 0000             CMPX #0
    147  3     00EC    26 F6               BNE line_loop
    148
    149                                ****************************
    150                                * DISPLAY SCORE
    151                                ****************************
    152  2     00EE    86 F0               LDA #$F0
    153  4     00F0    97 0B               STA GPU_Y_LSB
    154  3     00F2    8E 05CB             LDX #score
    155  8     00F5    BD 0509             JSR display_text
    156
    157                                ************************
    158                                * GAME OVER?
    159                                ************************
    160  5     00F8    B6 0629             LDA energy
    161  2     00FB    81 00               CMPA #0
    162  3     00FD    26 40               BNE game_not_over
    163
    164  2     00FF    86 80               LDA #$80
    165  4     0101    97 0B               STA GPU_Y_LSB
    166  3     0103    8E 065A             LDX #txt_game_over
    167
    168  5     0106    B6 062B             LDA gameover_size
    169  5     0109    F6 0624             LDB counter
    170  2     010C    C1 18               CMPB #24
    171  3     010E    27 19               BEQ game_over_processing_done
    172  2     0110    5C                  INCB
    173  5     0111    F7 0624             STB counter
    174  2     0114    C4 07               ANDB #$7
    175  2     0116    C1 00               CMPB #0
    176  3     0118    26 0F               BNE game_over_processing_done
    177  5     011A    B6 062C             LDA gameover_x
    178  2     011D    44                  LSRA
    179  5     011E    B7 062C             STA gameover_x
    180  5     0121    B6 062B             LDA gameover_size
    181  2     0124    8B 11               ADDA #$11
    182  5     0126    B7 062B             STA gameover_size
    183        0129                    game_over_processing_done
    184  4     0129    97 03               STA GPU_CSIZE
    185  5     012B    B6 062C             LDA gameover_x        ; X position
    186  4     012E    97 09               STA GPU_X_LSB
    187  8     0130    BD 0522             JSR display_game_over
    188  2     0133    C1 18               CMPB #24
    189  6     0135  1026 FFA2             LBNE MAIN_LOOP
    190  8     0139    BD 0537             JSR wait_for_space_key
    191  4     013C    7E 0012             JMP splash
    192        013F                    game_not_over
    193  8     013F    BD 04ED             JSR draw_energy_line
    194
    195                                ****************** DRAW ENEMY
    196  7     0142  10BE 061F             LDY enemy_pos           * Draw enemy
    197  8     0146    BD 049F             JSR draw_enemy_line
    198  4+1   0149    31 21               LEAY 1,Y
    199  8     014B    BD 049F             JSR draw_enemy_line
    200  5     014E    B6 0624             LDA counter
    201  2     0151    4C                  INCA
    202  5     0152    B7 0624             STA counter
    203  5     0155    B1 0622             CMPA enemy_pause_move_rate
    204  3     0158    27 0B               BEQ reset_enemy_counter         ; If counter == reset_enemy_counter
    205  7     015A    7A 0621             DEC enemy_hit                   ; Otherwise, enemy_hit--
    206  4+1   015D    31 21               LEAY 1,Y
    207  7     015F  10BF 061F             STY enemy_pos                   ; And move the enemy
    208  3     0163    20 03               BRA draw_enemy_end
    209        0165                    reset_enemy_counter
    210  7     0165    7F 0624             CLR counter                     ; We just reset the counter but don't move the enemy
    211        0168                    draw_enemy_end
    212
    213        0168                    draw_missiles
    214                                ****************** DRAW MISSILES
    215  2     0168    C6 0A               LDB #10
    216  3     016A    8E 0000             LDX #0
    217        016D                    draw_missile_loop
    218  4+4   016D    A6 89 0698          LDA missiles_life,X
    219  2     0171    81 00               CMPA #0
    220  3     0173    27 0D               BEQ next_missile        * If the pointer is null, then next
    221  6+4   0175  10AE 89 0684          LDY missiles_pos,X      * Y = missiles_pos[X]
    222  8     017A    BD 04C6             JSR draw_missile_line   * Draw missile first line
    223  4+1   017D    31 21               LEAY 1,Y                * Y++
    224  8     017F    BD 04C6             JSR draw_missile_line   * Draw missile second line
    225        0182                    next_missile
    226  4+1   0182    30 02               LEAX 2,X                * X += 2
    227  2     0184    5A                  DECB
    228  3     0185    26 E6               BNE draw_missile_loop
    229        0187                    end_missiles
    230
    231                                ****************************
    232                                * SOUNDS
    233                                ****************************
    234  5     0187    B6 062D             LDA sound_lvl
    235  2     018A    81 00               CMPA #0
    236  3     018C    27 06               BEQ shooting_sound
    237  2     018E    4A                  DECA
    238  5     018F    B7 062D             STA sound_lvl
    239  3     0192    20 28               BRA sound_end
    240        0194                    shooting_sound
    241  5     0194    B6 062E             LDA sound_sht_dur
    242  2     0197    81 00               CMPA #0
    243  3     0199    27 21               BEQ sound_end
    244  2     019B    4A                  DECA
    245  5     019C    B7 062E             STA sound_sht_dur
    246  2     019F    81 00               CMPA #0
    247  3     01A1    26 09               BNE shooting_sound_down
    248  4     01A3  108E 060F             LDY #sound_off
    249  8     01A7    BD 0573             JSR play_sound
    250  3     01AA    20 10               BRA sound_end
    251        01AC                    shooting_sound_down
    252  6     01AC    FC 05E5             LDD sound_shoot
    253  4     01AF    C3 0064             ADDD #100
    254  6     01B2    FD 05E5             STD sound_shoot
    255  4     01B5  108E 05E5             LDY #sound_shoot
    256  8     01B9    BD 0573             JSR play_sound
    257        01BC                    sound_end
    258
    259                                ****************************
    260                                * MOVE ENEMY
    261                                ****************************
    262  5     01BC    B6 0621             LDA enemy_hit
    263  2     01BF    81 00               CMPA #0
    264  3     01C1    26 3A               BNE move_enemy_end
    265        01C3                    hit_by_enemy
    266  2     01C3    86 05               LDA #5
    267  5     01C5    B7 0623             STA hit
    268  2     01C8    86 14               LDA #20
    269  5     01CA    B7 062D             STA sound_lvl
    270  4     01CD  108E 05D7             LDY #sound_hit_by_enemy
    271  8     01D1    BD 0573             JSR play_sound
    272
    273  5     01D4    B6 0629             LDA energy
    274  2     01D7    82 10               SBCA #$10
    275  5     01D9    B7 0629             STA energy
    276  2     01DC    81 00               CMPA #0
    277  3     01DE    26 03               BNE reposition_enemy
    278  7     01E0    7F 0624             CLR counter                 ; If energy == 0, counter = 0
    279        01E3                    reposition_enemy
    280  8     01E3    BD 0553             JSR rnd
    281  2     01E6    84 0F               ANDA #$0F
    282  2     01E8    48                  LSLA
    283  6     01E9    1F 89               TFR A,B
    284  2     01EB    86 00               LDA #0
    285  6     01ED    1F 02               TFR D,Y
    286  6+4   01EF  10AE A9 0664          LDY enemy_start_pos,Y
    287  7     01F4  10BF 061F             STY enemy_pos
    288  2     01F8    86 31               LDA #49
    289  5     01FA    B7 0621             STA enemy_hit
    290        01FD                    move_enemy_end
    291
    292                                ****************************
    293                                * MOVE MISSILES
    294                                ****************************
    295  2     01FD    C6 0A               LDB #10
    296  3     01FF    8E 0000             LDX #0
    297        0202                    move_missile_loop
    298  4+4   0202    A6 89 0698          LDA missiles_life,X
    299  2     0206    81 00               CMPA #0
    300  3     0208    27 1F               BEQ next_missile_to_move        ; missiles_life[X] == 0, next
    301  2     020A    4A                  DECA
    302  4+4   020B    A7 89 0698          STA missiles_life,X             ; missiles_life[X]--
    303  6+4   020F  10AE 89 0684          LDY missiles_pos,X
    304  8     0214  10BC 061F             CMPY enemy_pos
    305  6     0218  1027 0082             LBEQ destroy_enemy               ; if missile_pos[X] == enemy_pos, call destroy_enemy
    306        021C                    move_missile
    307  4+1   021C    31 3E               LEAY -2,Y
    308  6+4   021E  10AF 89 0684          STY missiles_pos,X              ; missiles_pos[X]--
    309  8     0223  10BC 061F             CMPY enemy_pos
    310  3     0227    27 75               BEQ destroy_enemy               ; if missile_pos[X] == enemy_pos, call destroy_enemy
    311        0229                    next_missile_to_move
    312  4+1   0229    30 02               LEAX 2,X                        ; X += 2
    313  2     022B    5A                  DECB
    314  3     022C    26 D4               BNE move_missile_loop
    315
    316                                ****************************
    317                                *    ; Bit 6 off ($40): right key down
    318                                *    ; Bit 5 off ($20): left key down
    319                                *    ; Bit 4 off ($10): space key down
    320        022E                    check_keyboard
    321  4     022E    96 46               LDA KEYB_REG
    322  2     0230    84 10               ANDA #$10
    323  2     0232    81 00               CMPA #$00
    324  6     0234  1026 00E0             LBNE keyboard_space
    325  2     0238    86 00               LDA #0
    326  5     023A    B7 06AE             STA space_key_down          ; space_key_down = 0
    327        023D                    next_key
    328  5     023D    B6 0624             LDA counter
    329  2     0240    84 01               ANDA #$1
    330  2     0242    81 00               CMPA #0
    331  6     0244  1026 FE93             LBNE MAIN_LOOP
    332  7     0248  10BE 061D             LDY player_pos              ; Y = player_pos
    333
    334        024C                    check_direction_keyboard
    335  4     024C    96 46               LDA KEYB_REG
    336  6     024E    1F 89               TFR A,B
    337  2     0250    84 20               ANDA #$20
    338  2     0252    81 00               CMPA #$00
    339  6     0254  1026 001A             LBNE single_move_left_done
    340  5     0258    B6 06AF             LDA move_key_down
    341  2     025B    81 00               CMPA #0
    342  3     025D    27 0B               BEQ set_first_move_left
    343  2     025F    81 01               CMPA #1
    344  3     0261    27 0C               BEQ set_continuous_move_left
    345  2     0263    4A                  DECA
    346  5     0264    B7 06AF             STA move_key_down
    347  4     0267    7E 00DB             JMP MAIN_LOOP
    348        026A                    set_first_move_left
    349  2     026A    86 03               LDA #3
    350  5     026C    B7 06AF             STA move_key_down
    351        026F                    set_continuous_move_left
    352  4     026F    7E 03D3             JMP KEYBOARD_LEFT
    353        0272                    single_move_left_done
    354  6     0272    1F 98               TFR B,A
    355  2     0274    84 40               ANDA #$40
    356  2     0276    81 00               CMPA #$00
    357  6     0278  1026 001A             LBNE single_move_right_done
    358  5     027C    B6 06AF             LDA move_key_down
    359  2     027F    81 00               CMPA #0
    360  3     0281    27 0B               BEQ set_first_move_right
    361  2     0283    81 01               CMPA #1
    362  3     0285    27 0C               BEQ set_continuous_move_right
    363  2     0287    4A                  DECA
    364  5     0288    B7 06AF             STA move_key_down
    365  4     028B    7E 00DB             JMP MAIN_LOOP
    366        028E                    set_first_move_right
    367  2     028E    86 03               LDA #3
    368  5     0290    B7 06AF             STA move_key_down
    369        0293                    set_continuous_move_right
    370  4     0293    7E 0362             JMP KEYBOARD_RIGHT
    371        0296                    single_move_right_done
    372  2     0296    86 00               LDA #0
    373  5     0298    B7 06AF             STA move_key_down
    374  4     029B    7E 00DB             JMP MAIN_LOOP
    375
    376                                ****************************
    377                                * END OF MAIN LOOP
    378                                ****************************
    379
    380                                ****************************
    381                                * DESTROY ENEMY
    382                                ****************************
    383        029E                    destroy_enemy
    384  5+1   029E    34 04               PSHS B
    385  2     02A0    86 00               LDA #0
    386  4+4   02A2    A7 89 0698          STA missiles_life,X
    387  4     02A6  108E 0000             LDY #0
    388  8     02AA    BD 0553             JSR rnd
    389  2     02AD    84 0F               ANDA #$0F
    390  2     02AF    48                  LSLA
    391  6     02B0    1F 89               TFR A,B
    392  2     02B2    86 00               LDA #0
    393  6     02B4    1F 02               TFR D,Y
    394  6+4   02B6  10AE A9 0664          LDY enemy_start_pos,Y
    395  7     02BB  10BF 061F             STY enemy_pos
    396  2     02BF    86 31               LDA #49
    397  5     02C1    B7 0621             STA enemy_hit
    398  2     02C4    86 14               LDA #20
    399  5     02C6    B7 062D             STA sound_lvl
    400  4     02C9  108E 0601             LDY #sound_enemy_hit
    401  8     02CD    BD 0573             JSR play_sound
    402  5+1   02D0    35 04               PULS B
    403  5     02D2    B6 05D5             LDA (score+10)
    404  2     02D5    81 39               CMPA #$39
    405  3     02D7    27 07               BEQ score_digit_2
    406  2     02D9    4C                  INCA
    407  5     02DA    B7 05D5             STA (score+10)
    408  4     02DD    7E 0229             JMP next_missile_to_move
    409        02E0                    score_digit_2
    410  7     02E0    7C 0622             INC enemy_pause_move_rate           ; Every 10 enemies shot, we increase their speed
    411  2     02E3    86 30               LDA #$30
    412  5     02E5    B7 05D5             STA (score+10)
    413  5     02E8    B6 05D4             LDA (score+9)
    414  2     02EB    81 39               CMPA #$39
    415  3     02ED    27 07               BEQ score_digit_3
    416  2     02EF    4C                  INCA
    417  5     02F0    B7 05D4             STA (score+9)
    418  4     02F3    7E 0229             JMP next_missile_to_move
    419        02F6                    score_digit_3
    420  2     02F6    86 30               LDA #$30
    421  5     02F8    B7 05D4             STA (score+9)
    422  5     02FB    B6 05D3             LDA (score+8)
    423  2     02FE    81 39               CMPA #$39
    424  3     0300    27 07               BEQ score_digit_4
    425  2     0302    4C                  INCA
    426  5     0303    B7 05D3             STA (score+8)
    427  4     0306    7E 0229             JMP next_missile_to_move
    428        0309                    score_digit_4
    429  2     0309    86 30               LDA #$30
    430  5     030B    B7 05D3             STA (score+8)
    431  5     030E    B6 05D2             LDA (score+7)
    432  2     0311    4C                  INCA
    433  5     0312    B7 05D2             STA (score+7)
    434  4     0315    7E 0229             JMP next_missile_to_move
    435
    436                                *********** FIRE
    437        0318                    keyboard_space
    438  5     0318    B6 06AE             LDA space_key_down
    439  2     031B    81 00               CMPA #0
    440  3     031D    26 40               BNE keyboard_space_end          ; is space_key_down != 0, skip
    441  2     031F    86 01               LDA #1
    442  5     0321    B7 06AE             STA space_key_down              ; space_key_down = 1
    443  2     0324    C6 0A               LDB #10
    444  3     0326    8E 0000             LDX #0
    445        0329                    look_for_available_missile_loop
    446  4+4   0329    A6 89 0698          LDA missiles_life,X
    447  2     032D    81 00               CMPA #0
    448  3     032F    26 29               BNE look_for_next_available_missile     ; if missiles_life[X] != 0, next
    449  7     0331  10BE 06AC             LDY player_missile_pos        ; Y = player_missile_pos
    450  6+4   0335  10AF 89 0684          STY missiles_pos,X               ; missiles_pos[X] = PLAYER_MISSILE_POS
    451  2     033A    86 31               LDA #49
    452  4+4   033C    A7 89 0698          STA missiles_life,X             ; missiles_life[X] = 100
    453  5     0340    B6 062D             LDA sound_lvl
    454  2     0343    81 00               CMPA #0
    455  3     0345    26 18               BNE keyboard_space_end
    456  4     0347  108E 05E5             LDY #sound_shoot
    457  8     034B    BD 0573             JSR play_sound
    458  2     034E    86 14               LDA #$14
    459  5     0350    B7 05E5             STA sound_shoot
    460  2     0353    86 0A               LDA #10
    461  5     0355    B7 062E             STA sound_sht_dur
    462  3     0358    20 05               BRA keyboard_space_end
    463        035A                    look_for_next_available_missile
    464  4+1   035A    30 02               LEAX 2,X
    465  2     035C    5A                  DECB
    466  3     035D    26 CA               BNE look_for_available_missile_loop
    467        035F                    keyboard_space_end
    468  4     035F    7E 023D             JMP next_key
    469
    470                                *********** MOVE RIGHT
    471        0362                    KEYBOARD_RIGHT                      * Y = player position
    472  5     0362  108C 002D             CMPY #45                        * If Y == 45 and going right
    473  3     0366    27 3C               BEQ RIGHT_RESET                 * Then reset the player_position
    474  2     0368    86 06               LDA #6                          * Otherwise paint lines Y, Y+1, Y+2 blue
    475  4+4   036A    A7 A9 07A1          STA line_color,Y
    476  4+4   036E    A7 A9 07A2          STA line_color+1,Y
    477  4+4   0372    A7 A9 07A3          STA line_color+2,Y
    478  2     0376    86 01               LDA #1                          * And paint lines Y+4, Y+5 yellow (Y+3 stays yellow)
    479  4+4   0378    A7 A9 07A5          STA line_color+4,Y
    480  4+4   037C    A7 A9 07A6          STA line_color+5,Y
    481  5     0380  108C 002A             CMPY #42                        * If player_position == 42
    482  3     0384    27 06               BEQ KEYBOARD_RIGHT_DRAW_FIRST_VECTOR
    483  4+4   0386    A7 A9 07A7          STA line_color+6,Y              * Paint line Y+6 yellow
    484  3     038A    20 04               BRA MOVE_PLAYER_RIGHT
    485        038C                    KEYBOARD_RIGHT_DRAW_FIRST_VECTOR
    486  4+4   038C    A7 A9 0777          STA line_color-42,Y             * Paint line 0 yellow
    487        0390                    MOVE_PLAYER_RIGHT
    488  4+1   0390    31 23               LEAY 3,Y
    489  7     0392  10BF 061D             STY player_pos
    490  7     0396  10BE 06AC             LDY player_missile_pos
    491  4+1   039A    31 A8 64            LEAY 100,Y
    492  7     039D  10BF 06AC             STY player_missile_pos
    493  4     03A1    7E 00DB             JMP MAIN_LOOP
    494        03A4                    RIGHT_RESET
    495  2     03A4    86 06               LDA #6
    496  4+4   03A6    A7 A9 07A1          STA line_color,Y
    497  4+4   03AA    A7 A9 07A2          STA line_color+1,Y
    498  4+4   03AE    A7 A9 07A3          STA line_color+2,Y
    499  4     03B2  108E 0062             LDY #98
    500  7     03B6  10BF 06AC             STY player_missile_pos
    501  4     03BA  108E 0000             LDY #0
    502  7     03BE  10BF 061D             STY player_pos
    503  2     03C2    86 01               LDA #1
    504  4+4   03C4    A7 A9 07A2          STA line_color+1,Y
    505  4+4   03C8    A7 A9 07A3          STA line_color+2,Y
    506  4+4   03CC    A7 A9 07A4          STA line_color+3,Y
    507  4     03D0    7E 00DB             JMP MAIN_LOOP
    508
    509                                *********** MOVE LEFT
    510        03D3                    KEYBOARD_LEFT
    511  5     03D3  108C 0000             CMPY #0
    512  3     03D7    27 3B               BEQ LEFT_RESET
    513  2     03D9    86 06               LDA #6
    514  4+4   03DB    A7 A9 07A2          STA line_color+1,Y
    515  4+4   03DF    A7 A9 07A3          STA line_color+2,Y
    516  5     03E3  108C 002D             CMPY #45
    517  3     03E7    27 06               BEQ KEYBOARD_LEFT_ERASE_FIRST_VECTOR
    518  4+4   03E9    A7 A9 07A4          STA line_color+3,Y
    519  3     03ED    20 03               BRA MOVE_PLAYER_LEFT
    520        03EF                    KEYBOARD_LEFT_ERASE_FIRST_VECTOR
    521  5     03EF    B7 07A1             STA line_color
    522        03F2                    MOVE_PLAYER_LEFT
    523  2     03F2    86 01               LDA #1
    524  4+4   03F4    A7 A9 07A0          STA line_color-1,Y
    525  4+4   03F8    A7 A9 079F          STA line_color-2,Y
    526  4+4   03FC    A7 A9 079E          STA line_color-3,Y
    527  4+1   0400    31 3D               LEAY -3,Y
    528  7     0402  10BF 061D             STY player_pos
    529  7     0406  10BE 06AC             LDY player_missile_pos
    530  4+1   040A    31 A8 9C            LEAY -100,Y
    531  7     040D  10BF 06AC             STY player_missile_pos
    532  4     0411    7E 00DB             JMP MAIN_LOOP
    533        0414                    LEFT_RESET
    534  2     0414    86 06               LDA #6
    535  4+4   0416    A7 A9 07A2          STA line_color+1,Y
    536  4+4   041A    A7 A9 07A3          STA line_color+2,Y
    537  4+4   041E    A7 A9 07A4          STA line_color+3,Y
    538  4     0422  108E 063E             LDY #1598
    539  7     0426  10BF 06AC             STY player_missile_pos
    540  4     042A  108E 002D             LDY #45
    541  7     042E  10BF 061D             STY player_pos
    542  2     0432    86 01               LDA #1
    543  4+4   0434    A7 A9 07A1          STA line_color,Y
    544  4+4   0438    A7 A9 07A2          STA line_color+1,Y
    545  4+4   043C    A7 A9 07A3          STA line_color+2,Y
    546  4     0440    7E 00DB             JMP MAIN_LOOP
    547
    548        0443                    END_PRG
    549  3     0443    20 FE               BRA END_PRG
    550
    551                                ********************************************************************************
    552
    553        0445                    clear_screen
    554        0445                    wait_video_chip_CS                  * WAIT_EF9365_READY();
    555  4     0445    96 00               LDA GPU_CMD
    556  2     0447    84 04               ANDA #4
    557  3     0449    27 FA               BEQ wait_video_chip_CS
    558
    559  5     044B    B6 0623             LDA hit
    560  2     044E    81 00               CMPA #0
    561  3     0450    27 0F               BEQ clear_screen_black
    562  2     0452    4A                  DECA
    563  5     0453    B7 0623             STA hit
    564  3     0456    8E F010             LDX #$F010
    565  2     0459    C6 03               LDB #3
    566  4+0   045B    E7 84               STB ,X
    567  2     045D    C6 0C               LDB #$C
    568  3     045F    20 02               BRA clear_screen_cmd
    569        0461                    clear_screen_black
    570  2     0461    C6 04               LDB #$4
    571        0463                    clear_screen_cmd
    572  3     0463    8E F000             LDX #GPU_CMD
    573  4+0   0466    E7 84           	STB ,X
    574  5     0468    39                  RTS
    575
    576                                ********************************************************************************
    577
    578        0469                    vblank
    579        0469                    wait_for_vsync
    580  4     0469    96 00               LDA GPU_CMD
    581  2     046B    84 02               ANDA #$02
    582  3     046D    27 FA               BEQ wait_for_vsync
    583        046F                    wait_for_vblank
    584  4     046F    96 00               LDA GPU_CMD
    585  2     0471    84 02               ANDA #$02
    586  3     0473    26 FA               BNE wait_for_vblank
    587  5     0475    39                  RTS
    588
    589                                ********************************************************************************
    590
    591        0476                    draw_line
    592        0476                    wait_video_chip_DL                  * WAIT_EF9365_READY();
    593                                *    LDA GPU_CMD
    594                                *    ANDA #4
    595                                *    BEQ wait_video_chip_DL
    596
    597  4+4   0476    A6 89 06B1          LDA line_x1,X
    598  4     047A    97 09               STA GPU_X_LSB   * X = X_staRT
    599  6     047C    0F 08               CLR GPU_X_MSB   * ? = 0
    600  6     047E    0F 0A               CLR GPU_Y_MSB   * ? = 0
    601  4+4   0480    A6 89 06E1          LDA line_y1,X
    602  4     0484    97 0B               STA GPU_Y_LSB   * Y = B
    603  4+4   0486    A6 89 0711          LDA line_dx,X
    604  4     048A    97 05               STA GPU_DX   * dX
    605  4+4   048C    A6 89 07A1          LDA line_color,X
    606  4     0490    97 10               STA GPU_COLOR   * color
    607  4+4   0492    A6 89 0741          LDA line_dy,X
    608  4     0496    97 07               STA GPU_DY   * dY
    609  4+4   0498    A6 89 0771          LDA line_cmd,X
    610  4     049C    97 00               STA GPU_CMD   * CMD = draw_line
    611  5     049E    39                  RTS
    612
    613                                ********************************************************************************
    614
    615        049F                    draw_enemy_line
    616                                *wait_video_chip_DEL                  * WAIT_EF9365_READY();
    617                                *    LDA GPU_CMD
    618                                *    ANDA #4
    619                                *    BEQ wait_video_chip_DEL
    620
    621  4+4   049F    A6 A9 07D1          LDA line_enemy_x1,Y
    622  4     04A3    97 09               STA GPU_X_LSB   * X = X_staRT
    623  6     04A5    0F 08               CLR GPU_X_MSB   * ? = 0
    624  6     04A7    0F 0A               CLR GPU_Y_MSB   * ? = 0
    625  4+4   04A9    A6 A9 0E11          LDA line_enemy_y1,Y
    626  4     04AD    97 0B               STA GPU_Y_LSB   * Y = B
    627  4+4   04AF    A6 A9 1451          LDA line_enemy_dx,Y
    628  4     04B3    97 05               STA GPU_DX   * dX
    629  2     04B5    86 03               LDA #3
    630  4     04B7    97 10               STA GPU_COLOR   * color
    631  4+4   04B9    A6 A9 1A91          LDA line_enemy_dy,Y
    632  4     04BD    97 07               STA GPU_DY   * dY
    633  4+4   04BF    A6 A9 20D1          LDA line_enemy_cmd,Y
    634  4     04C3    97 00               STA GPU_CMD   * CMD = draw_line
    635  5     04C5    39                  RTS
    636
    637                                ********************************************************************************
    638
    639        04C6                    draw_missile_line
    640                                *WAIT_VIDEO_CHIP_DEL                  * WAIT_EF9365_READY();
    641                                *    LDA GPU_CMD
    642                                *    ANDA #4
    643                                *    BEQ WAIT_VIDEO_CHIP_DEL
    644
    645  4+4   04C6    A6 A9 2711          LDA line_missile_x1,Y
    646  4     04CA    97 09               STA GPU_X_LSB   * X = X_staRT
    647  6     04CC    0F 08               CLR GPU_X_MSB   * ? = 0
    648  6     04CE    0F 0A               CLR GPU_Y_MSB   * ? = 0
    649  4+4   04D0    A6 A9 2D51          LDA line_missile_y1,Y
    650  4     04D4    97 0B               STA GPU_Y_LSB   * Y = B
    651  4+4   04D6    A6 A9 3391          LDA line_missile_dx,Y
    652  4     04DA    97 05               STA GPU_DX   * dX
    653  2     04DC    86 05               LDA #5
    654  4     04DE    97 10               STA GPU_COLOR   * color
    655  4+4   04E0    A6 A9 39D1          LDA line_missile_dy,Y
    656  4     04E4    97 07               STA GPU_DY   * dY
    657  4+4   04E6    A6 A9 4011          LDA line_missile_cmd,Y
    658  4     04EA    97 00               STA GPU_CMD   * CMD = draw_line
    659  5     04EC    39                  RTS
    660
    661                                ********************************************************************************
    662
    663        04ED                    draw_energy_line
    664  2     04ED    86 00               LDA #0
    665  4     04EF    97 09               STA GPU_X_LSB   * X = 0
    666  6     04F1    0F 08               CLR GPU_X_MSB   * ? = 0
    667  6     04F3    0F 0A               CLR GPU_Y_MSB   * ? = 0
    668  2     04F5    86 0A               LDA #10
    669  4     04F7    97 0B               STA GPU_Y_LSB   * Y = 10
    670  5     04F9    B6 0629             LDA energy
    671  4     04FC    97 05               STA GPU_DX   * dX = energy
    672  2     04FE    86 02               LDA #2
    673  4     0500    97 10               STA GPU_COLOR   * color = 2
    674  6     0502    0F 07               CLR GPU_DY   * dY = 0
    675  2     0504    86 11               LDA #$11
    676  4     0506    97 00               STA GPU_CMD   * CMD = draw_line
    677  5     0508    39                  RTS
    678
    679                                ********************************************************************************
    680
    681        0509                    display_text
    682  2     0509    86 00               LDA #$0
    683  4     050B    97 10               STA GPU_COLOR       ; Color (white)
    684
    685  6     050D    0F 08               CLR $F008
    686  2     050F    86 60               LDA #$60        ; X position
    687  4     0511    97 09               STA $F009
    688  6     0513    0F 0A               CLR $F00A
    689
    690  2     0515    86 11               LDA #$11        ; Text size
    691  4     0517    97 03               STA GPU_CSIZE
    692
    693        0519                    text_loop
    694  4+2   0519    A6 80               LDA ,X+
    695  3     051B    27 04               BEQ text_end
    696  4     051D    97 00               STA $F000
    697  3     051F    20 F8               BRA text_loop
    698        0521                    text_end
    699  5     0521    39                  RTS
    700
    701                                ********************************************************************************
    702
    703        0522                    display_game_over
    704  2     0522    86 00               LDA #$0
    705  4     0524    97 10               STA GPU_COLOR       ; Color (white)
    706  2     0526    86 78               LDA #$78
    707  4     0528    97 0B               STA GPU_Y_LSB       ; Y = $78
    708
    709        052A                    display_custom_text
    710  6     052A    0F 08               CLR GPU_X_MSB
    711  6     052C    0F 0A               CLR GPU_Y_MSB
    712
    713        052E                    text_gameover_loop
    714  4+2   052E    A6 80               LDA ,X+
    715  3     0530    27 04               BEQ text_gameover_end
    716  4     0532    97 00               STA $F000
    717  3     0534    20 F8               BRA text_gameover_loop
    718        0536                    text_gameover_end
    719  5     0536    39                  RTS
    720
    721                                ********************************************************************************
    722
    723        0537                    wait_for_space_key
    724  4     0537    96 46               LDA KEYB_REG
    725  2     0539    84 10               ANDA #$10
    726  2     053B    81 00               CMPA #$00
    727  3     053D    27 F8               BEQ wait_for_space_key      ; Wait for the space key NOT to be pressed
    728        053F                    wait_for_space_key_down
    729  8     053F    BD 0553             JSR rnd
    730  4     0542    96 46               LDA KEYB_REG
    731  2     0544    84 10               ANDA #$10
    732  2     0546    81 00               CMPA #$00
    733  3     0548    26 F5               BNE wait_for_space_key_down
    734        054A                    wait_for_space_key_up
    735  4     054A    96 46               LDA KEYB_REG
    736  2     054C    84 10               ANDA #$10
    737  2     054E    81 00               CMPA #$00
    738  3     0550    27 F8               BEQ wait_for_space_key_up
    739  5     0552    39                  RTS
    740
    741                                ********************************************************************************
    742
    743        0553                    rnd
    744  7     0553    7C 0628             INC     rndx
    745  5     0556    B6 0625             LDA     rnda
    746  5     0559    B8 0627             EORA    rndc
    747  5     055C    B8 0628             EORA    rndx
    748  5     055F    B7 0625             STA     rnda
    749  5     0562    BB 0626             ADDA    rndb
    750  5     0565    B7 0626             STA     rndb
    751  2     0568    44                  LSRA
    752  5     0569    BB 0627             ADDA    rndc
    753  5     056C    B8 0625             EORA    rnda
    754  5     056F    B7 0627             STA     rndc
    755  5     0572    39                  RTS
    756
    757        0573                    play_sound
    758  3     0573    8E F060             LDX #AY_REG
    759
    760  2     0576    86 00               LDA #00
    761  4+2   0578    E6 A0               LDB ,Y+
    762  5+0   057A    ED 84               STD ,X
    763
    764  2     057C    86 01               LDA #01
    765  4+2   057E    E6 A0               LDB ,Y+
    766  5+0   0580    ED 84               STD ,X
    767
    768  2     0582    86 02               LDA #02
    769  4+2   0584    E6 A0               LDB ,Y+
    770  5+0   0586    ED 84               STD ,X
    771
    772  2     0588    86 03               LDA #03
    773  4+2   058A    E6 A0               LDB ,Y+
    774  5+0   058C    ED 84               STD ,X
    775
    776  2     058E    86 04               LDA #04
    777  4+2   0590    E6 A0               LDB ,Y+
    778  5+0   0592    ED 84               STD ,X
    779
    780  2     0594    86 05               LDA #05
    781  4+2   0596    E6 A0               LDB ,Y+
    782  5+0   0598    ED 84               STD ,X
    783
    784  2     059A    86 06               LDA #06
    785  4+2   059C    E6 A0               LDB ,Y+
    786  5+0   059E    ED 84               STD ,X
    787
    788  2     05A0    86 07               LDA #07
    789  4+2   05A2    E6 A0               LDB ,Y+
    790  5+0   05A4    ED 84               STD ,X
    791
    792  2     05A6    86 08               LDA #08
    793  4+2   05A8    E6 A0               LDB ,Y+
    794  5+0   05AA    ED 84               STD ,X
    795
    796  2     05AC    86 09               LDA #09
    797  4+2   05AE    E6 A0               LDB ,Y+
    798  5+0   05B0    ED 84               STD ,X
    799
    800  2     05B2    86 0A               LDA #10
    801  4+2   05B4    E6 A0               LDB ,Y+
    802  5+0   05B6    ED 84               STD ,X
    803
    804  2     05B8    86 0B               LDA #11
    805  4+2   05BA    E6 A0               LDB ,Y+
    806  5+0   05BC    ED 84               STD ,X
    807
    808  2     05BE    86 0C               LDA #12
    809  4+2   05C0    E6 A0               LDB ,Y+
    810  5+0   05C2    ED 84               STD ,X
    811
    812  2     05C4    86 0D               LDA #13
    813  4+2   05C6    E6 A0               LDB ,Y+
    814  5+0   05C8    ED 84               STD ,X
    815
    816  5     05CA    39                  RTS
    817
    818                                ********************************************************************************
    819
    820        05CB                    score
    821        05CB   53 63 6F 72          FCC /Score: 0000/
               05CF   65 3A 20 30
               05D3   30 30 30
    822        05D6   00                   FCB 0
    823
    824        05D7                    sound_hit_by_enemy
    825                                *    FCB $01,$01,$01,$01,$01,$01,$01,$00,$78,$76,$20,$2C,$04,$00
    826        05D7   32 34 37 38          FCB $32,$34,$37,$38,$3A,$2D,$00,$00,$78,$76,$20,$2C,$2E,$00
               05DB   3A 2D 00 00
               05DF   78 76 20 2C
               05E3   2E 00
    827                                *    FCB $F3,$05,$00,$00,$00,$00,$00,$F8,$09,$09,$00,$00,$00,$FF
    828                                *    FCB $00,$00,$00,$00,$00,$00,$1F,$07,$08,$08,$08,$D0,$07,$09
    829
    830        05E5                    sound_shoot
    831        05E5   14 00 00 00          FCB $14,$00,$00,$00,$00,$00,$00,$7E,$10,$00,$00,$E8,$E3,$00
               05E9   00 00 00 7E
               05ED   10 00 00 E8
               05F1   E3 00
    832        05F3   02 02 02 02          FCB $02,$02,$02,$02,$02,$02,$20,$78,$78,$76,$20,$2C,$05,$00
               05F7   02 02 20 78
               05FB   78 76 20 2C
               05FF   05 00
    833
    834        0601                    sound_enemy_hit
    835        0601   02 02 07 02          FCB $02,$02,$07,$02,$0A,$02,$00,$00,$78,$76,$20,$2C,$2E,$00
               0605   0A 02 00 00
               0609   78 76 20 2C
               060D   2E 00
    836                                *    FCB $F0,$05,$00,$00,$00,$00,$00,$F8,$09,$09,$00,$00,$00,$00
    837                                *    FCB $00,$00,$00,$00,$00,$00,$1F,$47,$08,$08,$08,$D0,$07,$09
    838
    839        060F                    sound_off
    840        060F   00 00 00 00          FCB $00,$00,$00,$00,$00,$00,$00,$00,$00,$00,$00,$00,$00,$FF
               0613   00 00 00 00
               0617   00 00 00 00
               061B   00 FF
    841
    842        061D   0000             player_pos      FDB $0000
    843        061F   0000             enemy_pos       FDB $0000
    844        0621   00               enemy_hit       FCB $00
    845        0622   00               enemy_pause_move_rate  FCB $00
    846        0623   00               hit             FCB $00
    847        0624   00               counter         FCB $00
    848        0625   00               rnda            FCB 0
    849        0626   00               rndb            FCB 0
    850        0627   00               rndc            FCB 0
    851        0628   00               rndx            FCB 0
    852        0629   00               energy          FCB 0
    853        062A   00               gameover        FCB 0
    854        062B   11               gameover_size   FCB $11
    855        062C   A0               gameover_x      FCB $A0
    856        062D   00               sound_lvl       FCB 0
    857        062E   00               sound_sht_dur   FCB 0
    858
    859        062F                    txt_splash_temps
    860        062F   54 65 6D 70          FCC /Temps/
               0633   73
    861        0634   00                   FCB 0
    862        0635                    txt_splash_pourri
    863        0635   50 6F 75 72          FCC /Pourri/
               0639   72 69
    864        063B   00                   FCB 0
    865        063C                    txt_splash_credit
    866        063C   43 6F 70 79          FCC /Copyleft 2025 Laurent Poulain/
               0640   6C 65 66 74
               0644   20 32 30 32
               0648   35 20 4C 61
               064C   75 72 65 6E
               0650   74 20 50 6F
               0654   75 6C 61 69
               0658   6E
    867        0659   00                   FCB 0
    868
    869        065A                    txt_game_over
    870        065A   47 61 6D 65          FCC /Game Over/
               065E   20 4F 76 65
               0662   72
    871        0663   00                   FCB 0
    872
    873        0664                    enemy_start_pos
    874        0664   0000 0064            FDB $0000,$0064,$00C8,$012C,$0190,$01F4,$0258,$02BC,$0320,$0384,$03E8,$044C,$04B0,$0514,$0578,$05DC
               0668   00C8 012C
               066C   0190 01F4
               0670   0258 02BC
               0674   0320 0384
               0678   03E8 044C
               067C   04B0 0514
               0680   0578 05DC
    875        0684                    missiles_pos
    876        0684   0000 0000            FDB $0000,$0000,$0000,$0000,$0000,$0000,$0000,$0000,$0000,$0000
               0688   0000 0000
               068C   0000 0000
               0690   0000 0000
               0694   0000 0000
    877        0698                    missiles_life
    878        0698   0000 0000            FDB $0000,$0000,$0000,$0000,$0000,$0000,$0000,$0000,$0000,$0000
               069C   0000 0000
               06A0   0000 0000
               06A4   0000 0000
               06A8   0000 0000
    879        06AC                    player_missile_pos
    880        06AC   0000                 FDB $0000
    881        06AE   00               space_key_down  fcb $00
    882        06AF   00               move_key_down  fcb $00
    883        06B0   00               next_missile_idx    fcb $00
    884
    885

               ----------------------------------------------------------------
    886                                    INCLUD "temps_pourri/temps_pourri_vectors.asm"
      1        06B1                    line_x1
      2        06B1   71 28 71 7D          FCB $71,$28,$71,$7d,$5a,$7d,$7d,$5a,$7d,$89,$85,$89,$95,$ad,$95,$95,$ad,$95,$a1,$dc,$a1,$a1,$dc,$a1,$a1,$dc,$a1,$95,$ad,$95,$95,$ad,$95,$88,$85,$88,$7c,$59,$7c,$7c
               06B5   5A 7D 7D 5A
               06B9   7D 89 85 89
               06BD   95 AD 95 95
               06C1   AD 95 A1 DC
               06C5   A1 A1 DC A1
               06C9   A1 DC A1 95
               06CD   AD 95 95 AD
               06D1   95 88 85 88
               06D5   7C 59 7C 7C
      3        06D9   7C 59 71 71          FCB $7c,$59,$71,$71,$28,$71,$28,$71
               06DD   28 71 28 71
      4        06E1                    line_y1
      5        06E1   80 4A 80 80          FCB $80,$4a,$80,$80,$4a,$80,$75,$25,$75,$75,$25,$75,$75,$25,$75,$82,$4c,$82,$82,$4c,$82,$8c,$79,$8c,$97,$a7,$97,$97,$a7,$97,$a6,$d1,$a6,$a6,$d1,$a6,$a6,$d1,$a6,$96
               06E5   4A 80 75 25
               06E9   75 75 25 75
               06ED   75 25 75 82
               06F1   4C 82 82 4C
               06F5   82 8C 79 8C
               06F9   97 A7 97 97
               06FD   A7 97 A6 D1
               0701   A6 A6 D1 A6
               0705   A6 D1 A6 96
      6        0709   96 A7 96 96          FCB $96,$a7,$96,$96,$a7,$8b,$82,$8b
               070D   A7 8B 82 8B
      7        0711                    line_dx
      8        0711   49 32 0C 23          FCB $49,$32,$c,$23,$0,$0,$23,$2c,$c,$4,$28,$c,$18,$0,$0,$18,$2f,$c,$3b,$0,$0,$3b,$0,$0,$3b,$30,$c,$18,$0,$0,$18,$28,$d,$3,$2c,$c,$23,$0,$0,$23
               0715   00 00 23 2C
               0719   0C 04 28 0C
               071D   18 00 00 18
               0721   2F 0C 3B 00
               0725   00 3B 00 00
               0729   3B 30 0C 18
               072D   00 00 18 28
               0731   0D 03 2C 0C
               0735   23 00 00 23
      9        0739   0B 31 49 00          FCB $b,$31,$49,$0,$0,$49,$0,$0
               073D   00 49 00 00
     10        0741                    line_dy
     11        0741   36 00 00 36          FCB $36,$0,$0,$36,$25,$b,$50,$0,$0,$50,$0,$0,$50,$28,$d,$36,$0,$0,$36,$2e,$a,$13,$2e,$b,$10,$0,$0,$10,$2a,$f,$2b,$0,$0,$2b,$0,$0,$2b,$2a,$10,$11
               0745   25 0B 50 00
               0749   00 50 00 00
               074D   50 28 0D 36
               0751   00 00 36 2E
               0755   0A 13 2E 0B
               0759   10 00 00 10
               075D   2A 0F 2B 00
               0761   00 2B 00 00
               0765   2B 2A 10 11
     12        0769   00 00 11 0B          FCB $0,$0,$11,$b,$25,$9,$38,$b
               076D   25 09 38 0B
     13        0771                    line_cmd
     14        0771   17 11 11 17          FCB $17,$11,$11,$17,$15,$15,$17,$11,$11,$17,$11,$11,$15,$11,$11,$15,$11,$11,$15,$11,$11,$15,$11,$11,$11,$13,$13,$11,$11,$11,$11,$13,$13,$13,$13,$13,$13,$15,$15,$13
               0775   15 15 17 11
               0779   11 17 11 11
               077D   15 11 11 15
               0781   11 11 15 11
               0785   11 15 11 11
               0789   11 13 13 11
               078D   11 11 11 13
               0791   13 13 13 13
               0795   13 15 15 13
     15        0799   13 13 13 15          FCB $13,$13,$13,$15,$15,$17,$15,$15
               079D   15 17 15 15
     16        07A1                    line_color
     17        07A1   01 01 01 01          FCB $1,$1,$1,$1,$6,$6,$6,$6,$6,$6,$6,$6,$6,$6,$6,$6,$6,$6,$6,$6,$6,$6,$6,$6,$6,$6,$6,$6,$6,$6,$6,$6,$6,$6,$6,$6,$6,$6,$6,$6
               07A5   06 06 06 06
               07A9   06 06 06 06
               07AD   06 06 06 06
               07B1   06 06 06 06
               07B5   06 06 06 06
               07B9   06 06 06 06
               07BD   06 06 06 06
               07C1   06 06 06 06
               07C5   06 06 06 06
     18        07C9   06 06 06 06          FCB $6,$6,$6,$6,$6,$6,$6,$6
               07CD   06 06 06 06
     19        07D1                    line_enemy_x1
     20        07D1   71 7D 70 7C          FCB $71,$7d,$70,$7c,$6e,$7c,$6d,$7b,$6c,$7b,$6b,$7a,$69,$79,$68,$79,$67,$78,$66,$78,$64,$77,$63,$76,$62,$76,$61,$75,$5f,$75,$5e,$74,$5d,$73,$5c,$73,$5a,$72,$59,$72
               07D5   6E 7C 6D 7B
               07D9   6C 7B 6B 7A
               07DD   69 79 68 79
               07E1   67 78 66 78
               07E5   64 77 63 76
               07E9   62 76 61 75
               07ED   5F 75 5E 74
               07F1   5D 73 5C 73
               07F5   5A 72 59 72
     21        07F9   58 71 57 70          FCB $58,$71,$57,$70,$55,$70,$54,$6f,$53,$6f,$52,$6e,$50,$6d,$4f,$6d,$4e,$6c,$4c,$6c,$4b,$6b,$4a,$6a,$49,$6a,$47,$69,$46,$68,$45,$68,$44,$67,$42,$67,$41,$66,$40,$65
               07FD   55 70 54 6F
               0801   53 6F 52 6E
               0805   50 6D 4F 6D
               0809   4E 6C 4C 6C
               080D   4B 6B 4A 6A
               0811   49 6A 47 69
               0815   46 68 45 68
               0819   44 67 42 67
               081D   41 66 40 65
     22        0821   3F 65 3D 64          FCB $3f,$65,$3d,$64,$3c,$64,$3b,$63,$3a,$62,$38,$62,$37,$61,$36,$61,$35,$60,$33,$5f,$7d,$7d,$7c,$7c,$7c,$7c,$7b,$7b,$7b,$7b,$7a,$7a,$79,$79,$79,$79,$78,$78,$78,$78
               0825   3C 64 3B 63
               0829   3A 62 38 62
               082D   37 61 36 61
               0831   35 60 33 5F
               0835   7D 7D 7C 7C
               0839   7C 7C 7B 7B
               083D   7B 7B 7A 7A
               0841   79 79 79 79
               0845   78 78 78 78
     23        0849   77 77 76 76          FCB $77,$77,$76,$76,$76,$76,$75,$75,$75,$75,$74,$74,$73,$73,$73,$73,$72,$72,$72,$72,$71,$71,$70,$70,$70,$70,$6f,$6f,$6f,$6f,$6e,$6e,$6d,$6d,$6d,$6d,$6c,$6c,$6c,$6c
               084D   76 76 75 75
               0851   75 75 74 74
               0855   73 73 73 73
               0859   72 72 72 72
               085D   71 71 70 70
               0861   70 70 6F 6F
               0865   6F 6F 6E 6E
               0869   6D 6D 6D 6D
               086D   6C 6C 6C 6C
     24        0871   6B 6B 6A 6A          FCB $6b,$6b,$6a,$6a,$6a,$6a,$69,$69,$68,$68,$68,$68,$67,$67,$67,$67,$66,$66,$65,$65,$65,$65,$64,$64,$64,$64,$63,$63,$62,$62,$62,$62,$61,$61,$61,$61,$60,$60,$5f,$5f
               0875   6A 6A 69 69
               0879   68 68 68 68
               087D   67 67 67 67
               0881   66 66 65 65
               0885   65 65 64 64
               0889   64 64 63 63
               088D   62 62 62 62
               0891   61 61 61 61
               0895   60 60 5F 5F
     25        0899   7D 89 7C 89          FCB $7d,$89,$7c,$89,$7c,$89,$7b,$89,$7b,$89,$7a,$89,$79,$89,$79,$89,$78,$88,$78,$88,$77,$88,$76,$88,$76,$88,$75,$88,$75,$88,$74,$88,$73,$88,$73,$88,$72,$88,$72,$88
               089D   7C 89 7B 89
               08A1   7B 89 7A 89
               08A5   79 89 79 89
               08A9   78 88 78 88
               08AD   77 88 76 88
               08B1   76 88 75 88
               08B5   75 88 74 88
               08B9   73 88 73 88
               08BD   72 88 72 88
     26        08C1   71 88 70 88          FCB $71,$88,$70,$88,$70,$87,$6f,$87,$6f,$87,$6e,$87,$6d,$87,$6d,$87,$6c,$87,$6c,$87,$6b,$87,$6a,$87,$6a,$87,$69,$87,$68,$87,$68,$87,$67,$87,$67,$86,$66,$86,$65,$86
               08C5   70 87 6F 87
               08C9   6F 87 6E 87
               08CD   6D 87 6D 87
               08D1   6C 87 6C 87
               08D5   6B 87 6A 87
               08D9   6A 87 69 87
               08DD   68 87 68 87
               08E1   67 87 67 86
               08E5   66 86 65 86
     27        08E9   65 86 64 86          FCB $65,$86,$64,$86,$64,$86,$63,$86,$62,$86,$62,$86,$61,$86,$61,$86,$60,$86,$5f,$86,$89,$95,$89,$95,$89,$96,$89,$96,$89,$97,$89,$97,$89,$97,$89,$98,$88,$98,$88,$99
               08ED   64 86 63 86
               08F1   62 86 62 86
               08F5   61 86 61 86
               08F9   60 86 5F 86
               08FD   89 95 89 95
               0901   89 96 89 96
               0905   89 97 89 97
               0909   89 97 89 98
               090D   88 98 88 99
     28        0911   88 99 88 9A          FCB $88,$99,$88,$9a,$88,$9a,$88,$9a,$88,$9b,$88,$9b,$88,$9c,$88,$9c,$88,$9c,$88,$9d,$88,$9d,$88,$9e,$87,$9e,$87,$9f,$87,$9f,$87,$9f,$87,$a0,$87,$a0,$87,$a1,$87,$a1
               0915   88 9A 88 9A
               0919   88 9B 88 9B
               091D   88 9C 88 9C
               0921   88 9C 88 9D
               0925   88 9D 88 9E
               0929   87 9E 87 9F
               092D   87 9F 87 9F
               0931   87 A0 87 A0
               0935   87 A1 87 A1
     29        0939   87 A1 87 A2          FCB $87,$a1,$87,$a2,$87,$a2,$87,$a3,$87,$a3,$87,$a3,$87,$a4,$86,$a4,$86,$a5,$86,$a5,$86,$a6,$86,$a6,$86,$a6,$86,$a7,$86,$a7,$86,$a8,$86,$a8,$86,$a8,$86,$a9,$86,$a9
               093D   87 A2 87 A3
               0941   87 A3 87 A3
               0945   87 A4 86 A4
               0949   86 A5 86 A5
               094D   86 A6 86 A6
               0951   86 A6 86 A7
               0955   86 A7 86 A8
               0959   86 A8 86 A8
               095D   86 A9 86 A9
     30        0961   95 95 95 95          FCB $95,$95,$95,$95,$96,$96,$96,$96,$97,$97,$97,$97,$97,$97,$98,$98,$98,$98,$99,$99,$99,$99,$9a,$9a,$9a,$9a,$9a,$9a,$9b,$9b,$9b,$9b,$9c,$9c,$9c,$9c,$9c,$9c,$9d,$9d
               0965   96 96 96 96
               0969   97 97 97 97
               096D   97 97 98 98
               0971   98 98 99 99
               0975   99 99 9A 9A
               0979   9A 9A 9A 9A
               097D   9B 9B 9B 9B
               0981   9C 9C 9C 9C
               0985   9C 9C 9D 9D
     31        0989   9D 9D 9E 9E          FCB $9d,$9d,$9e,$9e,$9e,$9e,$9f,$9f,$9f,$9f,$9f,$9f,$a0,$a0,$a0,$a0,$a1,$a1,$a1,$a1,$a1,$a1,$a2,$a2,$a2,$a2,$a3,$a3,$a3,$a3,$a3,$a3,$a4,$a4,$a4,$a4,$a5,$a5,$a5,$a5
               098D   9E 9E 9F 9F
               0991   9F 9F 9F 9F
               0995   A0 A0 A0 A0
               0999   A1 A1 A1 A1
               099D   A1 A1 A2 A2
               09A1   A2 A2 A3 A3
               09A5   A3 A3 A3 A3
               09A9   A4 A4 A4 A4
               09AD   A5 A5 A5 A5
     32        09B1   A6 A6 A6 A6          FCB $a6,$a6,$a6,$a6,$a6,$a6,$a7,$a7,$a7,$a7,$a8,$a8,$a8,$a8,$a8,$a8,$a9,$a9,$a9,$a9,$95,$a1,$95,$a2,$96,$a3,$96,$a4,$97,$a5,$97,$a6,$97,$a7,$98,$a8,$98,$a9,$99,$aa
               09B5   A6 A6 A7 A7
               09B9   A7 A7 A8 A8
               09BD   A8 A8 A8 A8
               09C1   A9 A9 A9 A9
               09C5   95 A1 95 A2
               09C9   96 A3 96 A4
               09CD   97 A5 97 A6
               09D1   97 A7 98 A8
               09D5   98 A9 99 AA
     33        09D9   99 AB 9A AC          FCB $99,$ab,$9a,$ac,$9a,$ad,$9a,$ae,$9b,$af,$9b,$b0,$9c,$b1,$9c,$b2,$9c,$b3,$9d,$b4,$9d,$b5,$9e,$b6,$9e,$b7,$9f,$b8,$9f,$b9,$9f,$ba,$a0,$bb,$a0,$bc,$a1,$bd,$a1,$be
               09DD   9A AD 9A AE
               09E1   9B AF 9B B0
               09E5   9C B1 9C B2
               09E9   9C B3 9D B4
               09ED   9D B5 9E B6
               09F1   9E B7 9F B8
               09F5   9F B9 9F BA
               09F9   A0 BB A0 BC
               09FD   A1 BD A1 BE
     34        0A01   A1 C0 A2 C1          FCB $a1,$c0,$a2,$c1,$a2,$c2,$a3,$c3,$a3,$c4,$a3,$c5,$a4,$c6,$a4,$c7,$a5,$c8,$a5,$c9,$a6,$ca,$a6,$cb,$a6,$cc,$a7,$cd,$a7,$ce,$a8,$cf,$a8,$d0,$a8,$d1,$a9,$d2,$a9,$d3
               0A05   A2 C2 A3 C3
               0A09   A3 C4 A3 C5
               0A0D   A4 C6 A4 C7
               0A11   A5 C8 A5 C9
               0A15   A6 CA A6 CB
               0A19   A6 CC A7 CD
               0A1D   A7 CE A8 CF
               0A21   A8 D0 A8 D1
               0A25   A9 D2 A9 D3
     35        0A29   A1 A1 A2 A2          FCB $a1,$a1,$a2,$a2,$a3,$a3,$a4,$a4,$a5,$a5,$a6,$a6,$a7,$a7,$a8,$a8,$a9,$a9,$aa,$aa,$ab,$ab,$ac,$ac,$ad,$ad,$ae,$ae,$af,$af,$b0,$b0,$b1,$b1,$b2,$b2,$b3,$b3,$b4,$b4
               0A2D   A3 A3 A4 A4
               0A31   A5 A5 A6 A6
               0A35   A7 A7 A8 A8
               0A39   A9 A9 AA AA
               0A3D   AB AB AC AC
               0A41   AD AD AE AE
               0A45   AF AF B0 B0
               0A49   B1 B1 B2 B2
               0A4D   B3 B3 B4 B4
     36        0A51   B5 B5 B6 B6          FCB $b5,$b5,$b6,$b6,$b7,$b7,$b8,$b8,$b9,$b9,$ba,$ba,$bb,$bb,$bc,$bc,$bd,$bd,$be,$be,$c0,$c0,$c1,$c1,$c2,$c2,$c3,$c3,$c4,$c4,$c5,$c5,$c6,$c6,$c7,$c7,$c8,$c8,$c9,$c9
               0A55   B7 B7 B8 B8
               0A59   B9 B9 BA BA
               0A5D   BB BB BC BC
               0A61   BD BD BE BE
               0A65   C0 C0 C1 C1
               0A69   C2 C2 C3 C3
               0A6D   C4 C4 C5 C5
               0A71   C6 C6 C7 C7
               0A75   C8 C8 C9 C9
     37        0A79   CA CA CB CB          FCB $ca,$ca,$cb,$cb,$cc,$cc,$cd,$cd,$ce,$ce,$cf,$cf,$d0,$d0,$d1,$d1,$d2,$d2,$d3,$d3,$a1,$a1,$a2,$a2,$a3,$a3,$a4,$a4,$a5,$a5,$a6,$a6,$a7,$a7,$a8,$a8,$a9,$a9,$aa,$aa
               0A7D   CC CC CD CD
               0A81   CE CE CF CF
               0A85   D0 D0 D1 D1
               0A89   D2 D2 D3 D3
               0A8D   A1 A1 A2 A2
               0A91   A3 A3 A4 A4
               0A95   A5 A5 A6 A6
               0A99   A7 A7 A8 A8
               0A9D   A9 A9 AA AA
     38        0AA1   AB AB AC AC          FCB $ab,$ab,$ac,$ac,$ad,$ad,$ae,$ae,$af,$af,$b0,$b0,$b1,$b1,$b2,$b2,$b3,$b3,$b4,$b4,$b5,$b5,$b6,$b6,$b7,$b7,$b8,$b8,$b9,$b9,$ba,$ba,$bb,$bb,$bc,$bc,$bd,$bd,$be,$be
               0AA5   AD AD AE AE
               0AA9   AF AF B0 B0
               0AAD   B1 B1 B2 B2
               0AB1   B3 B3 B4 B4
               0AB5   B5 B5 B6 B6
               0AB9   B7 B7 B8 B8
               0ABD   B9 B9 BA BA
               0AC1   BB BB BC BC
               0AC5   BD BD BE BE
     39        0AC9   C0 C0 C1 C1          FCB $c0,$c0,$c1,$c1,$c2,$c2,$c3,$c3,$c4,$c4,$c5,$c5,$c6,$c6,$c7,$c7,$c8,$c8,$c9,$c9,$ca,$ca,$cb,$cb,$cc,$cc,$cd,$cd,$ce,$ce,$cf,$cf,$d0,$d0,$d1,$d1,$d2,$d2,$d3,$d3
               0ACD   C2 C2 C3 C3
               0AD1   C4 C4 C5 C5
               0AD5   C6 C6 C7 C7
               0AD9   C8 C8 C9 C9
               0ADD   CA CA CB CB
               0AE1   CC CC CD CD
               0AE5   CE CE CF CF
               0AE9   D0 D0 D1 D1
               0AED   D2 D2 D3 D3
     40        0AF1   A1 95 A2 95          FCB $a1,$95,$a2,$95,$a3,$96,$a4,$96,$a5,$97,$a6,$97,$a7,$97,$a8,$98,$a9,$98,$aa,$99,$ab,$99,$ac,$9a,$ad,$9a,$ae,$9a,$af,$9b,$b0,$9b,$b1,$9c,$b2,$9c,$b3,$9c,$b4,$9d
               0AF5   A3 96 A4 96
               0AF9   A5 97 A6 97
               0AFD   A7 97 A8 98
               0B01   A9 98 AA 99
               0B05   AB 99 AC 9A
               0B09   AD 9A AE 9A
               0B0D   AF 9B B0 9B
               0B11   B1 9C B2 9C
               0B15   B3 9C B4 9D
     41        0B19   B5 9D B6 9E          FCB $b5,$9d,$b6,$9e,$b7,$9e,$b8,$9f,$b9,$9f,$ba,$9f,$bb,$a0,$bc,$a0,$bd,$a1,$be,$a1,$c0,$a1,$c1,$a2,$c2,$a2,$c3,$a3,$c4,$a3,$c5,$a3,$c6,$a4,$c7,$a4,$c8,$a5,$c9,$a5
               0B1D   B7 9E B8 9F
               0B21   B9 9F BA 9F
               0B25   BB A0 BC A0
               0B29   BD A1 BE A1
               0B2D   C0 A1 C1 A2
               0B31   C2 A2 C3 A3
               0B35   C4 A3 C5 A3
               0B39   C6 A4 C7 A4
               0B3D   C8 A5 C9 A5
     42        0B41   CA A6 CB A6          FCB $ca,$a6,$cb,$a6,$cc,$a6,$cd,$a7,$ce,$a7,$cf,$a8,$d0,$a8,$d1,$a8,$d2,$a9,$d3,$a9,$95,$95,$95,$95,$96,$96,$96,$96,$97,$97,$97,$97,$97,$97,$98,$98,$98,$98,$99,$99
               0B45   CC A6 CD A7
               0B49   CE A7 CF A8
               0B4D   D0 A8 D1 A8
               0B51   D2 A9 D3 A9
               0B55   95 95 95 95
               0B59   96 96 96 96
               0B5D   97 97 97 97
               0B61   97 97 98 98
               0B65   98 98 99 99
     43        0B69   99 99 9A 9A          FCB $99,$99,$9a,$9a,$9a,$9a,$9a,$9a,$9b,$9b,$9b,$9b,$9c,$9c,$9c,$9c,$9c,$9c,$9d,$9d,$9d,$9d,$9e,$9e,$9e,$9e,$9f,$9f,$9f,$9f,$9f,$9f,$a0,$a0,$a0,$a0,$a1,$a1,$a1,$a1
               0B6D   9A 9A 9A 9A
               0B71   9B 9B 9B 9B
               0B75   9C 9C 9C 9C
               0B79   9C 9C 9D 9D
               0B7D   9D 9D 9E 9E
               0B81   9E 9E 9F 9F
               0B85   9F 9F 9F 9F
               0B89   A0 A0 A0 A0
               0B8D   A1 A1 A1 A1
     44        0B91   A1 A1 A2 A2          FCB $a1,$a1,$a2,$a2,$a2,$a2,$a3,$a3,$a3,$a3,$a3,$a3,$a4,$a4,$a4,$a4,$a5,$a5,$a5,$a5,$a6,$a6,$a6,$a6,$a6,$a6,$a7,$a7,$a7,$a7,$a8,$a8,$a8,$a8,$a8,$a8,$a9,$a9,$a9,$a9
               0B95   A2 A2 A3 A3
               0B99   A3 A3 A3 A3
               0B9D   A4 A4 A4 A4
               0BA1   A5 A5 A5 A5
               0BA5   A6 A6 A6 A6
               0BA9   A6 A6 A7 A7
               0BAD   A7 A7 A8 A8
               0BB1   A8 A8 A8 A8
               0BB5   A9 A9 A9 A9
     45        0BB9   95 88 95 88          FCB $95,$88,$95,$88,$96,$88,$96,$88,$97,$88,$97,$88,$97,$88,$98,$88,$98,$88,$99,$88,$99,$87,$9a,$87,$9a,$87,$9a,$87,$9b,$87,$9b,$87,$9c,$87,$9c,$87,$9c,$87,$9d,$87
               0BBD   96 88 96 88
               0BC1   97 88 97 88
               0BC5   97 88 98 88
               0BC9   98 88 99 88
               0BCD   99 87 9A 87
               0BD1   9A 87 9A 87
               0BD5   9B 87 9B 87
               0BD9   9C 87 9C 87
               0BDD   9C 87 9D 87
     46        0BE1   9D 87 9E 87          FCB $9d,$87,$9e,$87,$9e,$87,$9f,$87,$9f,$87,$9f,$87,$a0,$87,$a0,$87,$a1,$87,$a1,$86,$a1,$86,$a2,$86,$a2,$86,$a3,$86,$a3,$86,$a3,$86,$a4,$86,$a4,$86,$a5,$86,$a5,$86
               0BE5   9E 87 9F 87
               0BE9   9F 87 9F 87
               0BED   A0 87 A0 87
               0BF1   A1 87 A1 86
               0BF5   A1 86 A2 86
               0BF9   A2 86 A3 86
               0BFD   A3 86 A3 86
               0C01   A4 86 A4 86
               0C05   A5 86 A5 86
     47        0C09   A6 86 A6 86          FCB $a6,$86,$a6,$86,$a6,$86,$a7,$86,$a7,$86,$a8,$86,$a8,$86,$a8,$86,$a9,$86,$a9,$85,$88,$7c,$88,$7b,$88,$7b,$88,$7a,$88,$7a,$88,$79,$88,$78,$88,$78,$88,$77,$88,$77
               0C0D   A6 86 A7 86
               0C11   A7 86 A8 86
               0C15   A8 86 A8 86
               0C19   A9 86 A9 85
               0C1D   88 7C 88 7B
               0C21   88 7B 88 7A
               0C25   88 7A 88 79
               0C29   88 78 88 78
               0C2D   88 77 88 77
     48        0C31   87 76 87 75          FCB $87,$76,$87,$75,$87,$75,$87,$74,$87,$74,$87,$73,$87,$72,$87,$72,$87,$71,$87,$71,$87,$70,$87,$6f,$87,$6f,$87,$6e,$87,$6e,$87,$6d,$87,$6c,$87,$6c,$87,$6b,$86,$6a
               0C35   87 75 87 74
               0C39   87 74 87 73
               0C3D   87 72 87 72
               0C41   87 71 87 71
               0C45   87 70 87 6F
               0C49   87 6F 87 6E
               0C4D   87 6E 87 6D
               0C51   87 6C 87 6C
               0C55   87 6B 86 6A
     49        0C59   86 6A 86 69          FCB $86,$6a,$86,$69,$86,$69,$86,$68,$86,$67,$86,$67,$86,$66,$86,$66,$86,$65,$86,$64,$86,$64,$86,$63,$86,$63,$86,$62,$86,$61,$86,$61,$86,$60,$86,$60,$86,$5f,$85,$5e
               0C5D   86 69 86 68
               0C61   86 67 86 67
               0C65   86 66 86 66
               0C69   86 65 86 64
               0C6D   86 64 86 63
               0C71   86 63 86 62
               0C75   86 61 86 61
               0C79   86 60 86 60
               0C7D   86 5F 85 5E
     50        0C81   7C 7C 7B 7B          FCB $7c,$7c,$7b,$7b,$7b,$7b,$7a,$7a,$7a,$7a,$79,$79,$78,$78,$78,$78,$77,$77,$77,$77,$76,$76,$75,$75,$75,$75,$74,$74,$74,$74,$73,$73,$72,$72,$72,$72,$71,$71,$71,$71
               0C85   7B 7B 7A 7A
               0C89   7A 7A 79 79
               0C8D   78 78 78 78
               0C91   77 77 77 77
               0C95   76 76 75 75
               0C99   75 75 74 74
               0C9D   74 74 73 73
               0CA1   72 72 72 72
               0CA5   71 71 71 71
     51        0CA9   70 70 6F 6F          FCB $70,$70,$6f,$6f,$6f,$6f,$6e,$6e,$6e,$6e,$6d,$6d,$6c,$6c,$6c,$6c,$6b,$6b,$6a,$6a,$6a,$6a,$69,$69,$69,$69,$68,$68,$67,$67,$67,$67,$66,$66,$66,$66,$65,$65,$64,$64
               0CAD   6F 6F 6E 6E
               0CB1   6E 6E 6D 6D
               0CB5   6C 6C 6C 6C
               0CB9   6B 6B 6A 6A
               0CBD   6A 6A 69 69
               0CC1   69 69 68 68
               0CC5   67 67 67 67
               0CC9   66 66 66 66
               0CCD   65 65 64 64
     52        0CD1   64 64 63 63          FCB $64,$64,$63,$63,$63,$63,$62,$62,$61,$61,$61,$61,$60,$60,$60,$60,$5f,$5f,$5e,$5e,$7c,$71,$7b,$70,$7b,$6e,$7a,$6d,$7a,$6c,$79,$6b,$78,$69,$78,$68,$77,$67,$77,$66
               0CD5   63 63 62 62
               0CD9   61 61 61 61
               0CDD   60 60 60 60
               0CE1   5F 5F 5E 5E
               0CE5   7C 71 7B 70
               0CE9   7B 6E 7A 6D
               0CED   7A 6C 79 6B
               0CF1   78 69 78 68
               0CF5   77 67 77 66
     53        0CF9   76 64 75 63          FCB $76,$64,$75,$63,$75,$62,$74,$61,$74,$5f,$73,$5e,$72,$5d,$72,$5c,$71,$5a,$71,$59,$70,$58,$6f,$57,$6f,$55,$6e,$54,$6e,$53,$6d,$52,$6c,$50,$6c,$4f,$6b,$4e,$6a,$4c
               0CFD   75 62 74 61
               0D01   74 5F 73 5E
               0D05   72 5D 72 5C
               0D09   71 5A 71 59
               0D0D   70 58 6F 57
               0D11   6F 55 6E 54
               0D15   6E 53 6D 52
               0D19   6C 50 6C 4F
               0D1D   6B 4E 6A 4C
     54        0D21   6A 4B 69 4A          FCB $6a,$4b,$69,$4a,$69,$49,$68,$47,$67,$46,$67,$45,$66,$44,$66,$42,$65,$41,$64,$40,$64,$3f,$63,$3d,$63,$3c,$62,$3b,$61,$3a,$61,$38,$60,$37,$60,$36,$5f,$35,$5e,$33
               0D25   69 49 68 47
               0D29   67 46 67 45
               0D2D   66 44 66 42
               0D31   65 41 64 40
               0D35   64 3F 63 3D
               0D39   63 3C 62 3B
               0D3D   61 3A 61 38
               0D41   60 37 60 36
               0D45   5F 35 5E 33
     55        0D49   71 71 70 70          FCB $71,$71,$70,$70,$6e,$6e,$6d,$6d,$6c,$6c,$6b,$6b,$69,$69,$68,$68,$67,$67,$66,$66,$64,$64,$63,$63,$62,$62,$61,$61,$5f,$5f,$5e,$5e,$5d,$5d,$5c,$5c,$5a,$5a,$59,$59
               0D4D   6E 6E 6D 6D
               0D51   6C 6C 6B 6B
               0D55   69 69 68 68
               0D59   67 67 66 66
               0D5D   64 64 63 63
               0D61   62 62 61 61
               0D65   5F 5F 5E 5E
               0D69   5D 5D 5C 5C
               0D6D   5A 5A 59 59
     56        0D71   58 58 57 57          FCB $58,$58,$57,$57,$55,$55,$54,$54,$53,$53,$52,$52,$50,$50,$4f,$4f,$4e,$4e,$4c,$4c,$4b,$4b,$4a,$4a,$49,$49,$47,$47,$46,$46,$45,$45,$44,$44,$42,$42,$41,$41,$40,$40
               0D75   55 55 54 54
               0D79   53 53 52 52
               0D7D   50 50 4F 4F
               0D81   4E 4E 4C 4C
               0D85   4B 4B 4A 4A
               0D89   49 49 47 47
               0D8D   46 46 45 45
               0D91   44 44 42 42
               0D95   41 41 40 40
     57        0D99   3F 3F 3D 3D          FCB $3f,$3f,$3d,$3d,$3c,$3c,$3b,$3b,$3a,$3a,$38,$38,$37,$37,$36,$36,$35,$35,$33,$33,$71,$71,$70,$70,$6e,$6e,$6d,$6d,$6c,$6c,$6b,$6b,$69,$69,$68,$68,$67,$67,$66,$66
               0D9D   3C 3C 3B 3B
               0DA1   3A 3A 38 38
               0DA5   37 37 36 36
               0DA9   35 35 33 33
               0DAD   71 71 70 70
               0DB1   6E 6E 6D 6D
               0DB5   6C 6C 6B 6B
               0DB9   69 69 68 68
               0DBD   67 67 66 66
     58        0DC1   64 64 63 63          FCB $64,$64,$63,$63,$62,$62,$61,$61,$5f,$5f,$5e,$5e,$5d,$5d,$5c,$5c,$5a,$5a,$59,$59,$58,$58,$57,$57,$55,$55,$54,$54,$53,$53,$52,$52,$50,$50,$4f,$4f,$4e,$4e,$4c,$4c
               0DC5   62 62 61 61
               0DC9   5F 5F 5E 5E
               0DCD   5D 5D 5C 5C
               0DD1   5A 5A 59 59
               0DD5   58 58 57 57
               0DD9   55 55 54 54
               0DDD   53 53 52 52
               0DE1   50 50 4F 4F
               0DE5   4E 4E 4C 4C
     59        0DE9   4B 4B 4A 4A          FCB $4b,$4b,$4a,$4a,$49,$49,$47,$47,$46,$46,$45,$45,$44,$44,$42,$42,$41,$41,$40,$40,$3f,$3f,$3d,$3d,$3c,$3c,$3b,$3b,$3a,$3a,$38,$38,$37,$37,$36,$36,$35,$35,$33,$33
               0DED   49 49 47 47
               0DF1   46 46 45 45
               0DF5   44 44 42 42
               0DF9   41 41 40 40
               0DFD   3F 3F 3D 3D
               0E01   3C 3C 3B 3B
               0E05   3A 3A 38 38
               0E09   37 37 36 36
               0E0D   35 35 33 33
     60        0E11                    line_enemy_y1
     61        0E11   80 80 7F 7F          FCB $80,$80,$7f,$7f,$7e,$7e,$7d,$7d,$7c,$7c,$7b,$7b,$7a,$7a,$79,$79,$79,$79,$78,$78,$77,$77,$76,$76,$75,$75,$74,$74,$73,$73,$72,$72,$71,$71,$70,$70,$6f,$6f,$6e,$6e
               0E15   7E 7E 7D 7D
               0E19   7C 7C 7B 7B
               0E1D   7A 7A 79 79
               0E21   79 79 78 78
               0E25   77 77 76 76
               0E29   75 75 74 74
               0E2D   73 73 72 72
               0E31   71 71 70 70
               0E35   6F 6F 6E 6E
     62        0E39   6D 6D 6C 6C          FCB $6d,$6d,$6c,$6c,$6c,$6c,$6b,$6b,$6a,$6a,$69,$69,$68,$68,$67,$67,$66,$66,$65,$65,$64,$64,$63,$63,$62,$62,$61,$61,$60,$60,$5f,$5f,$5e,$5e,$5e,$5e,$5d,$5d,$5c,$5c
               0E3D   6C 6C 6B 6B
               0E41   6A 6A 69 69
               0E45   68 68 67 67
               0E49   66 66 65 65
               0E4D   64 64 63 63
               0E51   62 62 61 61
               0E55   60 60 5F 5F
               0E59   5E 5E 5E 5E
               0E5D   5D 5D 5C 5C
     63        0E61   5B 5B 5A 5A          FCB $5b,$5b,$5a,$5a,$59,$59,$58,$58,$57,$57,$56,$56,$55,$55,$54,$54,$53,$53,$52,$52,$80,$75,$7f,$74,$7e,$72,$7d,$71,$7c,$6f,$7b,$6e,$7a,$6d,$79,$6b,$79,$6a,$78,$69
               0E65   59 59 58 58
               0E69   57 57 56 56
               0E6D   55 55 54 54
               0E71   53 53 52 52
               0E75   80 75 7F 74
               0E79   7E 72 7D 71
               0E7D   7C 6F 7B 6E
               0E81   7A 6D 79 6B
               0E85   79 6A 78 69
     64        0E89   77 67 76 66          FCB $77,$67,$76,$66,$75,$64,$74,$63,$73,$62,$72,$60,$71,$5f,$70,$5e,$6f,$5c,$6e,$5b,$6d,$59,$6c,$58,$6c,$57,$6b,$55,$6a,$54,$69,$53,$68,$51,$67,$50,$66,$4e,$65,$4d
               0E8D   75 64 74 63
               0E91   73 62 72 60
               0E95   71 5F 70 5E
               0E99   6F 5C 6E 5B
               0E9D   6D 59 6C 58
               0EA1   6C 57 6B 55
               0EA5   6A 54 69 53
               0EA9   68 51 67 50
               0EAD   66 4E 65 4D
     65        0EB1   64 4C 63 4A          FCB $64,$4c,$63,$4a,$62,$49,$61,$47,$60,$46,$5f,$45,$5e,$43,$5e,$42,$5d,$41,$5c,$3f,$5b,$3e,$5a,$3c,$59,$3b,$58,$3a,$57,$38,$56,$37,$55,$36,$54,$34,$53,$33,$52,$31
               0EB5   62 49 61 47
               0EB9   60 46 5F 45
               0EBD   5E 43 5E 42
               0EC1   5D 41 5C 3F
               0EC5   5B 3E 5A 3C
               0EC9   59 3B 58 3A
               0ECD   57 38 56 37
               0ED1   55 36 54 34
               0ED5   53 33 52 31
     66        0ED9   75 75 74 74          FCB $75,$75,$74,$74,$72,$72,$71,$71,$6f,$6f,$6e,$6e,$6d,$6d,$6b,$6b,$6a,$6a,$69,$69,$67,$67,$66,$66,$64,$64,$63,$63,$62,$62,$60,$60,$5f,$5f,$5e,$5e,$5c,$5c,$5b,$5b
               0EDD   72 72 71 71
               0EE1   6F 6F 6E 6E
               0EE5   6D 6D 6B 6B
               0EE9   6A 6A 69 69
               0EED   67 67 66 66
               0EF1   64 64 63 63
               0EF5   62 62 60 60
               0EF9   5F 5F 5E 5E
               0EFD   5C 5C 5B 5B
     67        0F01   59 59 58 58          FCB $59,$59,$58,$58,$57,$57,$55,$55,$54,$54,$53,$53,$51,$51,$50,$50,$4e,$4e,$4d,$4d,$4c,$4c,$4a,$4a,$49,$49,$47,$47,$46,$46,$45,$45,$43,$43,$42,$42,$41,$41,$3f,$3f
               0F05   57 57 55 55
               0F09   54 54 53 53
               0F0D   51 51 50 50
               0F11   4E 4E 4D 4D
               0F15   4C 4C 4A 4A
               0F19   49 49 47 47
               0F1D   46 46 45 45
               0F21   43 43 42 42
               0F25   41 41 3F 3F
     68        0F29   3E 3E 3C 3C          FCB $3e,$3e,$3c,$3c,$3b,$3b,$3a,$3a,$38,$38,$37,$37,$36,$36,$34,$34,$33,$33,$31,$31,$75,$75,$74,$74,$72,$72,$71,$71,$6f,$6f,$6e,$6e,$6d,$6d,$6b,$6b,$6a,$6a,$69,$69
               0F2D   3B 3B 3A 3A
               0F31   38 38 37 37
               0F35   36 36 34 34
               0F39   33 33 31 31
               0F3D   75 75 74 74
               0F41   72 72 71 71
               0F45   6F 6F 6E 6E
               0F49   6D 6D 6B 6B
               0F4D   6A 6A 69 69
     69        0F51   67 67 66 66          FCB $67,$67,$66,$66,$64,$64,$63,$63,$62,$62,$60,$60,$5f,$5f,$5e,$5e,$5c,$5c,$5b,$5b,$59,$59,$58,$58,$57,$57,$55,$55,$54,$54,$53,$53,$51,$51,$50,$50,$4e,$4e,$4d,$4d
               0F55   64 64 63 63
               0F59   62 62 60 60
               0F5D   5F 5F 5E 5E
               0F61   5C 5C 5B 5B
               0F65   59 59 58 58
               0F69   57 57 55 55
               0F6D   54 54 53 53
               0F71   51 51 50 50
               0F75   4E 4E 4D 4D
     70        0F79   4C 4C 4A 4A          FCB $4c,$4c,$4a,$4a,$49,$49,$47,$47,$46,$46,$45,$45,$43,$43,$42,$42,$41,$41,$3f,$3f,$3e,$3e,$3c,$3c,$3b,$3b,$3a,$3a,$38,$38,$37,$37,$36,$36,$34,$34,$33,$33,$31,$31
               0F7D   49 49 47 47
               0F81   46 46 45 45
               0F85   43 43 42 42
               0F89   41 41 3F 3F
               0F8D   3E 3E 3C 3C
               0F91   3B 3B 3A 3A
               0F95   38 38 37 37
               0F99   36 36 34 34
               0F9D   33 33 31 31
     71        0FA1   75 82 74 81          FCB $75,$82,$74,$81,$72,$80,$71,$7f,$6f,$7e,$6e,$7d,$6d,$7c,$6b,$7b,$6a,$7b,$69,$7a,$67,$79,$66,$78,$64,$77,$63,$76,$62,$75,$60,$74,$5f,$73,$5e,$72,$5c,$71,$5b,$70
               0FA5   72 80 71 7F
               0FA9   6F 7E 6E 7D
               0FAD   6D 7C 6B 7B
               0FB1   6A 7B 69 7A
               0FB5   67 79 66 78
               0FB9   64 77 63 76
               0FBD   62 75 60 74
               0FC1   5F 73 5E 72
               0FC5   5C 71 5B 70
     72        0FC9   59 6F 58 6E          FCB $59,$6f,$58,$6e,$57,$6e,$55,$6d,$54,$6c,$53,$6b,$51,$6a,$50,$69,$4e,$68,$4d,$67,$4c,$66,$4a,$65,$49,$64,$47,$63,$46,$62,$45,$61,$43,$60,$42,$60,$41,$5f,$3f,$5e
               0FCD   57 6E 55 6D
               0FD1   54 6C 53 6B
               0FD5   51 6A 50 69
               0FD9   4E 68 4D 67
               0FDD   4C 66 4A 65
               0FE1   49 64 47 63
               0FE5   46 62 45 61
               0FE9   43 60 42 60
               0FED   41 5F 3F 5E
     73        0FF1   3E 5D 3C 5C          FCB $3e,$5d,$3c,$5c,$3b,$5b,$3a,$5a,$38,$59,$37,$58,$36,$57,$34,$56,$33,$55,$31,$54,$82,$82,$81,$81,$80,$80,$7f,$7f,$7e,$7e,$7d,$7d,$7c,$7c,$7b,$7b,$7b,$7b,$7a,$7a
               0FF5   3B 5B 3A 5A
               0FF9   38 59 37 58
               0FFD   36 57 34 56
               1001   33 55 31 54
               1005   82 82 81 81
               1009   80 80 7F 7F
               100D   7E 7E 7D 7D
               1011   7C 7C 7B 7B
               1015   7B 7B 7A 7A
     74        1019   79 79 78 78          FCB $79,$79,$78,$78,$77,$77,$76,$76,$75,$75,$74,$74,$73,$73,$72,$72,$71,$71,$70,$70,$6f,$6f,$6e,$6e,$6e,$6e,$6d,$6d,$6c,$6c,$6b,$6b,$6a,$6a,$69,$69,$68,$68,$67,$67
               101D   77 77 76 76
               1021   75 75 74 74
               1025   73 73 72 72
               1029   71 71 70 70
               102D   6F 6F 6E 6E
               1031   6E 6E 6D 6D
               1035   6C 6C 6B 6B
               1039   6A 6A 69 69
               103D   68 68 67 67
     75        1041   66 66 65 65          FCB $66,$66,$65,$65,$64,$64,$63,$63,$62,$62,$61,$61,$60,$60,$60,$60,$5f,$5f,$5e,$5e,$5d,$5d,$5c,$5c,$5b,$5b,$5a,$5a,$59,$59,$58,$58,$57,$57,$56,$56,$55,$55,$54,$54
               1045   64 64 63 63
               1049   62 62 61 61
               104D   60 60 60 60
               1051   5F 5F 5E 5E
               1055   5D 5D 5C 5C
               1059   5B 5B 5A 5A
               105D   59 59 58 58
               1061   57 57 56 56
               1065   55 55 54 54
     76        1069   82 8C 81 8C          FCB $82,$8c,$81,$8c,$80,$8b,$7f,$8b,$7e,$8b,$7d,$8a,$7c,$8a,$7b,$8a,$7b,$89,$7a,$89,$79,$89,$78,$88,$77,$88,$76,$88,$75,$87,$74,$87,$73,$87,$72,$86,$71,$86,$70,$86
               106D   80 8B 7F 8B
               1071   7E 8B 7D 8A
               1075   7C 8A 7B 8A
               1079   7B 89 7A 89
               107D   79 89 78 88
               1081   77 88 76 88
               1085   75 87 74 87
               1089   73 87 72 86
               108D   71 86 70 86
     77        1091   6F 85 6E 85          FCB $6f,$85,$6e,$85,$6e,$85,$6d,$84,$6c,$84,$6b,$84,$6a,$83,$69,$83,$68,$83,$67,$82,$66,$82,$65,$82,$64,$82,$63,$81,$62,$81,$61,$81,$60,$80,$60,$80,$5f,$80,$5e,$7f
               1095   6E 85 6D 84
               1099   6C 84 6B 84
               109D   6A 83 69 83
               10A1   68 83 67 82
               10A5   66 82 65 82
               10A9   64 82 63 81
               10AD   62 81 61 81
               10B1   60 80 60 80
               10B5   5F 80 5E 7F
     78        10B9   5D 7F 5C 7F          FCB $5d,$7f,$5c,$7f,$5b,$7e,$5a,$7e,$59,$7e,$58,$7d,$57,$7d,$56,$7d,$55,$7c,$54,$7c,$8c,$97,$8c,$97,$8b,$98,$8b,$98,$8b,$98,$8a,$98,$8a,$99,$8a,$99,$89,$99,$89,$99
               10BD   5B 7E 5A 7E
               10C1   59 7E 58 7D
               10C5   57 7D 56 7D
               10C9   55 7C 54 7C
               10CD   8C 97 8C 97
               10D1   8B 98 8B 98
               10D5   8B 98 8A 98
               10D9   8A 99 8A 99
               10DD   89 99 89 99
     79        10E1   89 9A 88 9A          FCB $89,$9a,$88,$9a,$88,$9a,$88,$9b,$87,$9b,$87,$9b,$87,$9b,$86,$9c,$86,$9c,$86,$9c,$85,$9d,$85,$9d,$85,$9d,$84,$9d,$84,$9e,$84,$9e,$83,$9e,$83,$9e,$83,$9f,$82,$9f
               10E5   88 9A 88 9B
               10E9   87 9B 87 9B
               10ED   87 9B 86 9C
               10F1   86 9C 86 9C
               10F5   85 9D 85 9D
               10F9   85 9D 84 9D
               10FD   84 9E 84 9E
               1101   83 9E 83 9E
               1105   83 9F 82 9F
     80        1109   82 9F 82 A0          FCB $82,$9f,$82,$a0,$82,$a0,$81,$a0,$81,$a0,$81,$a1,$80,$a1,$80,$a1,$80,$a1,$7f,$a2,$7f,$a2,$7f,$a2,$7e,$a3,$7e,$a3,$7e,$a3,$7d,$a3,$7d,$a4,$7d,$a4,$7c,$a4,$7c,$a5
               110D   82 A0 81 A0
               1111   81 A0 81 A1
               1115   80 A1 80 A1
               1119   80 A1 7F A2
               111D   7F A2 7F A2
               1121   7E A3 7E A3
               1125   7E A3 7D A3
               1129   7D A4 7D A4
               112D   7C A4 7C A5
     81        1131   97 97 97 97          FCB $97,$97,$97,$97,$98,$98,$98,$98,$98,$98,$98,$98,$99,$99,$99,$99,$99,$99,$99,$99,$9a,$9a,$9a,$9a,$9a,$9a,$9b,$9b,$9b,$9b,$9b,$9b,$9b,$9b,$9c,$9c,$9c,$9c,$9c,$9c
               1135   98 98 98 98
               1139   98 98 98 98
               113D   99 99 99 99
               1141   99 99 99 99
               1145   9A 9A 9A 9A
               1149   9A 9A 9B 9B
               114D   9B 9B 9B 9B
               1151   9B 9B 9C 9C
               1155   9C 9C 9C 9C
     82        1159   9D 9D 9D 9D          FCB $9d,$9d,$9d,$9d,$9d,$9d,$9d,$9d,$9e,$9e,$9e,$9e,$9e,$9e,$9e,$9e,$9f,$9f,$9f,$9f,$9f,$9f,$a0,$a0,$a0,$a0,$a0,$a0,$a0,$a0,$a1,$a1,$a1,$a1,$a1,$a1,$a1,$a1,$a2,$a2
               115D   9D 9D 9D 9D
               1161   9E 9E 9E 9E
               1165   9E 9E 9E 9E
               1169   9F 9F 9F 9F
               116D   9F 9F A0 A0
               1171   A0 A0 A0 A0
               1175   A0 A0 A1 A1
               1179   A1 A1 A1 A1
               117D   A1 A1 A2 A2
     83        1181   A2 A2 A2 A2          FCB $a2,$a2,$a2,$a2,$a3,$a3,$a3,$a3,$a3,$a3,$a3,$a3,$a4,$a4,$a4,$a4,$a4,$a4,$a5,$a5,$97,$a6,$97,$a7,$98,$a7,$98,$a8,$98,$a9,$98,$aa,$99,$aa,$99,$ab,$99,$ac,$99,$ad
               1185   A3 A3 A3 A3
               1189   A3 A3 A3 A3
               118D   A4 A4 A4 A4
               1191   A4 A4 A5 A5
               1195   97 A6 97 A7
               1199   98 A7 98 A8
               119D   98 A9 98 AA
               11A1   99 AA 99 AB
               11A5   99 AC 99 AD
     84        11A9   9A AD 9A AE          FCB $9a,$ad,$9a,$ae,$9a,$af,$9b,$b0,$9b,$b0,$9b,$b1,$9b,$b2,$9c,$b3,$9c,$b3,$9c,$b4,$9d,$b5,$9d,$b6,$9d,$b6,$9d,$b7,$9e,$b8,$9e,$b9,$9e,$b9,$9e,$ba,$9f,$bb,$9f,$bc
               11AD   9A AF 9B B0
               11B1   9B B0 9B B1
               11B5   9B B2 9C B3
               11B9   9C B3 9C B4
               11BD   9D B5 9D B6
               11C1   9D B6 9D B7
               11C5   9E B8 9E B9
               11C9   9E B9 9E BA
               11CD   9F BB 9F BC
     85        11D1   9F BC A0 BD          FCB $9f,$bc,$a0,$bd,$a0,$be,$a0,$be,$a0,$bf,$a1,$c0,$a1,$c1,$a1,$c1,$a1,$c2,$a2,$c3,$a2,$c4,$a2,$c4,$a3,$c5,$a3,$c6,$a3,$c7,$a3,$c7,$a4,$c8,$a4,$c9,$a4,$ca,$a5,$ca
               11D5   A0 BE A0 BE
               11D9   A0 BF A1 C0
               11DD   A1 C1 A1 C1
               11E1   A1 C2 A2 C3
               11E5   A2 C4 A2 C4
               11E9   A3 C5 A3 C6
               11ED   A3 C7 A3 C7
               11F1   A4 C8 A4 C9
               11F5   A4 CA A5 CA
     86        11F9   A6 A6 A7 A7          FCB $a6,$a6,$a7,$a7,$a7,$a7,$a8,$a8,$a9,$a9,$aa,$aa,$aa,$aa,$ab,$ab,$ac,$ac,$ad,$ad,$ad,$ad,$ae,$ae,$af,$af,$b0,$b0,$b0,$b0,$b1,$b1,$b2,$b2,$b3,$b3,$b3,$b3,$b4,$b4
               11FD   A7 A7 A8 A8
               1201   A9 A9 AA AA
               1205   AA AA AB AB
               1209   AC AC AD AD
               120D   AD AD AE AE
               1211   AF AF B0 B0
               1215   B0 B0 B1 B1
               1219   B2 B2 B3 B3
               121D   B3 B3 B4 B4
     87        1221   B5 B5 B6 B6          FCB $b5,$b5,$b6,$b6,$b6,$b6,$b7,$b7,$b8,$b8,$b9,$b9,$b9,$b9,$ba,$ba,$bb,$bb,$bc,$bc,$bc,$bc,$bd,$bd,$be,$be,$be,$be,$bf,$bf,$c0,$c0,$c1,$c1,$c1,$c1,$c2,$c2,$c3,$c3
               1225   B6 B6 B7 B7
               1229   B8 B8 B9 B9
               122D   B9 B9 BA BA
               1231   BB BB BC BC
               1235   BC BC BD BD
               1239   BE BE BE BE
               123D   BF BF C0 C0
               1241   C1 C1 C1 C1
               1245   C2 C2 C3 C3
     88        1249   C4 C4 C4 C4          FCB $c4,$c4,$c4,$c4,$c5,$c5,$c6,$c6,$c7,$c7,$c7,$c7,$c8,$c8,$c9,$c9,$ca,$ca,$ca,$ca,$a6,$a6,$a7,$a7,$a7,$a7,$a8,$a8,$a9,$a9,$aa,$aa,$aa,$aa,$ab,$ab,$ac,$ac,$ad,$ad
               124D   C5 C5 C6 C6
               1251   C7 C7 C7 C7
               1255   C8 C8 C9 C9
               1259   CA CA CA CA
               125D   A6 A6 A7 A7
               1261   A7 A7 A8 A8
               1265   A9 A9 AA AA
               1269   AA AA AB AB
               126D   AC AC AD AD
     89        1271   AD AD AE AE          FCB $ad,$ad,$ae,$ae,$af,$af,$b0,$b0,$b0,$b0,$b1,$b1,$b2,$b2,$b3,$b3,$b3,$b3,$b4,$b4,$b5,$b5,$b6,$b6,$b6,$b6,$b7,$b7,$b8,$b8,$b9,$b9,$b9,$b9,$ba,$ba,$bb,$bb,$bc,$bc
               1275   AF AF B0 B0
               1279   B0 B0 B1 B1
               127D   B2 B2 B3 B3
               1281   B3 B3 B4 B4
               1285   B5 B5 B6 B6
               1289   B6 B6 B7 B7
               128D   B8 B8 B9 B9
               1291   B9 B9 BA BA
               1295   BB BB BC BC
     90        1299   BC BC BD BD          FCB $bc,$bc,$bd,$bd,$be,$be,$be,$be,$bf,$bf,$c0,$c0,$c1,$c1,$c1,$c1,$c2,$c2,$c3,$c3,$c4,$c4,$c4,$c4,$c5,$c5,$c6,$c6,$c7,$c7,$c7,$c7,$c8,$c8,$c9,$c9,$ca,$ca,$ca,$ca
               129D   BE BE BE BE
               12A1   BF BF C0 C0
               12A5   C1 C1 C1 C1
               12A9   C2 C2 C3 C3
               12AD   C4 C4 C4 C4
               12B1   C5 C5 C6 C6
               12B5   C7 C7 C7 C7
               12B9   C8 C8 C9 C9
               12BD   CA CA CA CA
     91        12C1   A6 96 A7 96          FCB $a6,$96,$a7,$96,$a7,$97,$a8,$97,$a9,$97,$aa,$97,$aa,$98,$ab,$98,$ac,$98,$ad,$99,$ad,$99,$ae,$99,$af,$9a,$b0,$9a,$b0,$9a,$b1,$9a,$b2,$9b,$b3,$9b,$b3,$9b,$b4,$9c
               12C5   A7 97 A8 97
               12C9   A9 97 AA 97
               12CD   AA 98 AB 98
               12D1   AC 98 AD 99
               12D5   AD 99 AE 99
               12D9   AF 9A B0 9A
               12DD   B0 9A B1 9A
               12E1   B2 9B B3 9B
               12E5   B3 9B B4 9C
     92        12E9   B5 9C B6 9C          FCB $b5,$9c,$b6,$9c,$b6,$9c,$b7,$9d,$b8,$9d,$b9,$9d,$b9,$9e,$ba,$9e,$bb,$9e,$bc,$9e,$bc,$9f,$bd,$9f,$be,$9f,$be,$a0,$bf,$a0,$c0,$a0,$c1,$a1,$c1,$a1,$c2,$a1,$c3,$a1
               12ED   B6 9C B7 9D
               12F1   B8 9D B9 9D
               12F5   B9 9E BA 9E
               12F9   BB 9E BC 9E
               12FD   BC 9F BD 9F
               1301   BE 9F BE A0
               1305   BF A0 C0 A0
               1309   C1 A1 C1 A1
               130D   C2 A1 C3 A1
     93        1311   C4 A2 C4 A2          FCB $c4,$a2,$c4,$a2,$c5,$a2,$c6,$a3,$c7,$a3,$c7,$a3,$c8,$a3,$c9,$a4,$ca,$a4,$ca,$a4,$96,$96,$96,$96,$97,$97,$97,$97,$97,$97,$97,$97,$98,$98,$98,$98,$98,$98,$99,$99
               1315   C5 A2 C6 A3
               1319   C7 A3 C7 A3
               131D   C8 A3 C9 A4
               1321   CA A4 CA A4
               1325   96 96 96 96
               1329   97 97 97 97
               132D   97 97 97 97
               1331   98 98 98 98
               1335   98 98 99 99
     94        1339   99 99 99 99          FCB $99,$99,$99,$99,$9a,$9a,$9a,$9a,$9a,$9a,$9a,$9a,$9b,$9b,$9b,$9b,$9b,$9b,$9c,$9c,$9c,$9c,$9c,$9c,$9c,$9c,$9d,$9d,$9d,$9d,$9d,$9d,$9e,$9e,$9e,$9e,$9e,$9e,$9e,$9e
               133D   9A 9A 9A 9A
               1341   9A 9A 9A 9A
               1345   9B 9B 9B 9B
               1349   9B 9B 9C 9C
               134D   9C 9C 9C 9C
               1351   9C 9C 9D 9D
               1355   9D 9D 9D 9D
               1359   9E 9E 9E 9E
               135D   9E 9E 9E 9E
     95        1361   9F 9F 9F 9F          FCB $9f,$9f,$9f,$9f,$9f,$9f,$a0,$a0,$a0,$a0,$a0,$a0,$a1,$a1,$a1,$a1,$a1,$a1,$a1,$a1,$a2,$a2,$a2,$a2,$a2,$a2,$a3,$a3,$a3,$a3,$a3,$a3,$a3,$a3,$a4,$a4,$a4,$a4,$a4,$a4
               1365   9F 9F A0 A0
               1369   A0 A0 A0 A0
               136D   A1 A1 A1 A1
               1371   A1 A1 A1 A1
               1375   A2 A2 A2 A2
               1379   A2 A2 A3 A3
               137D   A3 A3 A3 A3
               1381   A3 A3 A4 A4
               1385   A4 A4 A4 A4
     96        1389   96 8B 96 8B          FCB $96,$8b,$96,$8b,$97,$8b,$97,$8b,$97,$8a,$97,$8a,$98,$8a,$98,$8a,$98,$8a,$99,$8a,$99,$89,$99,$89,$9a,$89,$9a,$89,$9a,$89,$9a,$89,$9b,$89,$9b,$88,$9b,$88,$9c,$88
               138D   97 8B 97 8B
               1391   97 8A 97 8A
               1395   98 8A 98 8A
               1399   98 8A 99 8A
               139D   99 89 99 89
               13A1   9A 89 9A 89
               13A5   9A 89 9A 89
               13A9   9B 89 9B 88
               13AD   9B 88 9C 88
     97        13B1   9C 88 9C 88          FCB $9c,$88,$9c,$88,$9c,$88,$9d,$87,$9d,$87,$9d,$87,$9e,$87,$9e,$87,$9e,$87,$9e,$86,$9f,$86,$9f,$86,$9f,$86,$a0,$86,$a0,$86,$a0,$86,$a1,$85,$a1,$85,$a1,$85,$a1,$85
               13B5   9C 88 9D 87
               13B9   9D 87 9D 87
               13BD   9E 87 9E 87
               13C1   9E 87 9E 86
               13C5   9F 86 9F 86
               13C9   9F 86 A0 86
               13CD   A0 86 A0 86
               13D1   A1 85 A1 85
               13D5   A1 85 A1 85
     98        13D9   A2 85 A2 85          FCB $a2,$85,$a2,$85,$a2,$84,$a3,$84,$a3,$84,$a3,$84,$a3,$84,$a4,$84,$a4,$84,$a4,$83,$8b,$80,$8b,$7f,$8b,$7e,$8b,$7d,$8a,$7c,$8a,$7b,$8a,$7a,$8a,$79,$8a,$79,$8a,$78
               13DD   A2 84 A3 84
               13E1   A3 84 A3 84
               13E5   A3 84 A4 84
               13E9   A4 84 A4 83
               13ED   8B 80 8B 7F
               13F1   8B 7E 8B 7D
               13F5   8A 7C 8A 7B
               13F9   8A 7A 8A 79
               13FD   8A 79 8A 78
     99        1401   89 77 89 76          FCB $89,$77,$89,$76,$89,$75,$89,$74,$89,$73,$89,$72,$89,$71,$88,$70,$88,$6f,$88,$6e,$88,$6d,$88,$6c,$88,$6c,$87,$6b,$87,$6a,$87,$69,$87,$68,$87,$67,$87,$66,$86,$65
               1405   89 75 89 74
               1409   89 73 89 72
               140D   89 71 88 70
               1411   88 6F 88 6E
               1415   88 6D 88 6C
               1419   88 6C 87 6B
               141D   87 6A 87 69
               1421   87 68 87 67
               1425   87 66 86 65
    100        1429   86 64 86 63          FCB $86,$64,$86,$63,$86,$62,$86,$61,$86,$60,$86,$5f,$85,$5e,$85,$5e,$85,$5d,$85,$5c,$85,$5b,$85,$5a,$84,$59,$84,$58,$84,$57,$84,$56,$84,$55,$84,$54,$84,$53,$83,$52
               142D   86 62 86 61
               1431   86 60 86 5F
               1435   85 5E 85 5E
               1439   85 5D 85 5C
               143D   85 5B 85 5A
               1441   84 59 84 58
               1445   84 57 84 56
               1449   84 55 84 54
               144D   84 53 83 52
    101        1451                    line_enemy_dx
    102        1451   07 16 08 16          FCB $7,$16,$8,$16,$9,$18,$9,$18,$a,$19,$a,$19,$c,$1a,$c,$1b,$c,$1b,$d,$1c,$e,$1d,$f,$1d,$f,$1e,$f,$1e,$11,$20,$11,$20,$12,$20,$12,$21,$13,$22,$14,$23
               1455   09 18 09 18
               1459   0A 19 0A 19
               145D   0C 1A 0C 1B
               1461   0C 1B 0D 1C
               1465   0E 1D 0F 1D
               1469   0F 1E 0F 1E
               146D   11 20 11 20
               1471   12 20 12 21
               1475   13 22 14 23
    103        1479   14 23 15 24          FCB $14,$23,$15,$24,$16,$25,$16,$25,$17,$26,$17,$27,$18,$27,$19,$28,$19,$28,$1b,$2a,$1b,$2a,$1b,$2a,$1c,$2b,$1d,$2c,$1e,$2c,$1e,$2d,$1e,$2d,$20,$2f,$20,$2f,$21,$2f
               147D   16 25 16 25
               1481   17 26 17 27
               1485   18 27 19 28
               1489   19 28 1B 2A
               148D   1B 2A 1B 2A
               1491   1C 2B 1D 2C
               1495   1E 2C 1E 2D
               1499   1E 2D 20 2F
               149D   20 2F 21 2F
    104        14A1   21 30 22 31          FCB $21,$30,$22,$31,$23,$32,$23,$32,$24,$32,$25,$34,$25,$34,$26,$35,$26,$35,$28,$36,$5,$5,$4,$4,$5,$5,$5,$5,$5,$5,$5,$5,$4,$4,$5,$5,$5,$5,$5,$5
               14A5   23 32 23 32
               14A9   24 32 25 34
               14AD   25 34 26 35
               14B1   26 35 28 36
               14B5   05 05 04 04
               14B9   05 05 05 05
               14BD   05 05 05 05
               14C1   04 04 05 05
               14C5   05 05 05 05
    105        14C9   05 05 04 04          FCB $5,$5,$4,$4,$5,$5,$5,$5,$5,$5,$5,$5,$4,$4,$5,$5,$5,$5,$5,$5,$5,$5,$4,$4,$5,$5,$5,$5,$5,$5,$5,$5,$5,$5,$5,$5,$5,$5,$5,$5
               14CD   05 05 05 05
               14D1   05 05 05 05
               14D5   04 04 05 05
               14D9   05 05 05 05
               14DD   05 05 04 04
               14E1   05 05 05 05
               14E5   05 05 05 05
               14E9   05 05 05 05
               14ED   05 05 05 05
    106        14F1   05 05 05 05          FCB $5,$5,$5,$5,$5,$5,$5,$5,$4,$4,$5,$5,$5,$5,$5,$5,$5,$5,$4,$4,$5,$5,$5,$5,$5,$5,$5,$5,$4,$4,$5,$5,$5,$5,$5,$5,$5,$5,$4,$4
               14F5   05 05 05 05
               14F9   04 04 05 05
               14FD   05 05 05 05
               1501   05 05 04 04
               1505   05 05 05 05
               1509   05 05 05 05
               150D   04 04 05 05
               1511   05 05 05 05
               1515   05 05 04 04
    107        1519   0B 11 0C 11          FCB $b,$11,$c,$11,$c,$12,$d,$13,$d,$13,$e,$14,$f,$14,$f,$15,$10,$15,$10,$15,$11,$16,$12,$16,$12,$17,$13,$18,$12,$18,$13,$19,$14,$19,$14,$1a,$15,$1b,$15,$1b
               151D   0C 12 0D 13
               1521   0D 13 0E 14
               1525   0F 14 0F 15
               1529   10 15 10 15
               152D   11 16 12 16
               1531   12 17 13 18
               1535   12 18 13 19
               1539   14 19 14 1A
               153D   15 1B 15 1B
    108        1541   16 1C 17 1C          FCB $16,$1c,$17,$1c,$17,$1c,$18,$1d,$18,$1d,$19,$1e,$1a,$1f,$1a,$1f,$1b,$20,$1a,$20,$1b,$21,$1c,$22,$1c,$22,$1d,$23,$1e,$23,$1e,$24,$1f,$25,$1f,$24,$20,$25,$21,$25
               1545   17 1C 18 1D
               1549   18 1D 19 1E
               154D   1A 1F 1A 1F
               1551   1B 20 1A 20
               1555   1B 21 1C 22
               1559   1C 22 1D 23
               155D   1E 23 1E 24
               1561   1F 25 1F 24
               1565   20 25 21 25
    109        1569   21 26 22 27          FCB $21,$26,$22,$27,$22,$27,$22,$28,$23,$28,$23,$29,$24,$2a,$24,$2a,$25,$2b,$26,$2b,$f,$d,$10,$d,$10,$e,$11,$e,$11,$f,$11,$f,$12,$f,$12,$10,$14,$10,$14,$11
               156D   22 27 22 28
               1571   23 28 23 29
               1575   24 2A 24 2A
               1579   25 2B 26 2B
               157D   0F 0D 10 0D
               1581   10 0E 11 0E
               1585   11 0F 11 0F
               1589   12 0F 12 10
               158D   14 10 14 11
    110        1591   14 11 15 12          FCB $14,$11,$15,$12,$15,$12,$16,$12,$16,$14,$17,$14,$17,$15,$17,$15,$18,$15,$18,$16,$19,$16,$19,$17,$1a,$17,$1b,$18,$1b,$18,$1c,$18,$1c,$19,$1c,$19,$1d,$1a,$1d,$1b
               1595   15 12 16 12
               1599   16 14 17 14
               159D   17 15 17 15
               15A1   18 15 18 16
               15A5   19 16 19 17
               15A9   1A 17 1B 18
               15AD   1B 18 1C 18
               15B1   1C 19 1C 19
               15B5   1D 1A 1D 1B
    111        15B9   1E 1B 1E 1C          FCB $1e,$1b,$1e,$1c,$1f,$1c,$1f,$1d,$1f,$1d,$20,$1d,$20,$1e,$22,$1e,$22,$1f,$22,$1f,$23,$20,$23,$20,$24,$20,$24,$22,$25,$22,$25,$23,$25,$23,$26,$23,$26,$24,$27,$24
               15BD   1F 1C 1F 1D
               15C1   1F 1D 20 1D
               15C5   20 1E 22 1E
               15C9   22 1F 22 1F
               15CD   23 20 23 20
               15D1   24 20 24 22
               15D5   25 22 25 23
               15D9   25 23 26 23
               15DD   26 24 27 24
    112        15E1   03 03 04 04          FCB $3,$3,$4,$4,$3,$3,$4,$4,$3,$3,$3,$3,$4,$4,$3,$3,$4,$4,$3,$3,$3,$3,$3,$3,$3,$3,$4,$4,$3,$3,$4,$4,$3,$3,$3,$3,$4,$4,$3,$3
               15E5   03 03 04 04
               15E9   03 03 03 03
               15ED   04 04 03 03
               15F1   04 04 03 03
               15F5   03 03 03 03
               15F9   03 03 04 04
               15FD   03 03 04 04
               1601   03 03 03 03
               1605   04 04 03 03
    113        1609   04 04 03 03          FCB $4,$4,$3,$3,$3,$3,$3,$3,$3,$3,$4,$4,$3,$3,$3,$3,$3,$3,$3,$3,$4,$4,$3,$3,$4,$4,$3,$3,$3,$3,$4,$4,$3,$3,$4,$4,$3,$3,$3,$3
               160D   03 03 03 03
               1611   03 03 04 04
               1615   03 03 03 03
               1619   03 03 03 03
               161D   04 04 03 03
               1621   04 04 03 03
               1625   03 03 04 04
               1629   03 03 04 04
               162D   03 03 03 03
    114        1631   03 03 03 03          FCB $3,$3,$3,$3,$4,$4,$3,$3,$4,$4,$3,$3,$3,$3,$4,$4,$3,$3,$4,$4,$14,$9,$15,$9,$15,$a,$16,$a,$16,$b,$17,$c,$18,$c,$18,$d,$19,$d,$19,$e
               1635   04 04 03 03
               1639   04 04 03 03
               163D   03 03 04 04
               1641   03 03 04 04
               1645   14 09 15 09
               1649   15 0A 16 0A
               164D   16 0B 17 0C
               1651   18 0C 18 0D
               1655   19 0D 19 0E
    115        1659   1A 0F 1A 0F          FCB $1a,$f,$1a,$f,$1b,$10,$1c,$10,$1c,$11,$1d,$11,$1d,$12,$1e,$13,$1f,$13,$1f,$14,$20,$14,$20,$15,$22,$16,$22,$16,$23,$17,$24,$17,$24,$18,$25,$19,$25,$19,$26,$1a
               165D   1B 10 1C 10
               1661   1C 11 1D 11
               1665   1D 12 1E 13
               1669   1F 13 1F 14
               166D   20 14 20 15
               1671   22 16 22 16
               1675   23 17 24 17
               1679   24 18 25 19
               167D   25 19 26 1A
    116        1681   27 1B 27 1C          FCB $27,$1b,$27,$1c,$28,$1c,$28,$1d,$29,$1e,$2a,$1e,$2a,$1f,$2b,$1f,$2b,$20,$2c,$21,$2c,$21,$2d,$22,$2e,$22,$2e,$23,$2f,$23,$2f,$24,$30,$25,$31,$25,$31,$26,$32,$26
               1685   28 1C 28 1D
               1689   29 1E 2A 1E
               168D   2A 1F 2B 1F
               1691   2B 20 2C 21
               1695   2C 21 2D 22
               1699   2E 22 2E 23
               169D   2F 23 2F 24
               16A1   30 25 31 25
               16A5   31 26 32 26
    117        16A9   08 08 08 08          FCB $8,$8,$8,$8,$8,$8,$8,$8,$8,$8,$8,$8,$8,$8,$8,$8,$8,$8,$8,$8,$8,$8,$8,$8,$8,$8,$8,$8,$8,$8,$8,$8,$8,$8,$8,$8,$8,$8,$8,$8
               16AD   08 08 08 08
               16B1   08 08 08 08
               16B5   08 08 08 08
               16B9   08 08 08 08
               16BD   08 08 08 08
               16C1   08 08 08 08
               16C5   08 08 08 08
               16C9   08 08 08 08
               16CD   08 08 08 08
    118        16D1   08 08 08 08          FCB $8,$8,$8,$8,$9,$9,$9,$9,$9,$9,$9,$9,$9,$9,$9,$9,$9,$9,$9,$9,$8,$8,$8,$8,$8,$8,$8,$8,$8,$8,$8,$8,$8,$8,$8,$8,$8,$8,$8,$8
               16D5   09 09 09 09
               16D9   09 09 09 09
               16DD   09 09 09 09
               16E1   09 09 09 09
               16E5   08 08 08 08
               16E9   08 08 08 08
               16ED   08 08 08 08
               16F1   08 08 08 08
               16F5   08 08 08 08
    119        16F9   08 08 08 08          FCB $8,$8,$8,$8,$8,$8,$8,$8,$8,$8,$8,$8,$8,$8,$8,$8,$8,$8,$8,$8,$8,$8,$8,$8,$8,$8,$8,$8,$8,$8,$8,$8,$8,$8,$8,$8,$8,$8,$8,$8
               16FD   08 08 08 08
               1701   08 08 08 08
               1705   08 08 08 08
               1709   08 08 08 08
               170D   08 08 08 08
               1711   08 08 08 08
               1715   08 08 08 08
               1719   08 08 08 08
               171D   08 08 08 08
    120        1721   08 08 08 08          FCB $8,$8,$8,$8,$8,$8,$8,$8,$8,$8,$8,$8,$8,$8,$8,$8,$8,$8,$8,$8,$8,$8,$8,$8,$9,$9,$9,$9,$9,$9,$9,$9,$9,$9,$9,$9,$9,$9,$9,$9
               1725   08 08 08 08
               1729   08 08 08 08
               172D   08 08 08 08
               1731   08 08 08 08
               1735   08 08 08 08
               1739   09 09 09 09
               173D   09 09 09 09
               1741   09 09 09 09
               1745   09 09 09 09
    121        1749   08 08 08 08          FCB $8,$8,$8,$8,$8,$8,$8,$8,$8,$8,$8,$8,$8,$8,$8,$8,$8,$8,$8,$8,$8,$8,$8,$8,$8,$8,$8,$8,$8,$8,$8,$8,$8,$8,$8,$8,$8,$8,$8,$8
               174D   08 08 08 08
               1751   08 08 08 08
               1755   08 08 08 08
               1759   08 08 08 08
               175D   08 08 08 08
               1761   08 08 08 08
               1765   08 08 08 08
               1769   08 08 08 08
               176D   08 08 08 08
    122        1771   09 14 09 15          FCB $9,$14,$9,$15,$a,$15,$a,$16,$b,$16,$c,$17,$c,$18,$d,$18,$d,$19,$e,$19,$f,$1a,$f,$1a,$10,$1b,$10,$1c,$11,$1c,$11,$1d,$12,$1d,$13,$1e,$13,$1f,$14,$1f
               1775   0A 15 0A 16
               1779   0B 16 0C 17
               177D   0C 18 0D 18
               1781   0D 19 0E 19
               1785   0F 1A 0F 1A
               1789   10 1B 10 1C
               178D   11 1C 11 1D
               1791   12 1D 13 1E
               1795   13 1F 14 1F
    123        1799   14 20 15 20          FCB $14,$20,$15,$20,$16,$22,$16,$22,$17,$23,$17,$24,$18,$24,$19,$25,$19,$25,$1a,$26,$1b,$27,$1c,$27,$1c,$28,$1d,$28,$1e,$29,$1e,$2a,$1f,$2a,$1f,$2b,$20,$2b,$21,$2c
               179D   16 22 16 22
               17A1   17 23 17 24
               17A5   18 24 19 25
               17A9   19 25 1A 26
               17AD   1B 27 1C 27
               17B1   1C 28 1D 28
               17B5   1E 29 1E 2A
               17B9   1F 2A 1F 2B
               17BD   20 2B 21 2C
    124        17C1   21 2C 22 2D          FCB $21,$2c,$22,$2d,$22,$2e,$23,$2e,$23,$2f,$24,$2f,$25,$30,$25,$31,$26,$31,$26,$32,$3,$3,$4,$4,$3,$3,$4,$4,$3,$3,$3,$3,$4,$4,$3,$3,$4,$4,$3,$3
               17C5   22 2E 23 2E
               17C9   23 2F 24 2F
               17CD   25 30 25 31
               17D1   26 31 26 32
               17D5   03 03 04 04
               17D9   03 03 04 04
               17DD   03 03 03 03
               17E1   04 04 03 03
               17E5   04 04 03 03
    125        17E9   03 03 03 03          FCB $3,$3,$3,$3,$3,$3,$4,$4,$3,$3,$4,$4,$3,$3,$3,$3,$4,$4,$3,$3,$4,$4,$3,$3,$3,$3,$3,$3,$3,$3,$4,$4,$3,$3,$3,$3,$3,$3,$3,$3
               17ED   03 03 04 04
               17F1   03 03 04 04
               17F5   03 03 03 03
               17F9   04 04 03 03
               17FD   04 04 03 03
               1801   03 03 03 03
               1805   03 03 04 04
               1809   03 03 03 03
               180D   03 03 03 03
    126        1811   04 04 03 03          FCB $4,$4,$3,$3,$4,$4,$3,$3,$3,$3,$4,$4,$3,$3,$4,$4,$3,$3,$3,$3,$3,$3,$3,$3,$4,$4,$3,$3,$4,$4,$3,$3,$3,$3,$4,$4,$3,$3,$4,$4
               1815   04 04 03 03
               1819   03 03 04 04
               181D   03 03 04 04
               1821   03 03 03 03
               1825   03 03 03 03
               1829   04 04 03 03
               182D   04 04 03 03
               1831   03 03 04 04
               1835   03 03 04 04
    127        1839   0D 10 0D 11          FCB $d,$10,$d,$11,$f,$11,$f,$12,$10,$12,$10,$12,$10,$13,$11,$13,$11,$14,$12,$14,$12,$15,$13,$16,$13,$16,$13,$17,$14,$17,$14,$18,$15,$18,$15,$18,$15,$19,$16,$19
               183D   0F 11 0F 12
               1841   10 12 10 12
               1845   10 13 11 13
               1849   11 14 12 14
               184D   12 15 13 16
               1851   13 16 13 17
               1855   14 17 14 18
               1859   15 18 15 18
               185D   15 19 16 19
    128        1861   16 1A 18 1A          FCB $16,$1a,$18,$1a,$18,$1a,$19,$1b,$19,$1b,$19,$1c,$1a,$1c,$1a,$1c,$1b,$1d,$1b,$1e,$1b,$1f,$1c,$1f,$1c,$20,$1d,$20,$1d,$20,$1d,$21,$1e,$21,$1e,$22,$1f,$22,$1f,$22
               1865   18 1A 19 1B
               1869   19 1B 19 1C
               186D   1A 1C 1A 1C
               1871   1B 1D 1B 1E
               1875   1B 1F 1C 1F
               1879   1C 20 1D 20
               187D   1D 20 1D 21
               1881   1E 21 1E 22
               1885   1F 22 1F 22
    129        1889   20 23 21 23          FCB $20,$23,$21,$23,$21,$24,$22,$24,$22,$25,$23,$25,$23,$25,$23,$26,$24,$26,$24,$28,$11,$c,$11,$d,$12,$c,$13,$d,$13,$d,$14,$e,$14,$f,$15,$f,$16,$10,$16,$10
               188D   21 24 22 24
               1891   22 25 23 25
               1895   23 25 23 26
               1899   24 26 24 28
               189D   11 0C 11 0D
               18A1   12 0C 13 0D
               18A5   13 0D 14 0E
               18A9   14 0F 15 0F
               18AD   16 10 16 10
    130        18B1   16 11 16 12          FCB $16,$11,$16,$12,$17,$12,$18,$13,$18,$13,$19,$14,$19,$15,$1a,$15,$1b,$16,$1b,$16,$1c,$17,$1d,$17,$1d,$17,$1e,$18,$1e,$18,$1f,$19,$20,$1a,$20,$1a,$21,$1b,$20,$1c
               18B5   17 12 18 13
               18B9   18 13 19 14
               18BD   19 15 1A 15
               18C1   1B 16 1B 16
               18C5   1C 17 1D 17
               18C9   1D 17 1E 18
               18CD   1E 18 1F 19
               18D1   20 1A 20 1A
               18D5   21 1B 20 1C
    131        18D9   21 1C 22 1D          FCB $21,$1c,$22,$1d,$22,$1d,$23,$1e,$23,$1f,$24,$1f,$25,$20,$25,$20,$26,$21,$26,$22,$27,$22,$28,$22,$28,$22,$29,$23,$29,$24,$2a,$24,$2b,$25,$2b,$25,$2c,$26,$2b,$27
               18DD   22 1D 23 1E
               18E1   23 1F 24 1F
               18E5   25 20 25 20
               18E9   26 21 26 22
               18ED   27 22 28 22
               18F1   28 22 29 23
               18F5   29 24 2A 24
               18F9   2B 25 2B 25
               18FD   2C 26 2B 27
    132        1901   05 05 04 04          FCB $5,$5,$4,$4,$5,$5,$5,$5,$5,$5,$5,$5,$4,$4,$5,$5,$5,$5,$5,$5,$5,$5,$4,$4,$5,$5,$5,$5,$5,$5,$5,$5,$4,$4,$5,$5,$5,$5,$5,$5
               1905   05 05 05 05
               1909   05 05 05 05
               190D   04 04 05 05
               1911   05 05 05 05
               1915   05 05 04 04
               1919   05 05 05 05
               191D   05 05 05 05
               1921   04 04 05 05
               1925   05 05 05 05
    133        1929   05 05 05 05          FCB $5,$5,$5,$5,$5,$5,$5,$5,$5,$5,$5,$5,$5,$5,$5,$5,$5,$5,$4,$4,$5,$5,$5,$5,$5,$5,$5,$5,$4,$4,$5,$5,$5,$5,$5,$5,$5,$5,$4,$4
               192D   05 05 05 05
               1931   05 05 05 05
               1935   05 05 05 05
               1939   05 05 04 04
               193D   05 05 05 05
               1941   05 05 05 05
               1945   04 04 05 05
               1949   05 05 05 05
               194D   05 05 04 04
    134        1951   05 05 05 05          FCB $5,$5,$5,$5,$5,$5,$5,$5,$4,$4,$5,$5,$5,$5,$5,$5,$5,$5,$4,$4,$15,$6,$15,$7,$17,$8,$17,$8,$18,$9,$18,$9,$19,$b,$1a,$b,$1a,$b,$1b,$c
               1955   05 05 05 05
               1959   04 04 05 05
               195D   05 05 05 05
               1961   05 05 04 04
               1965   15 06 15 07
               1969   17 08 17 08
               196D   18 09 18 09
               1971   19 0B 1A 0B
               1975   1A 0B 1B 0C
    135        1979   1C 0D 1C 0E          FCB $1c,$d,$1c,$e,$1d,$e,$1d,$e,$1f,$10,$1f,$10,$1f,$11,$20,$11,$21,$12,$22,$13,$22,$13,$23,$13,$24,$15,$24,$15,$25,$16,$26,$16,$26,$17,$27,$18,$27,$18,$28,$1a
               197D   1D 0E 1D 0E
               1981   1F 10 1F 10
               1985   1F 11 20 11
               1989   21 12 22 13
               198D   22 13 23 13
               1991   24 15 24 15
               1995   25 16 26 16
               1999   26 17 27 18
               199D   27 18 28 1A
    136        19A1   29 1A 29 1A          FCB $29,$1a,$29,$1a,$2a,$1b,$2b,$1c,$2b,$1d,$2c,$1d,$2c,$1d,$2e,$1f,$2e,$1f,$2e,$20,$2f,$20,$30,$21,$31,$22,$31,$22,$31,$23,$33,$24,$33,$24,$34,$25,$34,$25,$35,$27
               19A5   2A 1B 2B 1C
               19A9   2B 1D 2C 1D
               19AD   2C 1D 2E 1F
               19B1   2E 1F 2E 20
               19B5   2F 20 30 21
               19B9   31 22 31 22
               19BD   31 23 33 24
               19C1   33 24 34 25
               19C5   34 25 35 27
    137        19C9   0A 0A 0A 0A          FCB $a,$a,$a,$a,$a,$a,$a,$a,$a,$a,$a,$a,$a,$a,$a,$a,$a,$a,$a,$a,$a,$a,$a,$a,$a,$a,$a,$a,$a,$a,$a,$a,$a,$a,$a,$a,$a,$a,$a,$a
               19CD   0A 0A 0A 0A
               19D1   0A 0A 0A 0A
               19D5   0A 0A 0A 0A
               19D9   0A 0A 0A 0A
               19DD   0A 0A 0A 0A
               19E1   0A 0A 0A 0A
               19E5   0A 0A 0A 0A
               19E9   0A 0A 0A 0A
               19ED   0A 0A 0A 0A
    138        19F1   0A 0A 0B 0B          FCB $a,$a,$b,$b,$a,$a,$a,$a,$a,$a,$b,$b,$a,$a,$a,$a,$a,$a,$a,$a,$a,$a,$a,$a,$a,$a,$a,$a,$a,$a,$a,$a,$a,$a,$a,$a,$a,$a,$a,$a
               19F5   0A 0A 0A 0A
               19F9   0A 0A 0B 0B
               19FD   0A 0A 0A 0A
               1A01   0A 0A 0A 0A
               1A05   0A 0A 0A 0A
               1A09   0A 0A 0A 0A
               1A0D   0A 0A 0A 0A
               1A11   0A 0A 0A 0A
               1A15   0A 0A 0A 0A
    139        1A19   0A 0A 0A 0A          FCB $a,$a,$a,$a,$a,$a,$a,$a,$a,$a,$a,$a,$a,$a,$a,$a,$a,$a,$a,$a,$a,$a,$a,$a,$a,$a,$a,$a,$a,$a,$a,$a,$a,$a,$a,$a,$a,$a,$a,$a
               1A1D   0A 0A 0A 0A
               1A21   0A 0A 0A 0A
               1A25   0A 0A 0A 0A
               1A29   0A 0A 0A 0A
               1A2D   0A 0A 0A 0A
               1A31   0A 0A 0A 0A
               1A35   0A 0A 0A 0A
               1A39   0A 0A 0A 0A
               1A3D   0A 0A 0A 0A
    140        1A41   0A 0A 0A 0A          FCB $a,$a,$a,$a,$a,$a,$a,$a,$a,$a,$a,$a,$a,$a,$a,$a,$a,$a,$a,$a,$a,$a,$b,$b,$a,$a,$a,$a,$a,$a,$b,$b,$a,$a,$a,$a,$a,$a,$a,$a
               1A45   0A 0A 0A 0A
               1A49   0A 0A 0A 0A
               1A4D   0A 0A 0A 0A
               1A51   0A 0A 0A 0A
               1A55   0A 0A 0B 0B
               1A59   0A 0A 0A 0A
               1A5D   0A 0A 0B 0B
               1A61   0A 0A 0A 0A
               1A65   0A 0A 0A 0A
    141        1A69   0A 0A 0A 0A          FCB $a,$a,$a,$a,$a,$a,$a,$a,$a,$a,$a,$a,$a,$a,$a,$a,$a,$a,$a,$a,$a,$a,$a,$a,$a,$a,$a,$a,$a,$a,$a,$a,$a,$a,$a,$a,$a,$a,$a,$a
               1A6D   0A 0A 0A 0A
               1A71   0A 0A 0A 0A
               1A75   0A 0A 0A 0A
               1A79   0A 0A 0A 0A
               1A7D   0A 0A 0A 0A
               1A81   0A 0A 0A 0A
               1A85   0A 0A 0A 0A
               1A89   0A 0A 0A 0A
               1A8D   0A 0A 0A 0A
    142        1A91                    line_enemy_dy
    143        1A91   07 07 07 07          FCB $7,$7,$7,$7,$7,$7,$7,$7,$7,$7,$7,$7,$7,$7,$7,$7,$8,$8,$8,$8,$8,$8,$8,$8,$8,$8,$8,$8,$7,$7,$7,$7,$7,$7,$7,$7,$7,$7,$7,$7
               1A95   07 07 07 07
               1A99   07 07 07 07
               1A9D   07 07 07 07
               1AA1   08 08 08 08
               1AA5   08 08 08 08
               1AA9   08 08 08 08
               1AAD   07 07 07 07
               1AB1   07 07 07 07
               1AB5   07 07 07 07
    144        1AB9   07 07 07 07          FCB $7,$7,$7,$7,$8,$8,$8,$8,$8,$8,$8,$8,$8,$8,$8,$8,$8,$8,$7,$7,$7,$7,$7,$7,$7,$7,$7,$7,$7,$7,$7,$7,$7,$7,$8,$8,$8,$8,$8,$8
               1ABD   08 08 08 08
               1AC1   08 08 08 08
               1AC5   08 08 08 08
               1AC9   08 08 07 07
               1ACD   07 07 07 07
               1AD1   07 07 07 07
               1AD5   07 07 07 07
               1AD9   07 07 08 08
               1ADD   08 08 08 08
    145        1AE1   08 08 08 08          FCB $8,$8,$8,$8,$8,$8,$7,$7,$7,$7,$7,$7,$7,$7,$7,$7,$7,$7,$7,$7,$16,$4,$16,$4,$17,$5,$17,$5,$18,$6,$18,$6,$18,$6,$19,$7,$1a,$7,$1a,$7
               1AE5   08 08 07 07
               1AE9   07 07 07 07
               1AED   07 07 07 07
               1AF1   07 07 07 07
               1AF5   16 04 16 04
               1AF9   17 05 17 05
               1AFD   18 06 18 06
               1B01   18 06 19 07
               1B05   1A 07 1A 07
    146        1B09   1B 08 1B 08          FCB $1b,$8,$1b,$8,$1c,$9,$1c,$9,$1c,$a,$1d,$b,$1d,$b,$1d,$b,$1e,$c,$1e,$c,$1f,$d,$1f,$d,$20,$d,$21,$e,$21,$e,$22,$e,$22,$f,$22,$f,$23,$10,$23,$11
               1B0D   1C 09 1C 09
               1B11   1C 0A 1D 0B
               1B15   1D 0B 1D 0B
               1B19   1E 0C 1E 0C
               1B1D   1F 0D 1F 0D
               1B21   20 0D 21 0E
               1B25   21 0E 22 0E
               1B29   22 0F 22 0F
               1B2D   23 10 23 11
    147        1B31   23 11 24 12          FCB $23,$11,$24,$12,$24,$12,$25,$13,$25,$13,$25,$13,$26,$14,$27,$14,$27,$14,$28,$15,$28,$15,$29,$16,$29,$16,$29,$17,$2a,$18,$2a,$18,$2a,$18,$2b,$19,$2b,$19,$2c,$1a
               1B35   24 12 25 13
               1B39   25 13 25 13
               1B3D   26 14 27 14
               1B41   27 14 28 15
               1B45   28 15 29 16
               1B49   29 16 29 17
               1B4D   2A 18 2A 18
               1B51   2A 18 2B 19
               1B55   2B 19 2C 1A
    148        1B59   0B 0B 0B 0B          FCB $b,$b,$b,$b,$b,$b,$b,$b,$b,$b,$b,$b,$b,$b,$b,$b,$b,$b,$b,$b,$b,$b,$b,$b,$b,$b,$b,$b,$b,$b,$b,$b,$b,$b,$b,$b,$b,$b,$b,$b
               1B5D   0B 0B 0B 0B
               1B61   0B 0B 0B 0B
               1B65   0B 0B 0B 0B
               1B69   0B 0B 0B 0B
               1B6D   0B 0B 0B 0B
               1B71   0B 0B 0B 0B
               1B75   0B 0B 0B 0B
               1B79   0B 0B 0B 0B
               1B7D   0B 0B 0B 0B
    149        1B81   0B 0B 0B 0B          FCB $b,$b,$b,$b,$b,$b,$b,$b,$b,$b,$c,$c,$b,$b,$b,$b,$b,$b,$b,$b,$b,$b,$b,$b,$b,$b,$b,$b,$b,$b,$b,$b,$b,$b,$b,$b,$b,$b,$b,$b
               1B85   0B 0B 0B 0B
               1B89   0B 0B 0C 0C
               1B8D   0B 0B 0B 0B
               1B91   0B 0B 0B 0B
               1B95   0B 0B 0B 0B
               1B99   0B 0B 0B 0B
               1B9D   0B 0B 0B 0B
               1BA1   0B 0B 0B 0B
               1BA5   0B 0B 0B 0B
    150        1BA9   0B 0B 0B 0B          FCB $b,$b,$b,$b,$b,$b,$b,$b,$b,$b,$b,$b,$b,$b,$b,$b,$b,$b,$b,$b,$b,$b,$b,$b,$b,$b,$b,$b,$b,$b,$b,$b,$b,$b,$b,$b,$b,$b,$b,$b
               1BAD   0B 0B 0B 0B
               1BB1   0B 0B 0B 0B
               1BB5   0B 0B 0B 0B
               1BB9   0B 0B 0B 0B
               1BBD   0B 0B 0B 0B
               1BC1   0B 0B 0B 0B
               1BC5   0B 0B 0B 0B
               1BC9   0B 0B 0B 0B
               1BCD   0B 0B 0B 0B
    151        1BD1   0B 0B 0B 0B          FCB $b,$b,$b,$b,$b,$b,$b,$b,$b,$b,$b,$b,$b,$b,$b,$b,$b,$b,$b,$b,$b,$b,$b,$b,$b,$b,$b,$b,$b,$b,$c,$c,$b,$b,$b,$b,$b,$b,$b,$b
               1BD5   0B 0B 0B 0B
               1BD9   0B 0B 0B 0B
               1BDD   0B 0B 0B 0B
               1BE1   0B 0B 0B 0B
               1BE5   0B 0B 0B 0B
               1BE9   0B 0B 0B 0B
               1BED   0B 0B 0C 0C
               1BF1   0B 0B 0B 0B
               1BF5   0B 0B 0B 0B
    152        1BF9   0B 0B 0B 0B          FCB $b,$b,$b,$b,$b,$b,$b,$b,$b,$b,$b,$b,$b,$b,$b,$b,$b,$b,$b,$b,$b,$b,$b,$b,$b,$b,$b,$b,$b,$b,$b,$b,$b,$b,$b,$b,$b,$b,$b,$b
               1BFD   0B 0B 0B 0B
               1C01   0B 0B 0B 0B
               1C05   0B 0B 0B 0B
               1C09   0B 0B 0B 0B
               1C0D   0B 0B 0B 0B
               1C11   0B 0B 0B 0B
               1C15   0B 0B 0B 0B
               1C19   0B 0B 0B 0B
               1C1D   0B 0B 0B 0B
    153        1C21   06 18 06 18          FCB $6,$18,$6,$18,$7,$19,$7,$19,$8,$1a,$8,$1a,$8,$1a,$9,$1b,$9,$1c,$9,$1c,$a,$1d,$a,$1d,$b,$1e,$b,$1e,$c,$1e,$d,$1f,$d,$1f,$d,$1f,$e,$20,$e,$20
               1C25   07 19 07 19
               1C29   08 1A 08 1A
               1C2D   08 1A 09 1B
               1C31   09 1C 09 1C
               1C35   0A 1D 0A 1D
               1C39   0B 1E 0B 1E
               1C3D   0C 1E 0D 1F
               1C41   0D 1F 0D 1F
               1C45   0E 20 0E 20
    154        1C49   0F 21 0F 21          FCB $f,$21,$f,$21,$f,$22,$10,$23,$10,$23,$10,$24,$11,$24,$11,$24,$12,$25,$13,$25,$13,$25,$14,$26,$14,$26,$15,$27,$15,$27,$15,$27,$16,$28,$16,$29,$16,$29,$17,$2a
               1C4D   0F 22 10 23
               1C51   10 23 10 24
               1C55   11 24 11 24
               1C59   12 25 13 25
               1C5D   13 25 14 26
               1C61   14 26 15 27
               1C65   15 27 15 27
               1C69   16 28 16 29
               1C6D   16 29 17 2A
    155        1C71   17 2A 18 2B          FCB $17,$2a,$18,$2b,$18,$2b,$19,$2b,$1a,$2c,$1a,$2c,$1a,$2c,$1b,$2d,$1b,$2d,$1c,$2e,$7,$7,$7,$7,$7,$7,$7,$7,$7,$7,$7,$7,$7,$7,$7,$7,$8,$8,$8,$8
               1C75   18 2B 19 2B
               1C79   1A 2C 1A 2C
               1C7D   1A 2C 1B 2D
               1C81   1B 2D 1C 2E
               1C85   07 07 07 07
               1C89   07 07 07 07
               1C8D   07 07 07 07
               1C91   07 07 07 07
               1C95   08 08 08 08
    156        1C99   08 08 08 08          FCB $8,$8,$8,$8,$8,$8,$8,$8,$7,$7,$7,$7,$7,$7,$7,$7,$7,$7,$7,$7,$7,$7,$7,$7,$8,$8,$8,$8,$8,$8,$8,$8,$8,$8,$8,$8,$8,$8,$7,$7
               1C9D   08 08 08 08
               1CA1   07 07 07 07
               1CA5   07 07 07 07
               1CA9   07 07 07 07
               1CAD   07 07 07 07
               1CB1   08 08 08 08
               1CB5   08 08 08 08
               1CB9   08 08 08 08
               1CBD   08 08 07 07
    157        1CC1   07 07 07 07          FCB $7,$7,$7,$7,$7,$7,$7,$7,$7,$7,$7,$7,$7,$7,$8,$8,$8,$8,$8,$8,$8,$8,$8,$8,$8,$8,$7,$7,$7,$7,$7,$7,$7,$7,$7,$7,$7,$7,$7,$7
               1CC5   07 07 07 07
               1CC9   07 07 07 07
               1CCD   07 07 08 08
               1CD1   08 08 08 08
               1CD5   08 08 08 08
               1CD9   08 08 07 07
               1CDD   07 07 07 07
               1CE1   07 07 07 07
               1CE5   07 07 07 07
    158        1CE9   07 11 08 12          FCB $7,$11,$8,$12,$9,$12,$9,$13,$a,$14,$b,$14,$b,$15,$c,$16,$c,$16,$c,$17,$d,$18,$e,$18,$e,$19,$f,$1a,$10,$19,$10,$1a,$11,$1b,$12,$1b,$12,$1c,$13,$1d
               1CED   09 12 09 13
               1CF1   0A 14 0B 14
               1CF5   0B 15 0C 16
               1CF9   0C 16 0C 17
               1CFD   0D 18 0E 18
               1D01   0E 19 0F 1A
               1D05   10 19 10 1A
               1D09   11 1B 12 1B
               1D0D   12 1C 13 1D
    159        1D11   14 1D 14 1E          FCB $14,$1d,$14,$1e,$14,$1f,$15,$1f,$16,$20,$16,$21,$17,$21,$18,$22,$18,$23,$19,$22,$1a,$23,$1a,$24,$1b,$25,$1c,$25,$1c,$26,$1d,$27,$1e,$27,$1d,$28,$1e,$29,$1f,$29
               1D15   14 1F 15 1F
               1D19   16 20 16 21
               1D1D   17 21 18 22
               1D21   18 23 19 22
               1D25   1A 23 1A 24
               1D29   1B 25 1C 25
               1D2D   1C 26 1D 27
               1D31   1E 27 1D 28
               1D35   1E 29 1F 29
    160        1D39   1F 2A 20 2B          FCB $1f,$2a,$20,$2b,$21,$2b,$21,$2b,$22,$2c,$23,$2c,$23,$2d,$24,$2e,$25,$2e,$25,$2f,$d,$e,$d,$e,$f,$f,$f,$10,$f,$10,$11,$10,$11,$12,$11,$12,$12,$12,$13,$13
               1D3D   21 2B 21 2B
               1D41   22 2C 23 2C
               1D45   23 2D 24 2E
               1D49   25 2E 25 2F
               1D4D   0D 0E 0D 0E
               1D51   0F 0F 0F 10
               1D55   0F 10 11 10
               1D59   11 12 11 12
               1D5D   12 12 13 13
    161        1D61   13 14 14 14          FCB $13,$14,$14,$14,$15,$15,$15,$16,$16,$16,$16,$17,$17,$17,$18,$18,$18,$19,$18,$19,$1a,$1a,$1a,$1b,$1a,$1b,$1c,$1b,$1c,$1c,$1c,$1d,$1d,$1d,$1e,$1d,$1e,$1f,$1f,$1f
               1D65   15 15 15 16
               1D69   16 16 16 17
               1D6D   17 17 18 18
               1D71   18 19 18 19
               1D75   1A 1A 1A 1B
               1D79   1A 1B 1C 1B
               1D7D   1C 1C 1C 1D
               1D81   1D 1D 1E 1D
               1D85   1E 1F 1F 1F
    162        1D89   1F 1F 20 21          FCB $1f,$1f,$20,$21,$20,$21,$21,$21,$22,$22,$22,$23,$23,$23,$23,$24,$24,$24,$25,$25,$25,$26,$26,$26,$27,$27,$27,$28,$27,$28,$29,$28,$29,$2a,$29,$2a,$2a,$2a,$2b,$2c
               1D8D   20 21 21 21
               1D91   22 22 22 23
               1D95   23 23 23 24
               1D99   24 24 25 25
               1D9D   25 26 26 26
               1DA1   27 27 27 28
               1DA5   27 28 29 28
               1DA9   29 2A 29 2A
               1DAD   2A 2A 2B 2C
    163        1DB1   02 02 02 02          FCB $2,$2,$2,$2,$2,$2,$2,$2,$2,$2,$3,$3,$2,$2,$2,$2,$2,$2,$3,$3,$2,$2,$2,$2,$3,$3,$2,$2,$2,$2,$2,$2,$3,$3,$2,$2,$2,$2,$2,$2
               1DB5   02 02 02 02
               1DB9   02 02 03 03
               1DBD   02 02 02 02
               1DC1   02 02 03 03
               1DC5   02 02 02 02
               1DC9   03 03 02 02
               1DCD   02 02 02 02
               1DD1   03 03 02 02
               1DD5   02 02 02 02
    164        1DD9   02 02 02 02          FCB $2,$2,$2,$2,$2,$2,$3,$3,$2,$2,$2,$2,$2,$2,$3,$3,$2,$2,$2,$2,$2,$2,$2,$2,$2,$2,$2,$2,$3,$3,$2,$2,$2,$2,$2,$2,$3,$3,$2,$2
               1DDD   02 02 03 03
               1DE1   02 02 02 02
               1DE5   02 02 03 03
               1DE9   02 02 02 02
               1DED   02 02 02 02
               1DF1   02 02 02 02
               1DF5   03 03 02 02
               1DF9   02 02 02 02
               1DFD   03 03 02 02
    165        1E01   02 02 03 03          FCB $2,$2,$3,$3,$2,$2,$2,$2,$2,$2,$3,$3,$2,$2,$2,$2,$2,$2,$2,$2,$15,$d,$16,$e,$15,$d,$16,$e,$17,$f,$18,$f,$17,$f,$18,$10,$19,$11,$1a,$11
               1E05   02 02 02 02
               1E09   02 02 03 03
               1E0D   02 02 02 02
               1E11   02 02 02 02
               1E15   15 0D 16 0E
               1E19   15 0D 16 0E
               1E1D   17 0F 18 0F
               1E21   17 0F 18 10
               1E25   19 11 1A 11
    166        1E29   19 11 1A 12          FCB $19,$11,$1a,$12,$1b,$12,$1b,$13,$1b,$13,$1c,$14,$1d,$14,$1d,$15,$1d,$15,$1e,$16,$1e,$16,$1f,$17,$1f,$17,$20,$17,$20,$18,$20,$19,$21,$19,$22,$19,$22,$1a,$22,$1b
               1E2D   1B 12 1B 13
               1E31   1B 13 1C 14
               1E35   1D 14 1D 15
               1E39   1D 15 1E 16
               1E3D   1E 16 1F 17
               1E41   1F 17 20 17
               1E45   20 18 20 19
               1E49   21 19 22 19
               1E4D   22 1A 22 1B
    167        1E51   23 1B 23 1B          FCB $23,$1b,$23,$1b,$24,$1c,$24,$1c,$25,$1c,$25,$1d,$26,$1e,$26,$1e,$27,$1e,$27,$1f,$28,$20,$28,$1f,$28,$20,$29,$21,$2a,$22,$2a,$21,$2a,$22,$2b,$23,$2c,$24,$2b,$23
               1E55   24 1C 24 1C
               1E59   25 1C 25 1D
               1E5D   26 1E 26 1E
               1E61   27 1E 27 1F
               1E65   28 20 28 1F
               1E69   28 20 29 21
               1E6D   2A 22 2A 21
               1E71   2A 22 2B 23
               1E75   2C 24 2B 23
    168        1E79   06 06 06 06          FCB $6,$6,$6,$6,$6,$6,$6,$6,$6,$6,$6,$6,$6,$6,$6,$6,$6,$6,$6,$6,$6,$6,$6,$6,$6,$6,$6,$6,$6,$6,$6,$6,$6,$6,$6,$6,$6,$6,$6,$6
               1E7D   06 06 06 06
               1E81   06 06 06 06
               1E85   06 06 06 06
               1E89   06 06 06 06
               1E8D   06 06 06 06
               1E91   06 06 06 06
               1E95   06 06 06 06
               1E99   06 06 06 06
               1E9D   06 06 06 06
    169        1EA1   06 06 06 06          FCB $6,$6,$6,$6,$6,$6,$6,$6,$6,$6,$5,$5,$6,$6,$6,$6,$6,$6,$5,$5,$6,$6,$6,$6,$6,$6,$6,$6,$6,$6,$6,$6,$6,$6,$6,$6,$6,$6,$6,$6
               1EA5   06 06 06 06
               1EA9   06 06 05 05
               1EAD   06 06 06 06
               1EB1   06 06 05 05
               1EB5   06 06 06 06
               1EB9   06 06 06 06
               1EBD   06 06 06 06
               1EC1   06 06 06 06
               1EC5   06 06 06 06
    170        1EC9   06 06 06 06          FCB $6,$6,$6,$6,$6,$6,$6,$6,$6,$6,$6,$6,$6,$6,$6,$6,$6,$6,$6,$6,$6,$6,$6,$6,$6,$6,$6,$6,$6,$6,$6,$6,$6,$6,$6,$6,$6,$6,$6,$6
               1ECD   06 06 06 06
               1ED1   06 06 06 06
               1ED5   06 06 06 06
               1ED9   06 06 06 06
               1EDD   06 06 06 06
               1EE1   06 06 06 06
               1EE5   06 06 06 06
               1EE9   06 06 06 06
               1EED   06 06 06 06
    171        1EF1   06 06 06 06          FCB $6,$6,$6,$6,$6,$6,$6,$6,$6,$6,$6,$6,$6,$6,$6,$6,$6,$6,$6,$6,$6,$6,$6,$6,$6,$6,$6,$6,$6,$6,$5,$5,$6,$6,$6,$6,$6,$6,$5,$5
               1EF5   06 06 06 06
               1EF9   06 06 06 06
               1EFD   06 06 06 06
               1F01   06 06 06 06
               1F05   06 06 06 06
               1F09   06 06 06 06
               1F0D   06 06 05 05
               1F11   06 06 06 06
               1F15   06 06 05 05
    172        1F19   06 06 06 06          FCB $6,$6,$6,$6,$6,$6,$6,$6,$6,$6,$6,$6,$6,$6,$6,$6,$6,$6,$6,$6,$6,$6,$6,$6,$6,$6,$6,$6,$6,$6,$6,$6,$6,$6,$6,$6,$6,$6,$6,$6
               1F1D   06 06 06 06
               1F21   06 06 06 06
               1F25   06 06 06 06
               1F29   06 06 06 06
               1F2D   06 06 06 06
               1F31   06 06 06 06
               1F35   06 06 06 06
               1F39   06 06 06 06
               1F3D   06 06 06 06
    173        1F41   0E 16 0E 17          FCB $e,$16,$e,$17,$e,$16,$f,$17,$f,$18,$10,$19,$10,$18,$11,$19,$11,$1a,$12,$1a,$12,$1a,$12,$1b,$13,$1b,$14,$1c,$14,$1c,$14,$1d,$15,$1d,$16,$1e,$15,$1e,$16,$1e
               1F45   0E 16 0F 17
               1F49   0F 18 10 19
               1F4D   10 18 11 19
               1F51   11 1A 12 1A
               1F55   12 1A 12 1B
               1F59   13 1B 14 1C
               1F5D   14 1C 14 1D
               1F61   15 1D 16 1E
               1F65   15 1E 16 1E
    174        1F69   17 1F 18 20          FCB $17,$1f,$18,$20,$17,$20,$18,$20,$19,$21,$19,$21,$19,$21,$1a,$22,$1a,$23,$1b,$23,$1b,$23,$1c,$24,$1c,$25,$1c,$24,$1d,$25,$1d,$26,$1e,$26,$1e,$26,$1f,$27,$1f,$28
               1F6D   17 20 18 20
               1F71   19 21 19 21
               1F75   19 21 1A 22
               1F79   1A 23 1B 23
               1F7D   1B 23 1C 24
               1F81   1C 25 1C 24
               1F85   1D 25 1D 26
               1F89   1E 26 1E 26
               1F8D   1F 27 1F 28
    175        1F91   20 28 20 28          FCB $20,$28,$20,$28,$20,$29,$21,$29,$22,$2a,$21,$2a,$22,$2b,$23,$2b,$24,$2c,$23,$2c,$2,$2,$3,$3,$2,$2,$2,$2,$3,$3,$3,$3,$2,$2,$2,$2,$3,$3,$2,$2
               1F95   20 29 21 29
               1F99   22 2A 21 2A
               1F9D   22 2B 23 2B
               1FA1   24 2C 23 2C
               1FA5   02 02 03 03
               1FA9   02 02 02 02
               1FAD   03 03 03 03
               1FB1   02 02 02 02
               1FB5   03 03 02 02
    176        1FB9   02 02 03 03          FCB $2,$2,$3,$3,$2,$2,$2,$2,$2,$2,$3,$3,$2,$2,$2,$2,$3,$3,$2,$2,$2,$2,$2,$2,$3,$3,$2,$2,$2,$2,$3,$3,$2,$2,$2,$2,$3,$3,$3,$3
               1FBD   02 02 02 02
               1FC1   02 02 03 03
               1FC5   02 02 02 02
               1FC9   03 03 02 02
               1FCD   02 02 02 02
               1FD1   03 03 02 02
               1FD5   02 02 03 03
               1FD9   02 02 02 02
               1FDD   03 03 03 03
    177        1FE1   02 02 02 02          FCB $2,$2,$2,$2,$3,$3,$2,$2,$2,$2,$3,$3,$2,$2,$2,$2,$2,$2,$3,$3,$2,$2,$2,$2,$3,$3,$2,$2,$2,$2,$3,$3,$3,$3,$2,$2,$2,$2,$3,$3
               1FE5   03 03 02 02
               1FE9   02 02 03 03
               1FED   02 02 02 02
               1FF1   02 02 03 03
               1FF5   02 02 02 02
               1FF9   03 03 02 02
               1FFD   02 02 03 03
               2001   03 03 02 02
               2005   02 02 03 03
    178        2009   0C 0D 0C 0E          FCB $c,$d,$c,$e,$e,$e,$e,$e,$e,$10,$e,$10,$f,$10,$f,$10,$f,$11,$11,$11,$11,$12,$11,$13,$12,$13,$12,$13,$12,$13,$13,$14,$14,$14,$14,$15,$14,$16,$15,$16
               200D   0E 0E 0E 0E
               2011   0E 10 0E 10
               2015   0F 10 0F 10
               2019   0F 11 11 11
               201D   11 12 11 13
               2021   12 13 12 13
               2025   12 13 13 14
               2029   14 14 14 15
               202D   14 16 15 16
    179        2031   15 16 16 16          FCB $15,$16,$16,$16,$16,$17,$17,$18,$17,$18,$17,$19,$18,$19,$18,$19,$19,$1a,$19,$1b,$1a,$1b,$1a,$1b,$1a,$1c,$1b,$1c,$1c,$1c,$1c,$1d,$1d,$1e,$1d,$1e,$1d,$1e,$1d,$1f
               2035   16 17 17 18
               2039   17 18 17 19
               203D   18 19 18 19
               2041   19 1A 19 1B
               2045   1A 1B 1A 1B
               2049   1A 1C 1B 1C
               204D   1C 1C 1C 1D
               2051   1D 1E 1D 1E
               2055   1D 1E 1D 1F
    180        2059   1E 1F 1F 1F          FCB $1e,$1f,$1f,$1f,$1f,$21,$20,$21,$20,$21,$20,$22,$20,$22,$22,$22,$22,$22,$22,$24,$12,$a,$13,$b,$14,$b,$15,$c,$15,$d,$16,$e,$17,$f,$18,$10,$19,$10,$1a,$10
               205D   1F 21 20 21
               2061   20 21 20 22
               2065   20 22 22 22
               2069   22 22 22 24
               206D   12 0A 13 0B
               2071   14 0B 15 0C
               2075   15 0D 16 0E
               2079   17 0F 18 10
               207D   19 10 1A 10
    181        2081   1A 11 1B 12          FCB $1a,$11,$1b,$12,$1c,$13,$1d,$14,$1d,$15,$1e,$15,$1f,$16,$1f,$17,$20,$18,$21,$19,$22,$1a,$23,$1a,$24,$1a,$24,$1b,$25,$1c,$26,$1d,$27,$1e,$28,$1f,$29,$1f,$28,$20
               2085   1C 13 1D 14
               2089   1D 15 1E 15
               208D   1F 16 1F 17
               2091   20 18 21 19
               2095   22 1A 23 1A
               2099   24 1A 24 1B
               209D   25 1C 26 1D
               20A1   27 1E 28 1F
               20A5   29 1F 28 20
    182        20A9   29 21 2A 22          FCB $29,$21,$2a,$22,$2b,$23,$2c,$24,$2d,$24,$2e,$25,$2e,$26,$2f,$26,$30,$27,$31,$28,$32,$29,$33,$29,$33,$2a,$33,$2b,$34,$2c,$35,$2d,$36,$2e,$37,$2e,$38,$2f,$38,$30
               20AD   2B 23 2C 24
               20B1   2D 24 2E 25
               20B5   2E 26 2F 26
               20B9   30 27 31 28
               20BD   32 29 33 29
               20C1   33 2A 33 2B
               20C5   34 2C 35 2D
               20C9   36 2E 37 2E
               20CD   38 2F 38 30
    183        20D1                    line_enemy_cmd
    184        20D1   15 17 15 17          FCB $15,$17,$15,$17,$15,$17,$15,$17,$15,$17,$15,$17,$15,$17,$15,$17,$15,$17,$15,$17,$15,$17,$15,$17,$15,$17,$15,$17,$15,$17,$15,$17,$15,$17,$15,$17,$15,$17,$15,$17
               20D5   15 17 15 17
               20D9   15 17 15 17
               20DD   15 17 15 17
               20E1   15 17 15 17
               20E5   15 17 15 17
               20E9   15 17 15 17
               20ED   15 17 15 17
               20F1   15 17 15 17
               20F5   15 17 15 17
    185        20F9   15 17 15 17          FCB $15,$17,$15,$17,$15,$17,$15,$17,$15,$17,$15,$17,$15,$17,$15,$17,$15,$17,$15,$17,$15,$17,$15,$17,$15,$17,$15,$17,$15,$17,$15,$17,$15,$17,$15,$17,$15,$17,$15,$17
               20FD   15 17 15 17
               2101   15 17 15 17
               2105   15 17 15 17
               2109   15 17 15 17
               210D   15 17 15 17
               2111   15 17 15 17
               2115   15 17 15 17
               2119   15 17 15 17
               211D   15 17 15 17
    186        2121   15 17 15 17          FCB $15,$17,$15,$17,$15,$17,$15,$17,$15,$17,$15,$17,$15,$17,$15,$17,$15,$17,$15,$17,$17,$13,$17,$13,$17,$13,$17,$13,$17,$13,$17,$13,$17,$13,$17,$13,$17,$13,$17,$13
               2125   15 17 15 17
               2129   15 17 15 17
               212D   15 17 15 17
               2131   15 17 15 17
               2135   17 13 17 13
               2139   17 13 17 13
               213D   17 13 17 13
               2141   17 13 17 13
               2145   17 13 17 13
    187        2149   17 13 17 13          FCB $17,$13,$17,$13,$17,$13,$17,$13,$17,$13,$17,$13,$17,$13,$17,$13,$17,$13,$17,$13,$17,$13,$17,$13,$17,$13,$17,$13,$17,$13,$17,$13,$17,$13,$17,$13,$17,$13,$17,$13
               214D   17 13 17 13
               2151   17 13 17 13
               2155   17 13 17 13
               2159   17 13 17 13
               215D   17 13 17 13
               2161   17 13 17 13
               2165   17 13 17 13
               2169   17 13 17 13
               216D   17 13 17 13
    188        2171   17 13 17 13          FCB $17,$13,$17,$13,$17,$13,$17,$13,$17,$13,$17,$13,$17,$13,$17,$13,$17,$13,$17,$13,$17,$13,$17,$13,$17,$13,$17,$13,$17,$13,$17,$13,$17,$13,$17,$13,$17,$13,$17,$13
               2175   17 13 17 13
               2179   17 13 17 13
               217D   17 13 17 13
               2181   17 13 17 13
               2185   17 13 17 13
               2189   17 13 17 13
               218D   17 13 17 13
               2191   17 13 17 13
               2195   17 13 17 13
    189        2199   15 17 15 17          FCB $15,$17,$15,$17,$15,$17,$15,$17,$15,$17,$15,$17,$15,$17,$15,$17,$15,$17,$15,$17,$15,$17,$15,$17,$15,$17,$15,$17,$15,$17,$15,$17,$15,$17,$15,$17,$15,$17,$15,$17
               219D   15 17 15 17
               21A1   15 17 15 17
               21A5   15 17 15 17
               21A9   15 17 15 17
               21AD   15 17 15 17
               21B1   15 17 15 17
               21B5   15 17 15 17
               21B9   15 17 15 17
               21BD   15 17 15 17
    190        21C1   15 17 15 17          FCB $15,$17,$15,$17,$15,$17,$15,$17,$15,$17,$15,$17,$15,$17,$15,$17,$15,$17,$15,$17,$15,$17,$15,$17,$15,$17,$15,$17,$15,$17,$15,$17,$15,$17,$15,$17,$15,$17,$15,$17
               21C5   15 17 15 17
               21C9   15 17 15 17
               21CD   15 17 15 17
               21D1   15 17 15 17
               21D5   15 17 15 17
               21D9   15 17 15 17
               21DD   15 17 15 17
               21E1   15 17 15 17
               21E5   15 17 15 17
    191        21E9   15 17 15 17          FCB $15,$17,$15,$17,$15,$17,$15,$17,$15,$17,$15,$17,$15,$17,$15,$17,$15,$17,$15,$17,$15,$17,$15,$17,$15,$17,$15,$17,$15,$17,$15,$17,$15,$17,$15,$17,$15,$17,$15,$17
               21ED   15 17 15 17
               21F1   15 17 15 17
               21F5   15 17 15 17
               21F9   15 17 15 17
               21FD   15 17 15 17
               2201   15 17 15 17
               2205   15 17 15 17
               2209   15 17 15 17
               220D   15 17 15 17
    192        2211   15 17 15 17          FCB $15,$17,$15,$17,$15,$17,$15,$17,$15,$17,$15,$17,$15,$17,$15,$17,$15,$17,$15,$17,$15,$17,$15,$17,$15,$17,$15,$17,$15,$17,$15,$17,$15,$17,$15,$17,$15,$17,$15,$17
               2215   15 17 15 17
               2219   15 17 15 17
               221D   15 17 15 17
               2221   15 17 15 17
               2225   15 17 15 17
               2229   15 17 15 17
               222D   15 17 15 17
               2231   15 17 15 17
               2235   15 17 15 17
    193        2239   15 17 15 17          FCB $15,$17,$15,$17,$15,$17,$15,$17,$15,$17,$15,$17,$15,$17,$15,$17,$15,$17,$15,$17,$15,$17,$15,$17,$15,$17,$15,$17,$15,$17,$15,$17,$15,$17,$15,$17,$15,$17,$15,$17
               223D   15 17 15 17
               2241   15 17 15 17
               2245   15 17 15 17
               2249   15 17 15 17
               224D   15 17 15 17
               2251   15 17 15 17
               2255   15 17 15 17
               2259   15 17 15 17
               225D   15 17 15 17
    194        2261   11 15 11 15          FCB $11,$15,$11,$15,$11,$15,$11,$15,$11,$15,$11,$15,$11,$15,$11,$15,$11,$15,$11,$15,$11,$15,$11,$15,$11,$15,$11,$15,$11,$15,$11,$15,$11,$15,$11,$15,$11,$15,$11,$15
               2265   11 15 11 15
               2269   11 15 11 15
               226D   11 15 11 15
               2271   11 15 11 15
               2275   11 15 11 15
               2279   11 15 11 15
               227D   11 15 11 15
               2281   11 15 11 15
               2285   11 15 11 15
    195        2289   11 15 11 15          FCB $11,$15,$11,$15,$11,$15,$11,$15,$11,$15,$11,$15,$11,$15,$11,$15,$11,$15,$11,$15,$11,$15,$11,$15,$11,$15,$11,$15,$11,$15,$11,$15,$11,$15,$11,$15,$11,$15,$11,$15
               228D   11 15 11 15
               2291   11 15 11 15
               2295   11 15 11 15
               2299   11 15 11 15
               229D   11 15 11 15
               22A1   11 15 11 15
               22A5   11 15 11 15
               22A9   11 15 11 15
               22AD   11 15 11 15
    196        22B1   11 15 11 15          FCB $11,$15,$11,$15,$11,$15,$11,$15,$11,$15,$11,$15,$11,$15,$11,$15,$11,$15,$11,$15,$15,$17,$15,$17,$15,$17,$15,$17,$15,$17,$15,$17,$15,$17,$15,$17,$15,$17,$15,$17
               22B5   11 15 11 15
               22B9   11 15 11 15
               22BD   11 15 11 15
               22C1   11 15 11 15
               22C5   15 17 15 17
               22C9   15 17 15 17
               22CD   15 17 15 17
               22D1   15 17 15 17
               22D5   15 17 15 17
    197        22D9   15 17 15 17          FCB $15,$17,$15,$17,$15,$17,$15,$17,$15,$17,$15,$17,$15,$17,$15,$17,$15,$17,$15,$17,$15,$17,$15,$17,$15,$17,$15,$17,$15,$17,$15,$17,$15,$17,$15,$17,$15,$17,$15,$17
               22DD   15 17 15 17
               22E1   15 17 15 17
               22E5   15 17 15 17
               22E9   15 17 15 17
               22ED   15 17 15 17
               22F1   15 17 15 17
               22F5   15 17 15 17
               22F9   15 17 15 17
               22FD   15 17 15 17
    198        2301   15 17 15 17          FCB $15,$17,$15,$17,$15,$17,$15,$17,$15,$17,$15,$17,$15,$17,$15,$17,$15,$17,$15,$17,$15,$17,$15,$17,$15,$17,$15,$17,$15,$17,$15,$17,$15,$17,$15,$17,$15,$17,$15,$17
               2305   15 17 15 17
               2309   15 17 15 17
               230D   15 17 15 17
               2311   15 17 15 17
               2315   15 17 15 17
               2319   15 17 15 17
               231D   15 17 15 17
               2321   15 17 15 17
               2325   15 17 15 17
    199        2329   11 15 11 15          FCB $11,$15,$11,$15,$11,$15,$11,$15,$11,$15,$11,$15,$11,$15,$11,$15,$11,$15,$11,$15,$11,$15,$11,$15,$11,$15,$11,$15,$11,$15,$11,$15,$11,$15,$11,$15,$11,$15,$11,$15
               232D   11 15 11 15
               2331   11 15 11 15
               2335   11 15 11 15
               2339   11 15 11 15
               233D   11 15 11 15
               2341   11 15 11 15
               2345   11 15 11 15
               2349   11 15 11 15
               234D   11 15 11 15
    200        2351   11 15 11 15          FCB $11,$15,$11,$15,$11,$15,$11,$15,$11,$15,$11,$15,$11,$15,$11,$15,$11,$15,$11,$15,$11,$15,$11,$15,$11,$15,$11,$15,$11,$15,$11,$15,$11,$15,$11,$15,$11,$15,$11,$15
               2355   11 15 11 15
               2359   11 15 11 15
               235D   11 15 11 15
               2361   11 15 11 15
               2365   11 15 11 15
               2369   11 15 11 15
               236D   11 15 11 15
               2371   11 15 11 15
               2375   11 15 11 15
    201        2379   11 15 11 15          FCB $11,$15,$11,$15,$11,$15,$11,$15,$11,$15,$11,$15,$11,$15,$11,$15,$11,$15,$11,$15,$11,$15,$11,$15,$11,$15,$11,$15,$11,$15,$11,$15,$11,$15,$11,$15,$11,$15,$11,$15
               237D   11 15 11 15
               2381   11 15 11 15
               2385   11 15 11 15
               2389   11 15 11 15
               238D   11 15 11 15
               2391   11 15 11 15
               2395   11 15 11 15
               2399   11 15 11 15
               239D   11 15 11 15
    202        23A1   11 15 11 15          FCB $11,$15,$11,$15,$11,$15,$11,$15,$11,$15,$11,$15,$11,$15,$11,$15,$11,$15,$11,$15,$11,$15,$11,$15,$11,$15,$11,$15,$11,$15,$11,$15,$11,$15,$11,$15,$11,$15,$11,$15
               23A5   11 15 11 15
               23A9   11 15 11 15
               23AD   11 15 11 15
               23B1   11 15 11 15
               23B5   11 15 11 15
               23B9   11 15 11 15
               23BD   11 15 11 15
               23C1   11 15 11 15
               23C5   11 15 11 15
    203        23C9   11 15 11 15          FCB $11,$15,$11,$15,$11,$15,$11,$15,$11,$15,$11,$15,$11,$15,$11,$15,$11,$15,$11,$15,$11,$15,$11,$15,$11,$15,$11,$15,$11,$15,$11,$15,$11,$15,$11,$15,$11,$15,$11,$15
               23CD   11 15 11 15
               23D1   11 15 11 15
               23D5   11 15 11 15
               23D9   11 15 11 15
               23DD   11 15 11 15
               23E1   11 15 11 15
               23E5   11 15 11 15
               23E9   11 15 11 15
               23ED   11 15 11 15
    204        23F1   13 11 13 11          FCB $13,$11,$13,$11,$13,$11,$13,$11,$13,$11,$13,$11,$13,$11,$13,$11,$13,$11,$13,$11,$13,$11,$13,$11,$13,$11,$13,$11,$13,$11,$13,$11,$13,$11,$13,$11,$13,$11,$13,$11
               23F5   13 11 13 11
               23F9   13 11 13 11
               23FD   13 11 13 11
               2401   13 11 13 11
               2405   13 11 13 11
               2409   13 11 13 11
               240D   13 11 13 11
               2411   13 11 13 11
               2415   13 11 13 11
    205        2419   13 11 13 11          FCB $13,$11,$13,$11,$13,$11,$13,$11,$13,$11,$13,$11,$13,$11,$13,$11,$13,$11,$13,$11,$13,$11,$13,$11,$13,$11,$13,$11,$13,$11,$13,$11,$13,$11,$13,$11,$13,$11,$13,$11
               241D   13 11 13 11
               2421   13 11 13 11
               2425   13 11 13 11
               2429   13 11 13 11
               242D   13 11 13 11
               2431   13 11 13 11
               2435   13 11 13 11
               2439   13 11 13 11
               243D   13 11 13 11
    206        2441   13 11 13 11          FCB $13,$11,$13,$11,$13,$11,$13,$11,$13,$11,$13,$11,$13,$11,$13,$11,$13,$11,$13,$11,$11,$15,$11,$15,$11,$15,$11,$15,$11,$15,$11,$15,$11,$15,$11,$15,$11,$15,$11,$15
               2445   13 11 13 11
               2449   13 11 13 11
               244D   13 11 13 11
               2451   13 11 13 11
               2455   11 15 11 15
               2459   11 15 11 15
               245D   11 15 11 15
               2461   11 15 11 15
               2465   11 15 11 15
    207        2469   11 15 11 15          FCB $11,$15,$11,$15,$11,$15,$11,$15,$11,$15,$11,$15,$11,$15,$11,$15,$11,$15,$11,$15,$11,$15,$11,$15,$11,$15,$11,$15,$11,$15,$11,$15,$11,$15,$11,$15,$11,$15,$11,$15
               246D   11 15 11 15
               2471   11 15 11 15
               2475   11 15 11 15
               2479   11 15 11 15
               247D   11 15 11 15
               2481   11 15 11 15
               2485   11 15 11 15
               2489   11 15 11 15
               248D   11 15 11 15
    208        2491   11 15 11 15          FCB $11,$15,$11,$15,$11,$15,$11,$15,$11,$15,$11,$15,$11,$15,$11,$15,$11,$15,$11,$15,$11,$15,$11,$15,$11,$15,$11,$15,$11,$15,$11,$15,$11,$15,$11,$15,$11,$15,$11,$15
               2495   11 15 11 15
               2499   11 15 11 15
               249D   11 15 11 15
               24A1   11 15 11 15
               24A5   11 15 11 15
               24A9   11 15 11 15
               24AD   11 15 11 15
               24B1   11 15 11 15
               24B5   11 15 11 15
    209        24B9   13 11 13 11          FCB $13,$11,$13,$11,$13,$11,$13,$11,$13,$11,$13,$11,$13,$11,$13,$11,$13,$11,$13,$11,$13,$11,$13,$11,$13,$11,$13,$11,$13,$11,$13,$11,$13,$11,$13,$11,$13,$11,$13,$11
               24BD   13 11 13 11
               24C1   13 11 13 11
               24C5   13 11 13 11
               24C9   13 11 13 11
               24CD   13 11 13 11
               24D1   13 11 13 11
               24D5   13 11 13 11
               24D9   13 11 13 11
               24DD   13 11 13 11
    210        24E1   13 11 13 11          FCB $13,$11,$13,$11,$13,$11,$13,$11,$13,$11,$13,$11,$13,$11,$13,$11,$13,$11,$13,$11,$13,$11,$13,$11,$13,$11,$13,$11,$13,$11,$13,$11,$13,$11,$13,$11,$13,$11,$13,$11
               24E5   13 11 13 11
               24E9   13 11 13 11
               24ED   13 11 13 11
               24F1   13 11 13 11
               24F5   13 11 13 11
               24F9   13 11 13 11
               24FD   13 11 13 11
               2501   13 11 13 11
               2505   13 11 13 11
    211        2509   13 11 13 11          FCB $13,$11,$13,$11,$13,$11,$13,$11,$13,$11,$13,$11,$13,$11,$13,$11,$13,$11,$13,$11,$13,$11,$13,$11,$13,$11,$13,$11,$13,$11,$13,$11,$13,$11,$13,$11,$13,$11,$13,$11
               250D   13 11 13 11
               2511   13 11 13 11
               2515   13 11 13 11
               2519   13 11 13 11
               251D   13 11 13 11
               2521   13 11 13 11
               2525   13 11 13 11
               2529   13 11 13 11
               252D   13 11 13 11
    212        2531   13 11 13 11          FCB $13,$11,$13,$11,$13,$11,$13,$11,$13,$11,$13,$11,$13,$11,$13,$11,$13,$11,$13,$11,$13,$11,$13,$11,$13,$11,$13,$11,$13,$11,$13,$11,$13,$11,$13,$11,$13,$11,$13,$11
               2535   13 11 13 11
               2539   13 11 13 11
               253D   13 11 13 11
               2541   13 11 13 11
               2545   13 11 13 11
               2549   13 11 13 11
               254D   13 11 13 11
               2551   13 11 13 11
               2555   13 11 13 11
    213        2559   13 11 13 11          FCB $13,$11,$13,$11,$13,$11,$13,$11,$13,$11,$13,$11,$13,$11,$13,$11,$13,$11,$13,$11,$13,$11,$13,$11,$13,$11,$13,$11,$13,$11,$13,$11,$13,$11,$13,$11,$13,$11,$13,$11
               255D   13 11 13 11
               2561   13 11 13 11
               2565   13 11 13 11
               2569   13 11 13 11
               256D   13 11 13 11
               2571   13 11 13 11
               2575   13 11 13 11
               2579   13 11 13 11
               257D   13 11 13 11
    214        2581   17 13 17 13          FCB $17,$13,$17,$13,$17,$13,$17,$13,$17,$13,$17,$13,$17,$13,$17,$13,$17,$13,$17,$13,$17,$13,$17,$13,$17,$13,$17,$13,$17,$13,$17,$13,$17,$13,$17,$13,$17,$13,$17,$13
               2585   17 13 17 13
               2589   17 13 17 13
               258D   17 13 17 13
               2591   17 13 17 13
               2595   17 13 17 13
               2599   17 13 17 13
               259D   17 13 17 13
               25A1   17 13 17 13
               25A5   17 13 17 13
    215        25A9   17 13 17 13          FCB $17,$13,$17,$13,$17,$13,$17,$13,$17,$13,$17,$13,$17,$13,$17,$13,$17,$13,$17,$13,$17,$13,$17,$13,$17,$13,$17,$13,$17,$13,$17,$13,$17,$13,$17,$13,$17,$13,$17,$13
               25AD   17 13 17 13
               25B1   17 13 17 13
               25B5   17 13 17 13
               25B9   17 13 17 13
               25BD   17 13 17 13
               25C1   17 13 17 13
               25C5   17 13 17 13
               25C9   17 13 17 13
               25CD   17 13 17 13
    216        25D1   17 13 17 13          FCB $17,$13,$17,$13,$17,$13,$17,$13,$17,$13,$17,$13,$17,$13,$17,$13,$17,$13,$17,$13,$13,$11,$13,$11,$13,$11,$13,$11,$13,$11,$13,$11,$13,$11,$13,$11,$13,$11,$13,$11
               25D5   17 13 17 13
               25D9   17 13 17 13
               25DD   17 13 17 13
               25E1   17 13 17 13
               25E5   13 11 13 11
               25E9   13 11 13 11
               25ED   13 11 13 11
               25F1   13 11 13 11
               25F5   13 11 13 11
    217        25F9   13 11 13 11          FCB $13,$11,$13,$11,$13,$11,$13,$11,$13,$11,$13,$11,$13,$11,$13,$11,$13,$11,$13,$11,$13,$11,$13,$11,$13,$11,$13,$11,$13,$11,$13,$11,$13,$11,$13,$11,$13,$11,$13,$11
               25FD   13 11 13 11
               2601   13 11 13 11
               2605   13 11 13 11
               2609   13 11 13 11
               260D   13 11 13 11
               2611   13 11 13 11
               2615   13 11 13 11
               2619   13 11 13 11
               261D   13 11 13 11
    218        2621   13 11 13 11          FCB $13,$11,$13,$11,$13,$11,$13,$11,$13,$11,$13,$11,$13,$11,$13,$11,$13,$11,$13,$11,$13,$11,$13,$11,$13,$11,$13,$11,$13,$11,$13,$11,$13,$11,$13,$11,$13,$11,$13,$11
               2625   13 11 13 11
               2629   13 11 13 11
               262D   13 11 13 11
               2631   13 11 13 11
               2635   13 11 13 11
               2639   13 11 13 11
               263D   13 11 13 11
               2641   13 11 13 11
               2645   13 11 13 11
    219        2649   17 13 17 13          FCB $17,$13,$17,$13,$17,$13,$17,$13,$17,$13,$17,$13,$17,$13,$17,$13,$17,$13,$17,$13,$17,$13,$17,$13,$17,$13,$17,$13,$17,$13,$17,$13,$17,$13,$17,$13,$17,$13,$17,$13
               264D   17 13 17 13
               2651   17 13 17 13
               2655   17 13 17 13
               2659   17 13 17 13
               265D   17 13 17 13
               2661   17 13 17 13
               2665   17 13 17 13
               2669   17 13 17 13
               266D   17 13 17 13
    220        2671   17 13 17 13          FCB $17,$13,$17,$13,$17,$13,$17,$13,$17,$13,$17,$13,$17,$13,$17,$13,$17,$13,$17,$13,$17,$13,$17,$13,$17,$13,$17,$13,$17,$13,$17,$13,$17,$13,$17,$13,$17,$13,$17,$13
               2675   17 13 17 13
               2679   17 13 17 13
               267D   17 13 17 13
               2681   17 13 17 13
               2685   17 13 17 13
               2689   17 13 17 13
               268D   17 13 17 13
               2691   17 13 17 13
               2695   17 13 17 13
    221        2699   17 13 17 13          FCB $17,$13,$17,$13,$17,$13,$17,$13,$17,$13,$17,$13,$17,$13,$17,$13,$17,$13,$17,$13,$17,$13,$17,$13,$17,$13,$17,$13,$17,$13,$17,$13,$17,$13,$17,$13,$17,$13,$17,$13
               269D   17 13 17 13
               26A1   17 13 17 13
               26A5   17 13 17 13
               26A9   17 13 17 13
               26AD   17 13 17 13
               26B1   17 13 17 13
               26B5   17 13 17 13
               26B9   17 13 17 13
               26BD   17 13 17 13
    222        26C1   17 13 17 13          FCB $17,$13,$17,$13,$17,$13,$17,$13,$17,$13,$17,$13,$17,$13,$17,$13,$17,$13,$17,$13,$17,$13,$17,$13,$17,$13,$17,$13,$17,$13,$17,$13,$17,$13,$17,$13,$17,$13,$17,$13
               26C5   17 13 17 13
               26C9   17 13 17 13
               26CD   17 13 17 13
               26D1   17 13 17 13
               26D5   17 13 17 13
               26D9   17 13 17 13
               26DD   17 13 17 13
               26E1   17 13 17 13
               26E5   17 13 17 13
    223        26E9   17 13 17 13          FCB $17,$13,$17,$13,$17,$13,$17,$13,$17,$13,$17,$13,$17,$13,$17,$13,$17,$13,$17,$13,$17,$13,$17,$13,$17,$13,$17,$13,$17,$13,$17,$13,$17,$13,$17,$13,$17,$13,$17,$13
               26ED   17 13 17 13
               26F1   17 13 17 13
               26F5   17 13 17 13
               26F9   17 13 17 13
               26FD   17 13 17 13
               2701   17 13 17 13
               2705   17 13 17 13
               2709   17 13 17 13
               270D   17 13 17 13
    224        2711                    line_missile_x1
    225        2711   74 73 73 72          FCB $74,$73,$73,$72,$72,$71,$71,$70,$70,$6f,$6f,$6f,$6e,$6d,$6d,$6d,$6c,$6b,$6b,$6b,$6a,$69,$69,$69,$68,$68,$67,$67,$67,$66,$66,$65,$65,$64,$64,$63,$63,$62,$62,$61
               2715   72 71 71 70
               2719   70 6F 6F 6F
               271D   6E 6D 6D 6D
               2721   6C 6B 6B 6B
               2725   6A 69 69 69
               2729   68 68 67 67
               272D   67 66 66 65
               2731   65 64 64 63
               2735   63 62 62 61
    226        2739   61 61 60 5F          FCB $61,$61,$60,$5f,$5f,$5f,$5e,$5d,$5d,$5d,$5c,$5b,$5b,$5b,$5a,$5a,$5a,$59,$59,$58,$58,$57,$57,$56,$56,$55,$55,$54,$54,$53,$53,$53,$52,$51,$51,$51,$50,$4f,$4f,$4f
               273D   5F 5F 5E 5D
               2741   5D 5D 5C 5B
               2745   5B 5B 5A 5A
               2749   5A 59 59 58
               274D   58 57 57 56
               2751   56 55 55 54
               2755   54 53 53 53
               2759   52 51 51 51
               275D   50 4F 4F 4F
    227        2761   4E 4E 4D 4D          FCB $4e,$4e,$4d,$4d,$4c,$4c,$4c,$4b,$4b,$4a,$4a,$49,$49,$48,$48,$47,$47,$47,$46,$45,$7c,$7b,$7b,$7b,$7a,$7b,$7a,$79,$79,$79,$79,$79,$78,$78,$77,$77,$77,$77,$76,$77
               2765   4C 4C 4C 4B
               2769   4B 4A 4A 49
               276D   49 48 48 47
               2771   47 47 46 45
               2775   7C 7B 7B 7B
               2779   7A 7B 7A 79
               277D   79 79 79 79
               2781   78 78 77 77
               2785   77 77 76 77
    228        2789   76 75 75 75          FCB $76,$75,$75,$75,$74,$75,$74,$73,$73,$73,$73,$73,$72,$72,$71,$71,$71,$71,$70,$71,$70,$6f,$6f,$6f,$6e,$6f,$6e,$6d,$6d,$6d,$6d,$6d,$6c,$6b,$6b,$6b,$6b,$6b,$6a,$6b
               278D   74 75 74 73
               2791   73 73 73 73
               2795   72 72 71 71
               2799   71 71 70 71
               279D   70 6F 6F 6F
               27A1   6E 6F 6E 6D
               27A5   6D 6D 6D 6D
               27A9   6C 6B 6B 6B
               27AD   6B 6B 6A 6B
    229        27B1   69 69 69 69          FCB $69,$69,$69,$69,$68,$69,$68,$67,$67,$67,$66,$67,$66,$65,$65,$65,$65,$65,$64,$64,$63,$63,$63,$63,$62,$63,$62,$61,$61,$61,$60,$61,$60,$5f,$5f,$5f,$5f,$5f,$5e,$5e
               27B5   68 69 68 67
               27B9   67 67 66 67
               27BD   66 65 65 65
               27C1   65 65 64 64
               27C5   63 63 63 63
               27C9   62 63 62 61
               27CD   61 61 60 61
               27D1   60 5F 5F 5F
               27D5   5F 5F 5E 5E
    230        27D9   82 81 81 81          FCB $82,$81,$81,$81,$81,$81,$81,$81,$80,$81,$80,$80,$80,$80,$7f,$7f,$7f,$7f,$7f,$7f,$7e,$7e,$7e,$7e,$7e,$7d,$7d,$7d,$7d,$7d,$7d,$7d,$7c,$7d,$7c,$7c,$7c,$7b,$7b,$7b
               27DD   81 81 81 81
               27E1   80 81 80 80
               27E5   80 80 7F 7F
               27E9   7F 7F 7F 7F
               27ED   7E 7E 7E 7E
               27F1   7E 7D 7D 7D
               27F5   7D 7D 7D 7D
               27F9   7C 7D 7C 7C
               27FD   7C 7B 7B 7B
    231        2801   7B 7B 7B 7B          FCB $7b,$7b,$7b,$7b,$7a,$7a,$7a,$79,$7a,$79,$79,$79,$79,$79,$79,$79,$78,$78,$78,$78,$78,$77,$77,$77,$77,$77,$77,$77,$76,$77,$76,$76,$76,$75,$75,$75,$75,$75,$75,$75
               2805   7A 7A 7A 79
               2809   7A 79 79 79
               280D   79 79 79 79
               2811   78 78 78 78
               2815   78 77 77 77
               2819   77 77 77 77
               281D   76 77 76 76
               2821   76 75 75 75
               2825   75 75 75 75
    232        2829   74 74 74 73          FCB $74,$74,$74,$73,$74,$73,$73,$73,$73,$73,$73,$73,$72,$72,$72,$72,$72,$71,$71,$71,$90,$8f,$90,$8f,$90,$90,$90,$90,$90,$91,$91,$91,$91,$91,$91,$91,$91,$91,$91,$91
               282D   74 73 73 73
               2831   73 73 73 73
               2835   72 72 72 72
               2839   72 71 71 71
               283D   90 8F 90 8F
               2841   90 90 90 90
               2845   90 91 91 91
               2849   91 91 91 91
               284D   91 91 91 91
    233        2851   91 91 92 92          FCB $91,$91,$92,$92,$92,$92,$92,$92,$92,$92,$92,$92,$92,$93,$93,$93,$93,$93,$93,$93,$93,$93,$93,$93,$93,$93,$94,$94,$94,$94,$94,$94,$94,$95,$94,$95,$94,$95,$95,$95
               2855   92 92 92 92
               2859   92 92 92 92
               285D   92 93 93 93
               2861   93 93 93 93
               2865   93 93 93 93
               2869   93 93 94 94
               286D   94 94 94 94
               2871   94 95 94 95
               2875   94 95 95 95
    234        2879   95 95 95 95          FCB $95,$95,$95,$95,$95,$95,$95,$95,$96,$95,$96,$95,$96,$96,$96,$96,$96,$97,$96,$97,$97,$97,$97,$97,$97,$97,$97,$97,$97,$97,$97,$97,$98,$97,$98,$97,$98,$98,$98,$98
               287D   95 95 95 95
               2881   96 95 96 95
               2885   96 96 96 96
               2889   96 97 96 97
               288D   97 97 97 97
               2891   97 97 97 97
               2895   97 97 97 97
               2899   98 97 98 97
               289D   98 98 98 98
    235        28A1   96 95 96 96          FCB $96,$95,$96,$96,$96,$97,$97,$97,$97,$97,$98,$97,$98,$98,$99,$99,$99,$99,$99,$99,$9a,$99,$9a,$9b,$9b,$9b,$9b,$9b,$9b,$9b,$9c,$9c,$9c,$9d,$9d,$9d,$9d,$9d,$9e,$9d
               28A5   96 97 97 97
               28A9   97 97 98 97
               28AD   98 98 99 99
               28B1   99 99 99 99
               28B5   9A 99 9A 9B
               28B9   9B 9B 9B 9B
               28BD   9B 9B 9C 9C
               28C1   9C 9D 9D 9D
               28C5   9D 9D 9E 9D
    236        28C9   9E 9E 9E 9F          FCB $9e,$9e,$9e,$9f,$9f,$9f,$9f,$9f,$a0,$9f,$a0,$a0,$a0,$a1,$a1,$a1,$a1,$a1,$a2,$a1,$a2,$a2,$a2,$a3,$a3,$a3,$a3,$a3,$a4,$a3,$a4,$a4,$a5,$a5,$a5,$a5,$a5,$a5,$a6,$a5
               28CD   9F 9F 9F 9F
               28D1   A0 9F A0 A0
               28D5   A0 A1 A1 A1
               28D9   A1 A1 A2 A1
               28DD   A2 A2 A2 A3
               28E1   A3 A3 A3 A3
               28E5   A4 A3 A4 A4
               28E9   A5 A5 A5 A5
               28ED   A5 A5 A6 A5
    237        28F1   A6 A7 A7 A7          FCB $a6,$a7,$a7,$a7,$a7,$a7,$a7,$a7,$a8,$a8,$a8,$a9,$a9,$a9,$a9,$a9,$aa,$a9,$aa,$aa,$9e,$9d,$9f,$9f,$9f,$9f,$a0,$a0,$a1,$a1,$a2,$a1,$a2,$a2,$a3,$a3,$a4,$a3,$a5,$a4
               28F5   A7 A7 A7 A7
               28F9   A8 A8 A8 A9
               28FD   A9 A9 A9 A9
               2901   AA A9 AA AA
               2905   9E 9D 9F 9F
               2909   9F 9F A0 A0
               290D   A1 A1 A2 A1
               2911   A2 A2 A3 A3
               2915   A4 A3 A5 A4
    238        2919   A5 A5 A6 A5          FCB $a5,$a5,$a6,$a5,$a7,$a6,$a7,$a7,$a8,$a7,$a9,$a9,$aa,$a9,$aa,$a9,$ab,$ab,$ac,$ab,$ac,$ac,$ad,$ad,$ae,$ad,$af,$ae,$af,$af,$b0,$af,$b1,$b0,$b1,$b1,$b2,$b1,$b3,$b2
               291D   A7 A6 A7 A7
               2921   A8 A7 A9 A9
               2925   AA A9 AA A9
               2929   AB AB AC AB
               292D   AC AC AD AD
               2931   AE AD AF AE
               2935   AF AF B0 AF
               2939   B1 B0 B1 B1
               293D   B2 B1 B3 B2
    239        2941   B4 B3 B4 B4          FCB $b4,$b3,$b4,$b4,$b5,$b5,$b6,$b5,$b6,$b6,$b7,$b7,$b8,$b7,$b9,$b9,$b9,$b9,$ba,$b9,$bb,$bb,$bb,$bb,$bc,$bc,$bd,$bd,$be,$bd,$be,$be,$bf,$bf,$c0,$bf,$c0,$c0,$c1,$c1
               2945   B5 B5 B6 B5
               2949   B6 B6 B7 B7
               294D   B8 B7 B9 B9
               2951   B9 B9 BA B9
               2955   BB BB BB BB
               2959   BC BC BD BD
               295D   BE BD BE BE
               2961   BF BF C0 BF
               2965   C0 C0 C1 C1
    240        2969   A4 A4 A5 A5          FCB $a4,$a4,$a5,$a5,$a6,$a6,$a7,$a7,$a8,$a8,$a9,$a9,$aa,$aa,$ab,$ab,$ac,$ac,$ad,$ad,$ae,$ae,$af,$af,$b0,$b0,$b1,$b1,$b2,$b2,$b3,$b3,$b4,$b4,$b5,$b5,$b6,$b6,$b7,$b7
               296D   A6 A6 A7 A7
               2971   A8 A8 A9 A9
               2975   AA AA AB AB
               2979   AC AC AD AD
               297D   AE AE AF AF
               2981   B0 B0 B1 B1
               2985   B2 B2 B3 B3
               2989   B4 B4 B5 B5
               298D   B6 B6 B7 B7
    241        2991   B8 B8 B9 B9          FCB $b8,$b8,$b9,$b9,$ba,$bb,$bb,$bb,$bc,$bd,$bd,$bd,$bf,$bf,$c0,$bf,$c1,$c1,$c2,$c1,$c3,$c3,$c4,$c4,$c5,$c5,$c6,$c6,$c7,$c7,$c8,$c8,$c9,$c9,$ca,$ca,$cb,$cb,$cc,$cc
               2995   BA BB BB BB
               2999   BC BD BD BD
               299D   BF BF C0 BF
               29A1   C1 C1 C2 C1
               29A5   C3 C3 C4 C4
               29A9   C5 C5 C6 C6
               29AD   C7 C7 C8 C8
               29B1   C9 C9 CA CA
               29B5   CB CB CC CC
    242        29B9   CD CD CE CE          FCB $cd,$cd,$ce,$ce,$cf,$cf,$d0,$d0,$d1,$d1,$d2,$d2,$d3,$d3,$d4,$d4,$d5,$d5,$d6,$d6,$a4,$a4,$a5,$a5,$a6,$a6,$a7,$a7,$a8,$a8,$a9,$a9,$aa,$aa,$ab,$ab,$ac,$ac,$ad,$ad
               29BD   CF CF D0 D0
               29C1   D1 D1 D2 D2
               29C5   D3 D3 D4 D4
               29C9   D5 D5 D6 D6
               29CD   A4 A4 A5 A5
               29D1   A6 A6 A7 A7
               29D5   A8 A8 A9 A9
               29D9   AA AA AB AB
               29DD   AC AC AD AD
    243        29E1   AE AE AF AF          FCB $ae,$ae,$af,$af,$b0,$b0,$b1,$b1,$b2,$b2,$b3,$b3,$b4,$b4,$b5,$b5,$b6,$b6,$b7,$b7,$b8,$b8,$b9,$b9,$ba,$bb,$bb,$bb,$bc,$bd,$bd,$bd,$bf,$bf,$c0,$bf,$c1,$c1,$c2,$c1
               29E5   B0 B0 B1 B1
               29E9   B2 B2 B3 B3
               29ED   B4 B4 B5 B5
               29F1   B6 B6 B7 B7
               29F5   B8 B8 B9 B9
               29F9   BA BB BB BB
               29FD   BC BD BD BD
               2A01   BF BF C0 BF
               2A05   C1 C1 C2 C1
    244        2A09   C3 C3 C4 C4          FCB $c3,$c3,$c4,$c4,$c5,$c5,$c6,$c6,$c7,$c7,$c8,$c8,$c9,$c9,$ca,$ca,$cb,$cb,$cc,$cc,$cd,$cd,$ce,$ce,$cf,$cf,$d0,$d0,$d1,$d1,$d2,$d2,$d3,$d3,$d4,$d4,$d5,$d5,$d6,$d6
               2A0D   C5 C5 C6 C6
               2A11   C7 C7 C8 C8
               2A15   C9 C9 CA CA
               2A19   CB CB CC CC
               2A1D   CD CD CE CE
               2A21   CF CF D0 D0
               2A25   D1 D1 D2 D2
               2A29   D3 D3 D4 D4
               2A2D   D5 D5 D6 D6
    245        2A31   9E 9E 9E 9F          FCB $9e,$9e,$9e,$9f,$9f,$9f,$a0,$a0,$a1,$a1,$a1,$a1,$a2,$a2,$a3,$a3,$a3,$a3,$a4,$a5,$a5,$a5,$a6,$a6,$a6,$a7,$a7,$a7,$a8,$a8,$a8,$a9,$a9,$a9,$aa,$aa,$ab,$ab,$ab,$ab
               2A35   9F 9F A0 A0
               2A39   A1 A1 A1 A1
               2A3D   A2 A2 A3 A3
               2A41   A3 A3 A4 A5
               2A45   A5 A5 A6 A6
               2A49   A6 A7 A7 A7
               2A4D   A8 A8 A8 A9
               2A51   A9 A9 AA AA
               2A55   AB AB AB AB
    246        2A59   AC AC AD AD          FCB $ac,$ac,$ad,$ad,$ad,$ae,$ae,$af,$af,$af,$b0,$b0,$b0,$b1,$b1,$b1,$b2,$b3,$b2,$b3,$b3,$b3,$b4,$b5,$b5,$b5,$b5,$b6,$b6,$b7,$b7,$b7,$b7,$b8,$b8,$b9,$b9,$b9,$ba,$ba
               2A5D   AD AE AE AF
               2A61   AF AF B0 B0
               2A65   B0 B1 B1 B1
               2A69   B2 B3 B2 B3
               2A6D   B3 B3 B4 B5
               2A71   B5 B5 B5 B6
               2A75   B6 B7 B7 B7
               2A79   B7 B8 B8 B9
               2A7D   B9 B9 BA BA
    247        2A81   BA BB BB BB          FCB $ba,$bb,$bb,$bb,$bc,$bc,$bc,$bd,$bd,$bd,$be,$bf,$bf,$bf,$bf,$bf,$c0,$c1,$c1,$c1,$96,$95,$96,$96,$96,$97,$97,$97,$97,$97,$98,$97,$98,$98,$99,$99,$99,$99,$99,$99
               2A85   BC BC BC BD
               2A89   BD BD BE BF
               2A8D   BF BF BF BF
               2A91   C0 C1 C1 C1
               2A95   96 95 96 96
               2A99   96 97 97 97
               2A9D   97 97 98 97
               2AA1   98 98 99 99
               2AA5   99 99 99 99
    248        2AA9   9A 99 9A 9B          FCB $9a,$99,$9a,$9b,$9b,$9b,$9b,$9b,$9b,$9b,$9c,$9c,$9c,$9d,$9d,$9d,$9d,$9d,$9e,$9d,$9e,$9e,$9e,$9f,$9f,$9f,$9f,$9f,$a0,$9f,$a0,$a0,$a0,$a1,$a1,$a1,$a1,$a1,$a2,$a1
               2AAD   9B 9B 9B 9B
               2AB1   9B 9B 9C 9C
               2AB5   9C 9D 9D 9D
               2AB9   9D 9D 9E 9D
               2ABD   9E 9E 9E 9F
               2AC1   9F 9F 9F 9F
               2AC5   A0 9F A0 A0
               2AC9   A0 A1 A1 A1
               2ACD   A1 A1 A2 A1
    249        2AD1   A2 A2 A2 A3          FCB $a2,$a2,$a2,$a3,$a3,$a3,$a3,$a3,$a4,$a3,$a4,$a4,$a5,$a5,$a5,$a5,$a5,$a5,$a6,$a5,$a6,$a7,$a7,$a7,$a7,$a7,$a7,$a7,$a8,$a8,$a8,$a9,$a9,$a9,$a9,$a9,$aa,$a9,$aa,$aa
               2AD5   A3 A3 A3 A3
               2AD9   A4 A3 A4 A4
               2ADD   A5 A5 A5 A5
               2AE1   A5 A5 A6 A5
               2AE5   A6 A7 A7 A7
               2AE9   A7 A7 A7 A7
               2AED   A8 A8 A8 A9
               2AF1   A9 A9 A9 A9
               2AF5   AA A9 AA AA
    250        2AF9   8F 8F 8F 8F          FCB $8f,$8f,$8f,$8f,$90,$8f,$90,$90,$90,$90,$90,$90,$90,$91,$91,$91,$91,$91,$91,$91,$91,$91,$91,$91,$91,$91,$92,$91,$92,$91,$92,$92,$92,$92,$92,$92,$93,$93,$93,$93
               2AFD   90 8F 90 90
               2B01   90 90 90 90
               2B05   90 91 91 91
               2B09   91 91 91 91
               2B0D   91 91 91 91
               2B11   91 91 92 91
               2B15   92 91 92 92
               2B19   92 92 92 92
               2B1D   93 93 93 93
    251        2B21   93 93 93 93          FCB $93,$93,$93,$93,$93,$93,$93,$93,$94,$93,$94,$94,$94,$94,$94,$94,$94,$95,$95,$94,$95,$95,$95,$95,$95,$95,$95,$95,$95,$95,$96,$95,$96,$95,$96,$96,$96,$96,$96,$96
               2B25   93 93 93 93
               2B29   94 93 94 94
               2B2D   94 94 94 94
               2B31   94 95 95 94
               2B35   95 95 95 95
               2B39   95 95 95 95
               2B3D   95 95 96 95
               2B41   96 95 96 96
               2B45   96 96 96 96
    252        2B49   97 97 97 97          FCB $97,$97,$97,$97,$97,$97,$97,$97,$97,$97,$97,$97,$98,$97,$98,$98,$98,$98,$98,$98,$81,$81,$80,$81,$80,$80,$80,$7f,$7f,$7f,$7f,$7f,$7f,$7f,$7e,$7f,$7e,$7e,$7e,$7e
               2B4D   97 97 97 97
               2B51   97 97 97 97
               2B55   98 97 98 98
               2B59   98 98 98 98
               2B5D   81 81 80 81
               2B61   80 80 80 7F
               2B65   7F 7F 7F 7F
               2B69   7F 7F 7E 7F
               2B6D   7E 7E 7E 7E
    253        2B71   7D 7D 7D 7D          FCB $7d,$7d,$7d,$7d,$7d,$7d,$7c,$7d,$7c,$7d,$7c,$7c,$7b,$7b,$7b,$7b,$7b,$7b,$7a,$7b,$7a,$7b,$7a,$79,$79,$79,$79,$79,$79,$79,$78,$79,$78,$78,$78,$78,$77,$77,$77,$77
               2B75   7D 7D 7C 7D
               2B79   7C 7D 7C 7C
               2B7D   7B 7B 7B 7B
               2B81   7B 7B 7A 7B
               2B85   7A 7B 7A 79
               2B89   79 79 79 79
               2B8D   79 79 78 79
               2B91   78 78 78 78
               2B95   77 77 77 77
    254        2B99   77 77 76 77          FCB $77,$77,$76,$77,$76,$77,$76,$76,$75,$75,$75,$75,$75,$75,$74,$75,$74,$75,$74,$74,$73,$74,$73,$73,$73,$73,$73,$73,$72,$72,$72,$72,$72,$71,$71,$71,$71,$71,$71,$71
               2B9D   76 77 76 76
               2BA1   75 75 75 75
               2BA5   75 75 74 75
               2BA9   74 75 74 74
               2BAD   73 74 73 73
               2BB1   73 73 73 73
               2BB5   72 72 72 72
               2BB9   72 71 71 71
               2BBD   71 71 71 71
    255        2BC1   7B 7B 7A 7A          FCB $7b,$7b,$7a,$7a,$79,$79,$79,$79,$78,$79,$78,$77,$77,$77,$76,$77,$76,$75,$75,$75,$75,$75,$74,$74,$73,$73,$73,$73,$72,$73,$72,$71,$71,$71,$70,$71,$70,$6f,$6f,$6f
               2BC5   79 79 79 79
               2BC9   78 79 78 77
               2BCD   77 77 76 77
               2BD1   76 75 75 75
               2BD5   75 75 74 74
               2BD9   73 73 73 73
               2BDD   72 73 72 71
               2BE1   71 71 70 71
               2BE5   70 6F 6F 6F
    256        2BE9   6F 6F 6E 6D          FCB $6f,$6f,$6e,$6d,$6d,$6d,$6d,$6d,$6c,$6d,$6b,$6b,$6b,$6b,$6a,$6b,$6a,$69,$69,$69,$68,$69,$68,$67,$67,$67,$67,$67,$66,$66,$65,$65,$65,$65,$64,$65,$64,$63,$63,$63
               2BED   6D 6D 6D 6D
               2BF1   6C 6D 6B 6B
               2BF5   6B 6B 6A 6B
               2BF9   6A 69 69 69
               2BFD   68 69 68 67
               2C01   67 67 67 67
               2C05   66 66 65 65
               2C09   65 65 64 65
               2C0D   64 63 63 63
    257        2C11   62 63 62 61          FCB $62,$63,$62,$61,$61,$61,$61,$61,$60,$60,$5f,$5f,$5f,$5f,$5e,$5f,$5e,$5d,$5d,$5d,$72,$73,$72,$73,$71,$71,$70,$70,$6f,$6f,$6e,$6f,$6d,$6d,$6c,$6d,$6b,$6b,$6a,$6b
               2C15   61 61 61 61
               2C19   60 60 5F 5F
               2C1D   5F 5F 5E 5F
               2C21   5E 5D 5D 5D
               2C25   72 73 72 73
               2C29   71 71 70 70
               2C2D   6F 6F 6E 6F
               2C31   6D 6D 6C 6D
               2C35   6B 6B 6A 6B
    258        2C39   69 69 68 69          FCB $69,$69,$68,$69,$67,$68,$66,$67,$65,$66,$65,$65,$64,$65,$63,$63,$62,$62,$61,$61,$60,$61,$5f,$5f,$5e,$5f,$5d,$5d,$5c,$5d,$5b,$5c,$5a,$5b,$59,$5a,$58,$59,$57,$58
               2C3D   67 68 66 67
               2C41   65 66 65 65
               2C45   64 65 63 63
               2C49   62 62 61 61
               2C4D   60 61 5F 5F
               2C51   5E 5F 5D 5D
               2C55   5C 5D 5B 5C
               2C59   5A 5B 59 5A
               2C5D   58 59 57 58
    259        2C61   57 57 56 56          FCB $57,$57,$56,$56,$55,$55,$54,$54,$53,$53,$52,$53,$51,$51,$50,$51,$4f,$4f,$4e,$4f,$4d,$4e,$4c,$4d,$4b,$4c,$4a,$4b,$49,$4b,$49,$49,$48,$48,$47,$47,$46,$47,$45,$45
               2C65   55 55 54 54
               2C69   53 53 52 53
               2C6D   51 51 50 51
               2C71   4F 4F 4E 4F
               2C75   4D 4E 4C 4D
               2C79   4B 4C 4A 4B
               2C7D   49 4B 49 49
               2C81   48 48 47 47
               2C85   46 47 45 45
    260        2C89   6D 6D 6C 6C          FCB $6d,$6d,$6c,$6c,$6a,$6a,$69,$69,$68,$68,$67,$67,$65,$65,$64,$64,$63,$63,$62,$62,$60,$60,$5f,$5f,$5e,$5e,$5d,$5d,$5b,$5b,$5a,$5a,$59,$59,$58,$58,$56,$56,$55,$55
               2C8D   6A 6A 69 69
               2C91   68 68 67 67
               2C95   65 65 64 64
               2C99   63 63 62 62
               2C9D   60 60 5F 5F
               2CA1   5E 5E 5D 5D
               2CA5   5B 5B 5A 5A
               2CA9   59 59 58 58
               2CAD   56 56 55 55
    261        2CB1   54 54 53 53          FCB $54,$54,$53,$53,$51,$51,$50,$50,$4f,$4f,$4d,$4d,$4c,$4c,$4b,$4b,$4a,$4a,$48,$48,$47,$47,$46,$46,$45,$45,$43,$43,$42,$42,$41,$41,$40,$40,$3e,$3e,$3d,$3d,$3c,$3c
               2CB5   51 51 50 50
               2CB9   4F 4F 4D 4D
               2CBD   4C 4C 4B 4B
               2CC1   4A 4A 48 48
               2CC5   47 47 46 46
               2CC9   45 45 43 43
               2CCD   42 42 41 41
               2CD1   40 40 3E 3E
               2CD5   3D 3D 3C 3C
    262        2CD9   3B 3B 39 39          FCB $3b,$3b,$39,$39,$38,$38,$37,$37,$36,$36,$34,$34,$33,$33,$32,$32,$31,$31,$2f,$2f,$6d,$6d,$6c,$6c,$6a,$6a,$69,$69,$68,$68,$67,$67,$65,$65,$64,$64,$63,$63,$62,$62
               2CDD   38 38 37 37
               2CE1   36 36 34 34
               2CE5   33 33 32 32
               2CE9   31 31 2F 2F
               2CED   6D 6D 6C 6C
               2CF1   6A 6A 69 69
               2CF5   68 68 67 67
               2CF9   65 65 64 64
               2CFD   63 63 62 62
    263        2D01   60 60 5F 5F          FCB $60,$60,$5f,$5f,$5e,$5e,$5d,$5d,$5b,$5b,$5a,$5a,$59,$59,$58,$58,$56,$56,$55,$55,$54,$54,$53,$53,$51,$51,$50,$50,$4f,$4f,$4d,$4d,$4c,$4c,$4b,$4b,$4a,$4a,$48,$48
               2D05   5E 5E 5D 5D
               2D09   5B 5B 5A 5A
               2D0D   59 59 58 58
               2D11   56 56 55 55
               2D15   54 54 53 53
               2D19   51 51 50 50
               2D1D   4F 4F 4D 4D
               2D21   4C 4C 4B 4B
               2D25   4A 4A 48 48
    264        2D29   47 47 46 46          FCB $47,$47,$46,$46,$45,$45,$43,$43,$42,$42,$41,$41,$40,$40,$3e,$3e,$3d,$3d,$3c,$3c,$3b,$3b,$39,$39,$38,$38,$37,$37,$36,$36,$34,$34,$33,$33,$32,$32,$31,$31,$2f,$2f
               2D2D   45 45 43 43
               2D31   42 42 41 41
               2D35   40 40 3E 3E
               2D39   3D 3D 3C 3C
               2D3D   3B 3B 39 39
               2D41   38 38 37 37
               2D45   36 36 34 34
               2D49   33 33 32 32
               2D4D   31 31 2F 2F
    265        2D51                    line_missile_y1
    266        2D51   7D 7D 7C 7D          FCB $7d,$7d,$7c,$7d,$7b,$7b,$7a,$7b,$7a,$79,$79,$79,$78,$77,$77,$77,$76,$76,$75,$75,$74,$74,$73,$73,$72,$72,$71,$71,$70,$71,$6f,$6f,$6e,$6f,$6d,$6d,$6d,$6d,$6c,$6b
               2D55   7B 7B 7A 7B
               2D59   7A 79 79 79
               2D5D   78 77 77 77
               2D61   76 76 75 75
               2D65   74 74 73 73
               2D69   72 72 71 71
               2D6D   70 71 6F 6F
               2D71   6E 6F 6D 6D
               2D75   6D 6D 6C 6B
    267        2D79   6B 6B 6A 69          FCB $6b,$6b,$6a,$69,$69,$69,$68,$68,$67,$67,$66,$66,$65,$65,$64,$64,$63,$63,$62,$63,$61,$61,$60,$61,$5f,$5f,$5f,$5f,$5e,$5d,$5d,$5d,$5c,$5b,$5b,$5b,$5a,$5a,$59,$59
               2D7D   69 69 68 68
               2D81   67 67 66 66
               2D85   65 65 64 64
               2D89   63 63 62 63
               2D8D   61 61 60 61
               2D91   5F 5F 5F 5F
               2D95   5E 5D 5D 5D
               2D99   5C 5B 5B 5B
               2D9D   5A 5A 59 59
    268        2DA1   58 58 57 57          FCB $58,$58,$57,$57,$56,$56,$55,$55,$54,$55,$53,$53,$52,$53,$52,$51,$51,$51,$50,$4f,$76,$76,$75,$75,$74,$73,$73,$73,$71,$71,$70,$70,$6f,$6f,$6e,$6d,$6d,$6d,$6c,$6b
               2DA5   56 56 55 55
               2DA9   54 55 53 53
               2DAD   52 53 52 51
               2DB1   51 51 50 4F
               2DB5   76 76 75 75
               2DB9   74 73 73 73
               2DBD   71 71 70 70
               2DC1   6F 6F 6E 6D
               2DC5   6D 6D 6C 6B
    269        2DC9   6A 6A 69 69          FCB $6a,$6a,$69,$69,$68,$67,$67,$67,$66,$66,$65,$65,$63,$63,$62,$63,$61,$61,$60,$60,$5f,$5f,$5e,$5d,$5d,$5d,$5b,$5b,$5a,$5a,$59,$59,$58,$57,$57,$57,$56,$55,$54,$55
               2DCD   68 67 67 67
               2DD1   66 66 65 65
               2DD5   63 63 62 63
               2DD9   61 61 60 60
               2DDD   5F 5F 5E 5D
               2DE1   5D 5D 5B 5B
               2DE5   5A 5A 59 59
               2DE9   58 57 57 57
               2DED   56 55 54 55
    270        2DF1   53 53 52 52          FCB $53,$53,$52,$52,$51,$51,$50,$4f,$4f,$4f,$4e,$4d,$4c,$4c,$4b,$4b,$4a,$4a,$49,$49,$48,$47,$47,$46,$45,$45,$44,$45,$43,$43,$42,$42,$41,$41,$40,$3f,$3f,$3f,$3d,$3d
               2DF5   51 51 50 4F
               2DF9   4F 4F 4E 4D
               2DFD   4C 4C 4B 4B
               2E01   4A 4A 49 49
               2E05   48 47 47 46
               2E09   45 45 44 45
               2E0D   43 43 42 42
               2E11   41 41 40 3F
               2E15   3F 3F 3D 3D
    271        2E19   70 71 6F 6F          FCB $70,$71,$6f,$6f,$6e,$6d,$6c,$6d,$6b,$6b,$6a,$69,$68,$69,$67,$67,$65,$65,$64,$65,$63,$63,$61,$61,$60,$5f,$5f,$5f,$5d,$5d,$5c,$5b,$5a,$5b,$59,$59,$58,$57,$56,$57
               2E1D   6E 6D 6C 6D
               2E21   6B 6B 6A 69
               2E25   68 69 67 67
               2E29   65 65 64 65
               2E2D   63 63 61 61
               2E31   60 5F 5F 5F
               2E35   5D 5D 5C 5B
               2E39   5A 5B 59 59
               2E3D   58 57 56 57
    272        2E41   55 55 54 53          FCB $55,$55,$54,$53,$52,$53,$51,$51,$4f,$4f,$4e,$4e,$4d,$4d,$4b,$4b,$4a,$49,$48,$49,$47,$47,$46,$45,$44,$45,$43,$43,$42,$41,$40,$41,$3f,$3f,$3d,$3d,$3c,$3d,$3b,$3b
               2E45   52 53 51 51
               2E49   4F 4F 4E 4E
               2E4D   4D 4D 4B 4B
               2E51   4A 49 48 49
               2E55   47 47 46 45
               2E59   44 45 43 43
               2E5D   42 41 40 41
               2E61   3F 3F 3D 3D
               2E65   3C 3D 3B 3B
    273        2E69   39 39 38 37          FCB $39,$39,$38,$37,$37,$37,$35,$35,$34,$33,$32,$33,$31,$31,$30,$2f,$2e,$2f,$2d,$2d,$70,$71,$6f,$6f,$6e,$6d,$6c,$6d,$6b,$6b,$6a,$69,$68,$69,$67,$67,$65,$65,$64,$65
               2E6D   37 37 35 35
               2E71   34 33 32 33
               2E75   31 31 30 2F
               2E79   2E 2F 2D 2D
               2E7D   70 71 6F 6F
               2E81   6E 6D 6C 6D
               2E85   6B 6B 6A 69
               2E89   68 69 67 67
               2E8D   65 65 64 65
    274        2E91   63 63 61 61          FCB $63,$63,$61,$61,$60,$5f,$5f,$5f,$5d,$5d,$5c,$5b,$5a,$5b,$59,$59,$58,$57,$56,$57,$55,$55,$54,$53,$52,$53,$51,$51,$4f,$4f,$4e,$4e,$4d,$4d,$4b,$4b,$4a,$49,$48,$49
               2E95   60 5F 5F 5F
               2E99   5D 5D 5C 5B
               2E9D   5A 5B 59 59
               2EA1   58 57 56 57
               2EA5   55 55 54 53
               2EA9   52 53 51 51
               2EAD   4F 4F 4E 4E
               2EB1   4D 4D 4B 4B
               2EB5   4A 49 48 49
    275        2EB9   47 47 46 45          FCB $47,$47,$46,$45,$44,$45,$43,$43,$42,$41,$40,$41,$3f,$3f,$3d,$3d,$3c,$3d,$3b,$3b,$39,$39,$38,$37,$37,$37,$35,$35,$34,$33,$32,$33,$31,$31,$30,$2f,$2e,$2f,$2d,$2d
               2EBD   44 45 43 43
               2EC1   42 41 40 41
               2EC5   3F 3F 3D 3D
               2EC9   3C 3D 3B 3B
               2ECD   39 39 38 37
               2ED1   37 37 35 35
               2ED5   34 33 32 33
               2ED9   31 31 30 2F
               2EDD   2E 2F 2D 2D
    276        2EE1   77 77 76 76          FCB $77,$77,$76,$76,$74,$75,$73,$73,$72,$72,$71,$71,$70,$70,$6f,$6f,$6e,$6e,$6c,$6d,$6b,$6b,$6a,$6b,$69,$69,$68,$68,$67,$67,$65,$65,$64,$65,$63,$63,$62,$62,$61,$61
               2EE5   74 75 73 73
               2EE9   72 72 71 71
               2EED   70 70 6F 6F
               2EF1   6E 6E 6C 6D
               2EF5   6B 6B 6A 6B
               2EF9   69 69 68 68
               2EFD   67 67 65 65
               2F01   64 65 63 63
               2F05   62 62 61 61
    277        2F09   60 5F 5F 5F          FCB $60,$5f,$5f,$5f,$5d,$5e,$5c,$5d,$5b,$5b,$5a,$5a,$59,$59,$58,$58,$56,$57,$55,$55,$54,$55,$53,$53,$52,$52,$51,$51,$4f,$4f,$4e,$4f,$4d,$4d,$4c,$4d,$4b,$4b,$4a,$4a
               2F0D   5D 5E 5C 5D
               2F11   5B 5B 5A 5A
               2F15   59 59 58 58
               2F19   56 57 55 55
               2F1D   54 55 53 53
               2F21   52 52 51 51
               2F25   4F 4F 4E 4F
               2F29   4D 4D 4C 4D
               2F2D   4B 4B 4A 4A
    278        2F31   49 49 47 47          FCB $49,$49,$47,$47,$46,$47,$45,$45,$44,$44,$43,$43,$42,$42,$40,$41,$3f,$3f,$3e,$3e,$7f,$7f,$7e,$7f,$7d,$7d,$7c,$7d,$7c,$7b,$7b,$7b,$7a,$79,$79,$79,$78,$78,$77,$77
               2F35   46 47 45 45
               2F39   44 44 43 43
               2F3D   42 42 40 41
               2F41   3F 3F 3E 3E
               2F45   7F 7F 7E 7F
               2F49   7D 7D 7C 7D
               2F4D   7C 7B 7B 7B
               2F51   7A 79 79 79
               2F55   78 78 77 77
    279        2F59   76 76 75 75          FCB $76,$76,$75,$75,$74,$74,$73,$73,$72,$73,$71,$71,$70,$71,$6f,$6f,$6f,$6f,$6e,$6d,$6d,$6d,$6c,$6b,$6b,$6b,$6a,$6a,$69,$69,$68,$68,$67,$67,$66,$66,$65,$65,$64,$65
               2F5D   74 74 73 73
               2F61   72 73 71 71
               2F65   70 71 6F 6F
               2F69   6F 6F 6E 6D
               2F6D   6D 6D 6C 6B
               2F71   6B 6B 6A 6A
               2F75   69 69 68 68
               2F79   67 67 66 66
               2F7D   65 65 64 65
    280        2F81   63 63 62 63          FCB $63,$63,$62,$63,$61,$61,$61,$61,$60,$5f,$5f,$5f,$5e,$5d,$5d,$5d,$5c,$5c,$5b,$5b,$5a,$5a,$59,$59,$58,$58,$57,$57,$56,$57,$55,$55,$54,$55,$54,$53,$53,$53,$52,$51
               2F85   61 61 61 61
               2F89   60 5F 5F 5F
               2F8D   5E 5D 5D 5D
               2F91   5C 5C 5B 5B
               2F95   5A 5A 59 59
               2F99   58 58 57 57
               2F9D   56 57 55 55
               2FA1   54 55 54 53
               2FA5   53 53 52 51
    281        2FA9   85 85 84 84          FCB $85,$85,$84,$84,$83,$83,$83,$83,$82,$82,$82,$81,$81,$81,$80,$80,$80,$7f,$7f,$7f,$7e,$7e,$7e,$7d,$7d,$7d,$7d,$7c,$7c,$7b,$7b,$7b,$7b,$7b,$7a,$79,$79,$79,$79,$79
               2FAD   83 83 83 83
               2FB1   82 82 82 81
               2FB5   81 81 80 80
               2FB9   80 7F 7F 7F
               2FBD   7E 7E 7E 7D
               2FC1   7D 7D 7D 7C
               2FC5   7C 7B 7B 7B
               2FC9   7B 7B 7A 79
               2FCD   79 79 79 79
    282        2FD1   78 77 77 77          FCB $78,$77,$77,$77,$77,$77,$76,$75,$76,$75,$75,$75,$74,$73,$74,$73,$73,$73,$72,$72,$72,$71,$71,$71,$71,$71,$70,$6f,$6f,$6f,$6f,$6f,$6e,$6d,$6d,$6d,$6d,$6d,$6c,$6b
               2FD5   77 77 76 75
               2FD9   76 75 75 75
               2FDD   74 73 74 73
               2FE1   73 73 72 72
               2FE5   72 71 71 71
               2FE9   71 71 70 6F
               2FED   6F 6F 6F 6F
               2FF1   6E 6D 6D 6D
               2FF5   6D 6D 6C 6B
    283        2FF9   6C 6B 6B 6B          FCB $6c,$6b,$6b,$6b,$6a,$69,$6a,$69,$69,$69,$68,$68,$68,$67,$67,$67,$66,$66,$66,$65,$92,$91,$92,$91,$92,$91,$92,$91,$91,$91,$91,$91,$91,$91,$91,$91,$91,$91,$91,$91
               2FFD   6A 69 6A 69
               3001   69 69 68 68
               3005   68 67 67 67
               3009   66 66 66 65
               300D   92 91 92 91
               3011   92 91 92 91
               3015   91 91 91 91
               3019   91 91 91 91
               301D   91 91 91 91
    284        3021   91 91 91 91          FCB $91,$91,$91,$91,$91,$91,$91,$91,$91,$91,$91,$91,$91,$91,$91,$91,$91,$91,$91,$91,$91,$91,$91,$91,$91,$91,$91,$91,$91,$91,$91,$91,$91,$91,$91,$91,$91,$91,$91,$91
               3025   91 91 91 91
               3029   91 91 91 91
               302D   91 91 91 91
               3031   91 91 91 91
               3035   91 91 91 91
               3039   91 91 91 91
               303D   91 91 91 91
               3041   91 91 91 91
               3045   91 91 91 91
    285        3049   91 91 91 91          FCB $91,$91,$91,$91,$91,$91,$91,$91,$91,$90,$91,$91,$91,$91,$91,$90,$91,$90,$91,$91,$91,$90,$91,$90,$91,$91,$90,$90,$90,$90,$90,$90,$90,$90,$90,$90,$90,$90,$90,$90
               304D   91 91 91 91
               3051   91 90 91 91
               3055   91 91 91 90
               3059   91 90 91 91
               305D   91 90 91 90
               3061   91 91 90 90
               3065   90 90 90 90
               3069   90 90 90 90
               306D   90 90 90 90
    286        3071   97 97 97 97          FCB $97,$97,$97,$97,$98,$98,$98,$98,$98,$98,$98,$99,$99,$99,$99,$99,$99,$99,$9a,$99,$9a,$9a,$9a,$9a,$9a,$9b,$9b,$9b,$9b,$9b,$9b,$9b,$9c,$9b,$9c,$9c,$9c,$9c,$9c,$9c
               3075   98 98 98 98
               3079   98 98 98 99
               307D   99 99 99 99
               3081   99 99 9A 99
               3085   9A 9A 9A 9A
               3089   9A 9B 9B 9B
               308D   9B 9B 9B 9B
               3091   9C 9B 9C 9C
               3095   9C 9C 9C 9C
    287        3099   9D 9D 9D 9D          FCB $9d,$9d,$9d,$9d,$9d,$9d,$9d,$9d,$9e,$9e,$9e,$9e,$9e,$9e,$9f,$9f,$9f,$9f,$9f,$9f,$9f,$9f,$a0,$a0,$a0,$a0,$a0,$a0,$a0,$a1,$a1,$a1,$a1,$a1,$a1,$a1,$a2,$a1,$a2,$a2
               309D   9D 9D 9D 9D
               30A1   9E 9E 9E 9E
               30A5   9E 9E 9F 9F
               30A9   9F 9F 9F 9F
               30AD   9F 9F A0 A0
               30B1   A0 A0 A0 A0
               30B5   A0 A1 A1 A1
               30B9   A1 A1 A1 A1
               30BD   A2 A1 A2 A2
    288        30C1   A2 A2 A2 A3          FCB $a2,$a2,$a2,$a3,$a3,$a3,$a3,$a3,$a3,$a3,$a4,$a3,$a4,$a4,$a4,$a4,$a4,$a4,$a5,$a5,$a0,$a1,$a1,$a1,$a1,$a1,$a2,$a2,$a3,$a3,$a3,$a3,$a4,$a3,$a4,$a4,$a5,$a5,$a5,$a5
               30C5   A3 A3 A3 A3
               30C9   A3 A3 A4 A3
               30CD   A4 A4 A4 A4
               30D1   A4 A4 A5 A5
               30D5   A0 A1 A1 A1
               30D9   A1 A1 A2 A2
               30DD   A3 A3 A3 A3
               30E1   A4 A3 A4 A4
               30E5   A5 A5 A5 A5
    289        30E9   A6 A5 A6 A6          FCB $a6,$a5,$a6,$a6,$a7,$a7,$a7,$a7,$a8,$a7,$a8,$a8,$a9,$a9,$a9,$a9,$aa,$a9,$aa,$aa,$ab,$ab,$ab,$ab,$ac,$ab,$ac,$ad,$ad,$ad,$ad,$ad,$ae,$ad,$ae,$af,$af,$af,$af,$af
               30ED   A7 A7 A7 A7
               30F1   A8 A7 A8 A8
               30F5   A9 A9 A9 A9
               30F9   AA A9 AA AA
               30FD   AB AB AB AB
               3101   AC AB AC AD
               3105   AD AD AD AD
               3109   AE AD AE AF
               310D   AF AF AF AF
    290        3111   B0 AF B0 B1          FCB $b0,$af,$b0,$b1,$b1,$b1,$b1,$b1,$b2,$b2,$b2,$b3,$b3,$b3,$b3,$b3,$b4,$b4,$b4,$b5,$b5,$b5,$b5,$b5,$b6,$b6,$b6,$b7,$b7,$b7,$b7,$b7,$b8,$b8,$b8,$b9,$b9,$b9,$b9,$b9
               3115   B1 B1 B1 B1
               3119   B2 B2 B2 B3
               311D   B3 B3 B3 B3
               3121   B4 B4 B4 B5
               3125   B5 B5 B5 B5
               3129   B6 B6 B6 B7
               312D   B7 B7 B7 B7
               3131   B8 B8 B8 B9
               3135   B9 B9 B9 B9
    291        3139   A8 A8 A9 A9          FCB $a8,$a8,$a9,$a9,$a9,$a9,$aa,$aa,$ab,$ab,$ac,$ac,$ac,$ac,$ad,$ad,$ae,$ae,$af,$af,$af,$af,$b0,$b0,$b1,$b1,$b2,$b2,$b2,$b2,$b3,$b3,$b4,$b4,$b5,$b5,$b5,$b5,$b6,$b6
               313D   A9 A9 AA AA
               3141   AB AB AC AC
               3145   AC AC AD AD
               3149   AE AE AF AF
               314D   AF AF B0 B0
               3151   B1 B1 B2 B2
               3155   B2 B2 B3 B3
               3159   B4 B4 B5 B5
               315D   B5 B5 B6 B6
    292        3161   B7 B7 B8 B8          FCB $b7,$b7,$b8,$b8,$b8,$b8,$b9,$b9,$ba,$ba,$bb,$bb,$bb,$bb,$bc,$bc,$bd,$bd,$bd,$bd,$be,$be,$bf,$bf,$c0,$c0,$c0,$c0,$c1,$c1,$c2,$c2,$c3,$c3,$c3,$c3,$c4,$c4,$c5,$c5
               3165   B8 B8 B9 B9
               3169   BA BA BB BB
               316D   BB BB BC BC
               3171   BD BD BD BD
               3175   BE BE BF BF
               3179   C0 C0 C0 C0
               317D   C1 C1 C2 C2
               3181   C3 C3 C3 C3
               3185   C4 C4 C5 C5
    293        3189   C6 C6 C6 C6          FCB $c6,$c6,$c6,$c6,$c7,$c7,$c8,$c8,$c9,$c9,$c9,$c9,$ca,$ca,$cb,$cb,$cc,$cc,$cc,$cc,$a8,$a8,$a9,$a9,$a9,$a9,$aa,$aa,$ab,$ab,$ac,$ac,$ac,$ac,$ad,$ad,$ae,$ae,$af,$af
               318D   C7 C7 C8 C8
               3191   C9 C9 C9 C9
               3195   CA CA CB CB
               3199   CC CC CC CC
               319D   A8 A8 A9 A9
               31A1   A9 A9 AA AA
               31A5   AB AB AC AC
               31A9   AC AC AD AD
               31AD   AE AE AF AF
    294        31B1   AF AF B0 B0          FCB $af,$af,$b0,$b0,$b1,$b1,$b2,$b2,$b2,$b2,$b3,$b3,$b4,$b4,$b5,$b5,$b5,$b5,$b6,$b6,$b7,$b7,$b8,$b8,$b8,$b8,$b9,$b9,$ba,$ba,$bb,$bb,$bb,$bb,$bc,$bc,$bd,$bd,$bd,$bd
               31B5   B1 B1 B2 B2
               31B9   B2 B2 B3 B3
               31BD   B4 B4 B5 B5
               31C1   B5 B5 B6 B6
               31C5   B7 B7 B8 B8
               31C9   B8 B8 B9 B9
               31CD   BA BA BB BB
               31D1   BB BB BC BC
               31D5   BD BD BD BD
    295        31D9   BE BE BF BF          FCB $be,$be,$bf,$bf,$c0,$c0,$c0,$c0,$c1,$c1,$c2,$c2,$c3,$c3,$c3,$c3,$c4,$c4,$c5,$c5,$c6,$c6,$c6,$c6,$c7,$c7,$c8,$c8,$c9,$c9,$c9,$c9,$ca,$ca,$cb,$cb,$cc,$cc,$cc,$cc
               31DD   C0 C0 C0 C0
               31E1   C1 C1 C2 C2
               31E5   C3 C3 C3 C3
               31E9   C4 C4 C5 C5
               31ED   C6 C6 C6 C6
               31F1   C7 C7 C8 C8
               31F5   C9 C9 C9 C9
               31F9   CA CA CB CB
               31FD   CC CC CC CC
    296        3201   A0 A0 A1 A1          FCB $a0,$a0,$a1,$a1,$a1,$a1,$a2,$a1,$a2,$a2,$a3,$a3,$a3,$a3,$a4,$a3,$a4,$a4,$a5,$a5,$a5,$a5,$a6,$a5,$a6,$a7,$a7,$a7,$a7,$a7,$a8,$a7,$a8,$a9,$a9,$a9,$a9,$a9,$aa,$aa
               3205   A1 A1 A2 A1
               3209   A2 A2 A3 A3
               320D   A3 A3 A4 A3
               3211   A4 A4 A5 A5
               3215   A5 A5 A6 A5
               3219   A6 A7 A7 A7
               321D   A7 A7 A8 A7
               3221   A8 A9 A9 A9
               3225   A9 A9 AA AA
    297        3229   AB AB AB AB          FCB $ab,$ab,$ab,$ab,$ac,$ab,$ac,$ac,$ad,$ad,$ad,$ad,$ae,$ad,$ae,$ae,$af,$af,$af,$af,$b0,$af,$b0,$b0,$b1,$b1,$b1,$b1,$b2,$b1,$b2,$b2,$b3,$b3,$b3,$b3,$b4,$b3,$b4,$b4
               322D   AC AB AC AC
               3231   AD AD AD AD
               3235   AE AD AE AE
               3239   AF AF AF AF
               323D   B0 AF B0 B0
               3241   B1 B1 B1 B1
               3245   B2 B1 B2 B2
               3249   B3 B3 B3 B3
               324D   B4 B3 B4 B4
    298        3251   B5 B5 B5 B5          FCB $b5,$b5,$b5,$b5,$b6,$b5,$b6,$b7,$b7,$b7,$b7,$b7,$b8,$b7,$b8,$b9,$b9,$b9,$ba,$b9,$96,$96,$96,$97,$97,$97,$97,$97,$97,$97,$98,$97,$98,$98,$98,$98,$99,$99,$99,$99
               3255   B6 B5 B6 B7
               3259   B7 B7 B7 B7
               325D   B8 B7 B8 B9
               3261   B9 B9 BA B9
               3265   96 96 96 97
               3269   97 97 97 97
               326D   97 97 98 97
               3271   98 98 98 98
               3275   99 99 99 99
    299        3279   99 99 99 99          FCB $99,$99,$99,$99,$9a,$9a,$9a,$9a,$9a,$9a,$9b,$9b,$9b,$9b,$9b,$9b,$9b,$9b,$9c,$9c,$9c,$9c,$9c,$9c,$9d,$9d,$9d,$9d,$9d,$9d,$9d,$9d,$9e,$9e,$9e,$9e,$9e,$9f,$9f,$9f
               327D   9A 9A 9A 9A
               3281   9A 9A 9B 9B
               3285   9B 9B 9B 9B
               3289   9B 9B 9C 9C
               328D   9C 9C 9C 9C
               3291   9D 9D 9D 9D
               3295   9D 9D 9D 9D
               3299   9E 9E 9E 9E
               329D   9E 9F 9F 9F
    300        32A1   9F 9F 9F 9F          FCB $9f,$9f,$9f,$9f,$a0,$9f,$a0,$a0,$a0,$a0,$a0,$a1,$a1,$a1,$a1,$a1,$a1,$a1,$a2,$a1,$a2,$a2,$a2,$a2,$a2,$a3,$a3,$a3,$a3,$a3,$a3,$a3,$a4,$a3,$a4,$a4,$a4,$a4,$a5,$a5
               32A5   A0 9F A0 A0
               32A9   A0 A0 A0 A1
               32AD   A1 A1 A1 A1
               32B1   A1 A1 A2 A1
               32B5   A2 A2 A2 A2
               32B9   A2 A3 A3 A3
               32BD   A3 A3 A3 A3
               32C1   A4 A3 A4 A4
               32C5   A4 A4 A5 A5
    301        32C9   91 91 91 91          FCB $91,$91,$91,$91,$91,$91,$91,$91,$91,$91,$91,$91,$91,$91,$91,$91,$91,$91,$91,$91,$92,$91,$92,$91,$92,$91,$92,$91,$92,$91,$92,$92,$92,$92,$92,$91,$92,$92,$92,$92
               32CD   91 91 91 91
               32D1   91 91 91 91
               32D5   91 91 91 91
               32D9   91 91 91 91
               32DD   92 91 92 91
               32E1   92 91 92 91
               32E5   92 91 92 92
               32E9   92 92 92 91
               32ED   92 92 92 92
    302        32F1   92 92 92 92          FCB $92,$92,$92,$92,$92,$93,$92,$92,$93,$92,$93,$93,$93,$93,$93,$93,$93,$93,$93,$93,$93,$93,$93,$93,$93,$93,$93,$93,$93,$93,$93,$93,$93,$93,$93,$93,$93,$93,$94,$93
               32F5   92 93 92 92
               32F9   93 92 93 93
               32FD   93 93 93 93
               3301   93 93 93 93
               3305   93 93 93 93
               3309   93 93 93 93
               330D   93 93 93 93
               3311   93 93 93 93
               3315   93 93 94 93
    303        3319   94 93 94 93          FCB $94,$93,$94,$93,$94,$93,$94,$93,$94,$93,$94,$94,$94,$94,$94,$94,$94,$94,$94,$94,$83,$84,$82,$83,$82,$83,$81,$82,$81,$81,$80,$81,$80,$81,$7f,$80,$7e,$80,$7e,$7f
               331D   94 93 94 93
               3321   94 93 94 94
               3325   94 94 94 94
               3329   94 94 94 94
               332D   83 84 82 83
               3331   82 83 81 82
               3335   81 81 80 81
               3339   80 81 7F 80
               333D   7E 80 7E 7F
    304        3341   7D 7F 7D 7E          FCB $7d,$7f,$7d,$7e,$7c,$7d,$7c,$7d,$7b,$7d,$7b,$7b,$7a,$7b,$7a,$7b,$79,$7a,$78,$79,$78,$79,$77,$78,$77,$78,$76,$77,$76,$77,$75,$77,$75,$76,$74,$75,$74,$75,$73,$74
               3345   7C 7D 7C 7D
               3349   7B 7D 7B 7B
               334D   7A 7B 7A 7B
               3351   79 7A 78 79
               3355   78 79 77 78
               3359   77 78 76 77
               335D   76 77 75 77
               3361   75 76 74 75
               3365   74 75 73 74
    305        3369   72 73 72 73          FCB $72,$73,$72,$73,$71,$73,$71,$72,$70,$71,$70,$71,$6f,$70,$6f,$70,$6e,$6f,$6e,$6f,$6d,$6f,$6d,$6d,$6c,$6d,$6b,$6d,$6b,$6c,$6a,$6b,$6a,$6b,$69,$6a,$69,$69,$68,$69
               336D   71 73 71 72
               3371   70 71 70 71
               3375   6F 70 6F 70
               3379   6E 6F 6E 6F
               337D   6D 6F 6D 6D
               3381   6C 6D 6B 6D
               3385   6B 6C 6A 6B
               3389   6A 6B 69 6A
               338D   69 69 68 69
    306        3391                    line_missile_dx
    307        3391   04 0C 05 0C          FCB $4,$c,$5,$c,$5,$d,$5,$d,$6,$d,$6,$e,$7,$e,$7,$f,$7,$e,$8,$f,$8,$f,$9,$10,$9,$10,$9,$10,$9,$11,$9,$11,$a,$11,$a,$11,$a,$12,$b,$12
               3395   05 0D 05 0D
               3399   06 0D 06 0E
               339D   07 0E 07 0F
               33A1   07 0E 08 0F
               33A5   08 0F 09 10
               33A9   09 10 09 10
               33AD   09 11 09 11
               33B1   0A 11 0A 11
               33B5   0A 12 0B 12
    308        33B9   0B 13 0C 13          FCB $b,$13,$c,$13,$c,$14,$c,$13,$d,$14,$d,$14,$d,$15,$e,$15,$d,$15,$e,$16,$e,$16,$e,$16,$f,$16,$f,$17,$10,$17,$10,$18,$10,$17,$11,$19,$11,$18,$12,$19
               33BD   0C 14 0C 13
               33C1   0D 14 0D 14
               33C5   0D 15 0E 15
               33C9   0D 15 0E 16
               33CD   0E 16 0E 16
               33D1   0F 16 0F 17
               33D5   10 17 10 18
               33D9   10 17 11 19
               33DD   11 18 12 19
    309        33E1   12 19 12 1A          FCB $12,$19,$12,$1a,$13,$1a,$12,$1a,$13,$1a,$13,$1b,$13,$1b,$14,$1b,$14,$1c,$15,$1c,$4,$3,$3,$3,$3,$4,$4,$3,$3,$3,$4,$4,$3,$3,$3,$3,$4,$4,$3,$4
               33E5   13 1A 12 1A
               33E9   13 1A 13 1B
               33ED   13 1B 14 1B
               33F1   14 1C 15 1C
               33F5   04 03 03 03
               33F9   03 04 04 03
               33FD   03 03 04 04
               3401   03 03 03 03
               3405   04 04 03 04
    310        3409   04 03 03 03          FCB $4,$3,$3,$3,$3,$4,$4,$3,$3,$3,$4,$4,$3,$3,$3,$3,$4,$4,$3,$4,$4,$3,$3,$3,$3,$4,$4,$3,$3,$3,$4,$4,$4,$3,$3,$3,$4,$4,$3,$4
               340D   03 04 04 03
               3411   03 03 04 04
               3415   03 03 03 03
               3419   04 04 03 04
               341D   04 03 03 03
               3421   03 04 04 03
               3425   03 03 04 04
               3429   04 03 03 03
               342D   04 04 03 04
    311        3431   03 03 04 04          FCB $3,$3,$4,$4,$3,$4,$4,$3,$3,$3,$3,$4,$4,$3,$3,$3,$4,$4,$3,$3,$3,$3,$4,$4,$3,$4,$4,$3,$3,$3,$3,$4,$4,$3,$3,$3,$4,$4,$3,$3
               3435   03 04 04 03
               3439   03 03 03 04
               343D   04 03 03 03
               3441   04 04 03 03
               3445   03 03 04 04
               3449   03 04 04 03
               344D   03 03 03 04
               3451   04 03 03 03
               3455   04 04 03 03
    312        3459   06 09 07 09          FCB $6,$9,$7,$9,$7,$a,$7,$b,$8,$b,$8,$b,$8,$b,$9,$b,$9,$c,$9,$c,$a,$c,$a,$c,$a,$c,$b,$d,$a,$d,$a,$e,$b,$e,$b,$e,$b,$e,$c,$e
               345D   07 0A 07 0B
               3461   08 0B 08 0B
               3465   08 0B 09 0B
               3469   09 0C 09 0C
               346D   0A 0C 0A 0C
               3471   0A 0C 0B 0D
               3475   0A 0D 0A 0E
               3479   0B 0E 0B 0E
               347D   0B 0E 0C 0E
    313        3481   0C 0F 0C 0F          FCB $c,$f,$c,$f,$d,$f,$d,$f,$d,$f,$e,$10,$e,$11,$e,$11,$f,$11,$e,$11,$e,$11,$f,$12,$f,$12,$f,$13,$10,$13,$10,$13,$10,$13,$11,$13,$11,$14,$11,$14
               3485   0D 0F 0D 0F
               3489   0D 0F 0E 10
               348D   0E 11 0E 11
               3491   0F 11 0E 11
               3495   0E 11 0F 12
               3499   0F 12 0F 13
               349D   10 13 10 13
               34A1   10 13 11 13
               34A5   11 14 11 14
    314        34A9   12 14 12 14          FCB $12,$14,$12,$14,$12,$14,$12,$15,$12,$15,$12,$16,$13,$16,$13,$16,$13,$16,$14,$16,$8,$7,$9,$7,$9,$8,$a,$8,$a,$9,$9,$9,$a,$9,$a,$9,$b,$9,$b,$9
               34AD   12 14 12 15
               34B1   12 15 12 16
               34B5   13 16 13 16
               34B9   13 16 14 16
               34BD   08 07 09 07
               34C1   09 08 0A 08
               34C5   0A 09 09 09
               34C9   0A 09 0A 09
               34CD   0B 09 0B 09
    315        34D1   0B 09 0B 0A          FCB $b,$9,$b,$a,$b,$a,$c,$a,$c,$b,$d,$b,$d,$c,$c,$c,$d,$c,$d,$c,$e,$c,$e,$c,$e,$c,$e,$d,$e,$d,$f,$d,$f,$e,$f,$e,$10,$e,$f,$f
               34D5   0B 0A 0C 0A
               34D9   0C 0B 0D 0B
               34DD   0D 0C 0C 0C
               34E1   0D 0C 0D 0C
               34E5   0E 0C 0E 0C
               34E9   0E 0C 0E 0D
               34ED   0E 0D 0F 0D
               34F1   0F 0E 0F 0E
               34F5   10 0E 0F 0F
    316        34F9   10 0F 10 0F          FCB $10,$f,$10,$f,$11,$f,$11,$f,$10,$f,$11,$f,$11,$10,$12,$10,$12,$11,$12,$11,$12,$11,$12,$11,$13,$11,$13,$12,$14,$12,$14,$12,$13,$12,$14,$12,$14,$13,$15,$13
               34FD   11 0F 11 0F
               3501   10 0F 11 0F
               3505   11 10 12 10
               3509   12 11 12 11
               350D   12 11 12 11
               3511   13 11 13 12
               3515   14 12 14 12
               3519   13 12 14 12
               351D   14 13 15 13
    317        3521   02 03 03 03          FCB $2,$3,$3,$3,$3,$2,$3,$3,$3,$3,$2,$3,$3,$3,$2,$2,$3,$3,$3,$3,$2,$3,$3,$2,$2,$2,$3,$3,$3,$3,$3,$3,$3,$2,$2,$2,$3,$3,$2,$3
               3525   03 02 03 03
               3529   03 03 02 03
               352D   03 03 02 02
               3531   03 03 03 03
               3535   02 03 03 02
               3539   02 02 03 03
               353D   03 03 03 03
               3541   03 02 02 02
               3545   03 03 02 03
    318        3549   03 03 03 02          FCB $3,$3,$3,$2,$2,$2,$3,$3,$2,$3,$3,$3,$3,$2,$2,$2,$3,$3,$2,$3,$3,$3,$3,$2,$3,$3,$3,$3,$2,$3,$3,$3,$2,$2,$3,$3,$3,$3,$2,$3
               354D   02 02 03 03
               3551   02 03 03 03
               3555   03 02 02 02
               3559   03 03 02 03
               355D   03 03 03 02
               3561   03 03 03 03
               3565   02 03 03 03
               3569   02 02 03 03
               356D   03 03 02 03
    319        3571   03 02 02 02          FCB $3,$2,$2,$2,$3,$3,$3,$3,$3,$3,$3,$2,$2,$2,$3,$3,$2,$3,$3,$3,$b,$5,$b,$6,$c,$6,$c,$6,$c,$7,$c,$7,$d,$7,$d,$8,$d,$7,$d,$8
               3575   03 03 03 03
               3579   03 03 03 02
               357D   02 02 03 03
               3581   02 03 03 03
               3585   0B 05 0B 06
               3589   0C 06 0C 06
               358D   0C 07 0C 07
               3591   0D 07 0D 08
               3595   0D 07 0D 08
    320        3599   0E 09 0E 08          FCB $e,$9,$e,$8,$e,$9,$f,$9,$f,$9,$f,$a,$f,$a,$10,$a,$10,$b,$10,$b,$11,$b,$11,$c,$12,$c,$12,$c,$13,$d,$13,$c,$13,$d,$14,$e,$14,$d,$14,$e
               359D   0E 09 0F 09
               35A1   0F 09 0F 0A
               35A5   0F 0A 10 0A
               35A9   10 0B 10 0B
               35AD   11 0B 11 0C
               35B1   12 0C 12 0C
               35B5   13 0D 13 0C
               35B9   13 0D 14 0E
               35BD   14 0D 14 0E
    321        35C1   14 0E 15 0F          FCB $14,$e,$15,$f,$15,$f,$15,$f,$16,$10,$16,$10,$16,$10,$16,$11,$17,$11,$17,$11,$17,$12,$18,$12,$18,$12,$18,$13,$18,$12,$19,$13,$19,$14,$19,$13,$1a,$14,$1a,$14
               35C5   15 0F 15 0F
               35C9   16 10 16 10
               35CD   16 10 16 11
               35D1   17 11 17 11
               35D5   17 12 18 12
               35D9   18 12 18 13
               35DD   18 12 19 13
               35E1   19 14 19 13
               35E5   1A 14 1A 14
    322        35E9   05 05 05 05          FCB $5,$5,$5,$5,$5,$5,$5,$5,$5,$5,$5,$5,$5,$5,$5,$5,$5,$5,$5,$5,$5,$5,$5,$5,$5,$5,$5,$5,$5,$5,$5,$5,$5,$5,$5,$5,$5,$5,$5,$5
               35ED   05 05 05 05
               35F1   05 05 05 05
               35F5   05 05 05 05
               35F9   05 05 05 05
               35FD   05 05 05 05
               3601   05 05 05 05
               3605   05 05 05 05
               3609   05 05 05 05
               360D   05 05 05 05
    323        3611   05 05 05 05          FCB $5,$5,$5,$5,$6,$5,$6,$6,$6,$5,$6,$6,$5,$5,$5,$6,$5,$5,$5,$6,$5,$5,$5,$5,$5,$5,$5,$5,$5,$5,$5,$5,$5,$5,$5,$5,$5,$5,$5,$5
               3615   06 05 06 06
               3619   06 05 06 06
               361D   05 05 05 06
               3621   05 05 05 06
               3625   05 05 05 05
               3629   05 05 05 05
               362D   05 05 05 05
               3631   05 05 05 05
               3635   05 05 05 05
    324        3639   05 05 05 05          FCB $5,$5,$5,$5,$5,$5,$5,$5,$5,$5,$5,$5,$5,$5,$5,$5,$5,$5,$5,$5,$5,$5,$5,$5,$5,$5,$5,$5,$5,$5,$5,$5,$5,$5,$5,$5,$5,$5,$5,$5
               363D   05 05 05 05
               3641   05 05 05 05
               3645   05 05 05 05
               3649   05 05 05 05
               364D   05 05 05 05
               3651   05 05 05 05
               3655   05 05 05 05
               3659   05 05 05 05
               365D   05 05 05 05
    325        3661   05 05 05 05          FCB $5,$5,$5,$5,$5,$5,$5,$5,$5,$5,$5,$5,$5,$5,$5,$5,$5,$5,$5,$5,$5,$5,$5,$5,$6,$5,$6,$6,$6,$5,$6,$6,$5,$5,$5,$6,$5,$5,$5,$6
               3665   05 05 05 05
               3669   05 05 05 05
               366D   05 05 05 05
               3671   05 05 05 05
               3675   05 05 05 05
               3679   06 05 06 06
               367D   06 05 06 06
               3681   05 05 05 06
               3685   05 05 05 06
    326        3689   05 05 05 05          FCB $5,$5,$5,$5,$5,$5,$5,$5,$5,$5,$5,$5,$5,$5,$5,$5,$5,$5,$5,$5,$5,$5,$5,$5,$5,$5,$5,$5,$5,$5,$5,$5,$5,$5,$5,$5,$5,$5,$5,$5
               368D   05 05 05 05
               3691   05 05 05 05
               3695   05 05 05 05
               3699   05 05 05 05
               369D   05 05 05 05
               36A1   05 05 05 05
               36A5   05 05 05 05
               36A9   05 05 05 05
               36AD   05 05 05 05
    327        36B1   06 0B 05 0B          FCB $6,$b,$5,$b,$6,$c,$6,$c,$7,$c,$7,$d,$7,$d,$8,$d,$7,$e,$8,$d,$9,$e,$9,$e,$9,$e,$9,$f,$a,$f,$9,$f,$a,$10,$b,$10,$b,$10,$b,$11
               36B5   06 0C 06 0C
               36B9   07 0C 07 0D
               36BD   07 0D 08 0D
               36C1   07 0E 08 0D
               36C5   09 0E 09 0E
               36C9   09 0E 09 0F
               36CD   0A 0F 09 0F
               36D1   0A 10 0B 10
               36D5   0B 10 0B 11
    328        36D9   0B 11 0C 11          FCB $b,$11,$c,$11,$c,$12,$c,$12,$d,$13,$d,$13,$d,$13,$e,$14,$e,$13,$e,$14,$e,$15,$f,$14,$f,$15,$f,$15,$10,$15,$10,$16,$10,$16,$10,$16,$11,$17,$12,$17
               36DD   0C 12 0C 12
               36E1   0D 13 0D 13
               36E5   0D 13 0E 14
               36E9   0E 13 0E 14
               36ED   0E 15 0F 14
               36F1   0F 15 0F 15
               36F5   10 15 10 16
               36F9   10 16 10 16
               36FD   11 17 12 17
    329        3701   11 17 12 18          FCB $11,$17,$12,$18,$12,$18,$12,$18,$12,$19,$13,$18,$14,$19,$13,$1a,$14,$19,$14,$1a,$2,$3,$3,$3,$3,$2,$3,$3,$3,$3,$2,$3,$3,$3,$2,$2,$3,$3,$3,$3
               3705   12 18 12 18
               3709   12 19 13 18
               370D   14 19 13 1A
               3711   14 19 14 1A
               3715   02 03 03 03
               3719   03 02 03 03
               371D   03 03 02 03
               3721   03 03 02 02
               3725   03 03 03 03
    330        3729   02 03 03 02          FCB $2,$3,$3,$2,$2,$2,$3,$3,$3,$3,$3,$3,$3,$2,$2,$2,$3,$3,$2,$3,$3,$3,$3,$2,$2,$2,$3,$3,$2,$3,$3,$3,$3,$2,$2,$2,$3,$3,$2,$3
               372D   02 02 03 03
               3731   03 03 03 03
               3735   03 02 02 02
               3739   03 03 02 03
               373D   03 03 03 02
               3741   02 02 03 03
               3745   02 03 03 03
               3749   03 02 02 02
               374D   03 03 02 03
    331        3751   03 03 03 02          FCB $3,$3,$3,$2,$3,$3,$3,$3,$2,$3,$3,$3,$2,$2,$3,$3,$3,$3,$2,$3,$3,$2,$2,$2,$3,$3,$3,$3,$3,$3,$3,$2,$2,$2,$3,$3,$2,$3,$3,$3
               3755   03 03 03 03
               3759   02 03 03 03
               375D   02 02 03 03
               3761   03 03 02 03
               3765   03 02 02 02
               3769   03 03 03 03
               376D   03 03 03 02
               3771   02 02 03 03
               3775   02 03 03 03
    332        3779   07 09 07 0A          FCB $7,$9,$7,$a,$9,$a,$9,$a,$9,$a,$9,$a,$9,$a,$a,$a,$a,$b,$a,$b,$a,$b,$a,$c,$a,$c,$b,$d,$b,$d,$b,$d,$b,$d,$b,$d,$c,$d,$c,$d
               377D   09 0A 09 0A
               3781   09 0A 09 0A
               3785   09 0A 0A 0A
               3789   0A 0B 0A 0B
               378D   0A 0B 0A 0C
               3791   0A 0C 0B 0D
               3795   0B 0D 0B 0D
               3799   0B 0D 0B 0D
               379D   0C 0D 0C 0D
    333        37A1   0C 0E 0D 0E          FCB $c,$e,$d,$e,$d,$e,$d,$f,$e,$f,$e,$f,$e,$f,$e,$f,$e,$f,$f,$10,$f,$10,$f,$10,$f,$11,$f,$11,$f,$11,$10,$12,$10,$12,$10,$12,$10,$12,$10,$12
               37A5   0D 0E 0D 0F
               37A9   0E 0F 0E 0F
               37AD   0E 0F 0E 0F
               37B1   0E 0F 0F 10
               37B5   0F 10 0F 10
               37B9   0F 11 0F 11
               37BD   0F 11 10 12
               37C1   10 12 10 12
               37C5   10 12 10 12
    334        37C9   11 12 12 12          FCB $11,$12,$12,$12,$12,$13,$12,$13,$12,$14,$12,$14,$13,$14,$13,$14,$13,$14,$13,$15,$a,$7,$9,$7,$a,$7,$b,$8,$a,$8,$b,$8,$b,$8,$b,$8,$c,$9,$c,$9
               37CD   12 13 12 13
               37D1   12 14 12 14
               37D5   13 14 13 14
               37D9   13 14 13 15
               37DD   0A 07 09 07
               37E1   0A 07 0B 08
               37E5   0A 08 0B 08
               37E9   0B 08 0B 08
               37ED   0C 09 0C 09
    335        37F1   0C 0A 0C 0A          FCB $c,$a,$c,$a,$d,$a,$d,$a,$d,$a,$e,$b,$d,$c,$e,$c,$f,$c,$e,$c,$f,$c,$10,$d,$f,$d,$10,$d,$10,$d,$10,$d,$11,$e,$11,$e,$11,$f,$11,$f
               37F5   0D 0A 0D 0A
               37F9   0D 0A 0E 0B
               37FD   0D 0C 0E 0C
               3801   0F 0C 0E 0C
               3805   0F 0C 10 0D
               3809   0F 0D 10 0D
               380D   10 0D 10 0D
               3811   11 0E 11 0E
               3815   11 0F 11 0F
    336        3819   12 0F 12 0F          FCB $12,$f,$12,$f,$12,$f,$13,$10,$12,$11,$13,$11,$14,$11,$13,$11,$14,$11,$14,$12,$14,$12,$15,$12,$15,$12,$16,$12,$15,$13,$16,$13,$17,$14,$16,$14,$17,$14,$17,$14
               381D   12 0F 13 10
               3821   12 11 13 11
               3825   14 11 13 11
               3829   14 11 14 12
               382D   14 12 15 12
               3831   15 12 16 12
               3835   15 13 16 13
               3839   17 14 16 14
               383D   17 14 17 14
    337        3841   04 04 03 03          FCB $4,$4,$3,$3,$3,$3,$4,$4,$3,$4,$4,$3,$3,$3,$3,$4,$4,$3,$3,$3,$4,$4,$3,$3,$3,$3,$4,$4,$3,$4,$4,$3,$3,$3,$3,$4,$4,$3,$3,$3
               3845   03 03 04 04
               3849   03 04 04 03
               384D   03 03 03 04
               3851   04 03 03 03
               3855   04 04 03 03
               3859   03 03 04 04
               385D   03 04 04 03
               3861   03 03 03 04
               3865   04 03 03 03
    338        3869   04 04 04 03          FCB $4,$4,$4,$3,$3,$3,$4,$4,$3,$4,$3,$3,$4,$4,$3,$4,$4,$3,$3,$3,$3,$4,$4,$3,$3,$3,$4,$4,$3,$3,$3,$3,$4,$4,$3,$4,$4,$3,$3,$3
               386D   03 03 04 04
               3871   03 04 03 03
               3875   04 04 03 04
               3879   04 03 03 03
               387D   03 04 04 03
               3881   03 03 04 04
               3885   03 03 03 03
               3889   04 04 03 04
               388D   04 03 03 03
    339        3891   03 04 04 03          FCB $3,$4,$4,$3,$3,$3,$4,$4,$3,$3,$3,$3,$4,$4,$3,$4,$4,$3,$3,$3,$b,$4,$c,$4,$d,$5,$d,$5,$d,$6,$d,$5,$e,$7,$e,$6,$e,$7,$e,$7
               3895   03 03 04 04
               3899   03 03 03 03
               389D   04 04 03 04
               38A1   04 03 03 03
               38A5   0B 04 0C 04
               38A9   0D 05 0D 05
               38AD   0D 06 0D 05
               38B1   0E 07 0E 06
               38B5   0E 07 0E 07
    340        38B9   0F 08 0F 08          FCB $f,$8,$f,$8,$f,$8,$f,$8,$10,$9,$11,$9,$11,$9,$11,$a,$12,$a,$12,$b,$12,$a,$13,$b,$13,$b,$13,$c,$13,$c,$14,$c,$14,$c,$14,$d,$14,$d,$15,$e
               38BD   0F 08 0F 08
               38C1   10 09 11 09
               38C5   11 09 11 0A
               38C9   12 0A 12 0B
               38CD   12 0A 13 0B
               38D1   13 0B 13 0C
               38D5   13 0C 14 0C
               38D9   14 0C 14 0D
               38DD   14 0D 15 0E
    341        38E1   16 0E 16 0E          FCB $16,$e,$16,$e,$16,$f,$17,$f,$17,$10,$17,$f,$17,$10,$18,$10,$18,$11,$18,$11,$18,$11,$19,$11,$19,$12,$19,$12,$19,$12,$1b,$13,$1b,$13,$1b,$14,$1b,$13,$1c,$15
               38E5   16 0F 17 0F
               38E9   17 10 17 0F
               38ED   17 10 18 10
               38F1   18 11 18 11
               38F5   18 11 19 11
               38F9   19 12 19 12
               38FD   19 12 1B 13
               3901   1B 13 1B 14
               3905   1B 13 1C 15
    342        3909   06 06 06 06          FCB $6,$6,$6,$6,$6,$6,$6,$6,$6,$6,$6,$6,$6,$6,$6,$6,$6,$6,$6,$6,$6,$6,$6,$6,$6,$6,$6,$6,$6,$6,$6,$6,$6,$6,$6,$6,$6,$6,$6,$6
               390D   06 06 06 06
               3911   06 06 06 06
               3915   06 06 06 06
               3919   06 06 06 06
               391D   06 06 06 06
               3921   06 06 06 06
               3925   06 06 06 06
               3929   06 06 06 06
               392D   06 06 06 06
    343        3931   06 06 07 07          FCB $6,$6,$7,$7,$6,$6,$6,$6,$6,$6,$6,$6,$6,$6,$6,$6,$6,$6,$6,$6,$6,$6,$6,$6,$6,$6,$6,$6,$6,$6,$6,$6,$6,$6,$6,$6,$6,$6,$6,$6
               3935   06 06 06 06
               3939   06 06 06 06
               393D   06 06 06 06
               3941   06 06 06 06
               3945   06 06 06 06
               3949   06 06 06 06
               394D   06 06 06 06
               3951   06 06 06 06
               3955   06 06 06 06
    344        3959   06 06 06 06          FCB $6,$6,$6,$6,$6,$6,$6,$6,$6,$6,$6,$6,$6,$6,$6,$6,$6,$6,$6,$6,$6,$6,$6,$6,$6,$6,$6,$6,$6,$6,$6,$6,$6,$6,$6,$6,$6,$6,$6,$6
               395D   06 06 06 06
               3961   06 06 06 06
               3965   06 06 06 06
               3969   06 06 06 06
               396D   06 06 06 06
               3971   06 06 06 06
               3975   06 06 06 06
               3979   06 06 06 06
               397D   06 06 06 06
    345        3981   06 06 06 06          FCB $6,$6,$6,$6,$6,$6,$6,$6,$6,$6,$6,$6,$6,$6,$6,$6,$6,$6,$6,$6,$6,$6,$7,$7,$6,$6,$6,$6,$6,$6,$6,$6,$6,$6,$6,$6,$6,$6,$6,$6
               3985   06 06 06 06
               3989   06 06 06 06
               398D   06 06 06 06
               3991   06 06 06 06
               3995   06 06 07 07
               3999   06 06 06 06
               399D   06 06 06 06
               39A1   06 06 06 06
               39A5   06 06 06 06
    346        39A9   06 06 06 06          FCB $6,$6,$6,$6,$6,$6,$6,$6,$6,$6,$6,$6,$6,$6,$6,$6,$6,$6,$6,$6,$6,$6,$6,$6,$6,$6,$6,$6,$6,$6,$6,$6,$6,$6,$6,$6,$6,$6,$6,$6
               39AD   06 06 06 06
               39B1   06 06 06 06
               39B5   06 06 06 06
               39B9   06 06 06 06
               39BD   06 06 06 06
               39C1   06 06 06 06
               39C5   06 06 06 06
               39C9   06 06 06 06
               39CD   06 06 06 06
    347        39D1                    line_missile_dy
    348        39D1   04 04 04 05          FCB $4,$4,$4,$5,$4,$4,$4,$5,$5,$4,$5,$5,$5,$4,$5,$5,$5,$5,$5,$5,$5,$5,$5,$5,$5,$5,$5,$5,$4,$5,$4,$4,$4,$5,$4,$4,$5,$5,$5,$4
               39D5   04 04 04 05
               39D9   05 04 05 05
               39DD   05 04 05 05
               39E1   05 05 05 05
               39E5   05 05 05 05
               39E9   05 05 05 05
               39ED   04 05 04 04
               39F1   04 05 04 04
               39F5   05 05 05 04
    349        39F9   05 05 05 04          FCB $5,$5,$5,$4,$5,$5,$5,$5,$5,$5,$5,$5,$5,$5,$5,$5,$5,$5,$4,$5,$4,$4,$4,$5,$4,$4,$5,$5,$5,$4,$5,$5,$5,$4,$5,$5,$5,$5,$5,$5
               39FD   05 05 05 05
               3A01   05 05 05 05
               3A05   05 05 05 05
               3A09   05 05 04 05
               3A0D   04 04 04 05
               3A11   04 04 05 05
               3A15   05 04 05 05
               3A19   05 04 05 05
               3A1D   05 05 05 05
    350        3A21   05 05 05 05          FCB $5,$5,$5,$5,$5,$5,$4,$4,$4,$5,$4,$4,$4,$5,$5,$4,$5,$5,$5,$4,$c,$3,$c,$3,$d,$4,$d,$3,$d,$4,$d,$4,$d,$4,$e,$5,$e,$4,$e,$5
               3A25   05 05 04 04
               3A29   04 05 04 04
               3A2D   04 05 05 04
               3A31   05 05 05 04
               3A35   0C 03 0C 03
               3A39   0D 04 0D 03
               3A3D   0D 04 0D 04
               3A41   0D 04 0E 05
               3A45   0E 04 0E 05
    351        3A49   0E 05 0E 05          FCB $e,$5,$e,$5,$f,$6,$f,$5,$f,$6,$10,$6,$f,$7,$f,$6,$10,$7,$10,$7,$11,$7,$11,$8,$11,$7,$11,$8,$11,$8,$12,$8,$12,$9,$12,$8,$13,$9,$12,$9
               3A4D   0F 06 0F 05
               3A51   0F 06 10 06
               3A55   0F 07 0F 06
               3A59   10 07 10 07
               3A5D   11 07 11 08
               3A61   11 07 11 08
               3A65   11 08 12 08
               3A69   12 09 12 08
               3A6D   13 09 12 09
    352        3A71   12 0A 13 0A          FCB $12,$a,$13,$a,$13,$a,$14,$b,$14,$a,$14,$b,$14,$b,$14,$b,$14,$b,$15,$b,$15,$c,$16,$c,$15,$c,$15,$c,$16,$d,$16,$d,$16,$d,$17,$e,$17,$d,$17,$e
               3A75   13 0A 14 0B
               3A79   14 0A 14 0B
               3A7D   14 0B 14 0B
               3A81   14 0B 15 0B
               3A85   15 0C 16 0C
               3A89   15 0C 15 0C
               3A8D   16 0D 16 0D
               3A91   16 0D 17 0E
               3A95   17 0D 17 0E
    353        3A99   06 07 06 06          FCB $6,$7,$6,$6,$7,$6,$6,$7,$7,$7,$7,$6,$6,$7,$7,$7,$6,$6,$6,$7,$7,$7,$6,$6,$7,$6,$7,$7,$6,$6,$7,$6,$6,$7,$6,$6,$7,$6,$6,$7
               3A9D   07 06 06 07
               3AA1   07 07 07 06
               3AA5   06 07 07 07
               3AA9   06 06 06 07
               3AAD   07 07 06 06
               3AB1   07 06 07 07
               3AB5   06 06 07 06
               3AB9   06 07 06 06
               3ABD   07 06 06 07
    354        3AC1   07 07 07 06          FCB $7,$7,$7,$6,$6,$7,$7,$7,$6,$6,$7,$7,$7,$7,$6,$6,$7,$6,$6,$7,$6,$6,$7,$6,$6,$7,$7,$7,$7,$6,$6,$7,$7,$7,$6,$6,$6,$7,$7,$7
               3AC5   06 07 07 07
               3AC9   06 06 07 07
               3ACD   07 07 06 06
               3AD1   07 06 06 07
               3AD5   06 06 07 06
               3AD9   06 07 07 07
               3ADD   07 06 06 07
               3AE1   07 07 06 06
               3AE5   06 07 07 07
    355        3AE9   06 06 07 06          FCB $6,$6,$7,$6,$7,$7,$6,$6,$7,$6,$6,$7,$6,$6,$7,$6,$6,$7,$7,$7,$6,$7,$6,$6,$7,$6,$6,$7,$7,$7,$7,$6,$6,$7,$7,$7,$6,$6,$6,$7
               3AED   07 07 06 06
               3AF1   07 06 06 07
               3AF5   06 06 07 06
               3AF9   06 07 07 07
               3AFD   06 07 06 06
               3B01   07 06 06 07
               3B05   07 07 07 06
               3B09   06 07 07 07
               3B0D   06 06 06 07
    356        3B11   07 07 06 06          FCB $7,$7,$6,$6,$7,$6,$7,$7,$6,$6,$7,$6,$6,$7,$6,$6,$7,$6,$6,$7,$7,$7,$7,$6,$6,$7,$7,$7,$6,$6,$7,$7,$7,$7,$6,$6,$7,$6,$6,$7
               3B15   07 06 07 07
               3B19   06 06 07 06
               3B1D   06 07 06 06
               3B21   07 06 06 07
               3B25   07 07 07 06
               3B29   06 07 07 07
               3B2D   06 06 07 07
               3B31   07 07 06 06
               3B35   07 06 06 07
    357        3B39   06 06 07 06          FCB $6,$6,$7,$6,$6,$7,$7,$7,$7,$6,$6,$7,$7,$7,$6,$6,$6,$7,$7,$7,$6,$6,$7,$6,$7,$7,$6,$6,$7,$6,$6,$7,$6,$6,$7,$6,$6,$7,$7,$7
               3B3D   06 07 07 07
               3B41   07 06 06 07
               3B45   07 07 06 06
               3B49   06 07 07 07
               3B4D   06 06 07 06
               3B51   07 07 06 06
               3B55   07 06 06 07
               3B59   06 06 07 06
               3B5D   06 07 07 07
    358        3B61   04 0D 04 0D          FCB $4,$d,$4,$d,$5,$e,$5,$d,$5,$e,$5,$e,$5,$e,$5,$f,$5,$f,$6,$f,$6,$f,$6,$10,$6,$10,$6,$10,$7,$10,$8,$10,$8,$11,$8,$10,$8,$11,$8,$11
               3B65   05 0E 05 0D
               3B69   05 0E 05 0E
               3B6D   05 0E 05 0F
               3B71   05 0F 06 0F
               3B75   06 0F 06 10
               3B79   06 10 06 10
               3B7D   07 10 08 10
               3B81   08 11 08 10
               3B85   08 11 08 11
    359        3B89   08 11 08 12          FCB $8,$11,$8,$12,$9,$12,$9,$13,$9,$12,$9,$13,$9,$13,$9,$13,$a,$14,$b,$13,$b,$14,$b,$14,$b,$14,$b,$15,$c,$14,$c,$15,$c,$15,$c,$16,$c,$15,$c,$16
               3B8D   09 12 09 13
               3B91   09 12 09 13
               3B95   09 13 09 13
               3B99   0A 14 0B 13
               3B9D   0B 14 0B 14
               3BA1   0B 14 0B 15
               3BA5   0C 14 0C 15
               3BA9   0C 15 0C 16
               3BAD   0C 15 0C 16
    360        3BB1   0C 16 0D 16          FCB $c,$16,$d,$16,$d,$17,$e,$16,$e,$17,$e,$17,$e,$17,$f,$18,$f,$17,$f,$18,$4,$4,$4,$5,$4,$4,$4,$5,$5,$4,$5,$5,$5,$4,$5,$5,$5,$5,$5,$5
               3BB5   0D 17 0E 16
               3BB9   0E 17 0E 17
               3BBD   0E 17 0F 18
               3BC1   0F 17 0F 18
               3BC5   04 04 04 05
               3BC9   04 04 04 05
               3BCD   05 04 05 05
               3BD1   05 04 05 05
               3BD5   05 05 05 05
    361        3BD9   05 05 05 05          FCB $5,$5,$5,$5,$5,$5,$5,$5,$4,$5,$4,$4,$4,$5,$4,$4,$5,$5,$5,$4,$5,$5,$5,$4,$5,$5,$5,$5,$5,$5,$5,$5,$5,$5,$5,$5,$5,$5,$4,$5
               3BDD   05 05 05 05
               3BE1   04 05 04 04
               3BE5   04 05 04 04
               3BE9   05 05 05 04
               3BED   05 05 05 04
               3BF1   05 05 05 05
               3BF5   05 05 05 05
               3BF9   05 05 05 05
               3BFD   05 05 04 05
    362        3C01   04 04 04 05          FCB $4,$4,$4,$5,$4,$4,$5,$5,$5,$4,$5,$5,$5,$4,$5,$5,$5,$5,$5,$5,$5,$5,$5,$5,$5,$5,$4,$4,$4,$5,$4,$4,$4,$5,$5,$4,$5,$5,$5,$4
               3C05   04 04 05 05
               3C09   05 04 05 05
               3C0D   05 04 05 05
               3C11   05 05 05 05
               3C15   05 05 05 05
               3C19   05 05 04 04
               3C1D   04 05 04 04
               3C21   04 05 05 04
               3C25   05 05 05 04
    363        3C29   04 0A 05 0A          FCB $4,$a,$5,$a,$6,$a,$5,$b,$6,$b,$6,$b,$6,$c,$7,$c,$7,$c,$7,$d,$8,$d,$8,$d,$8,$e,$8,$e,$9,$d,$9,$e,$9,$f,$a,$e,$a,$f,$a,$10
               3C2D   06 0A 05 0B
               3C31   06 0B 06 0B
               3C35   06 0C 07 0C
               3C39   07 0C 07 0D
               3C3D   08 0D 08 0D
               3C41   08 0E 08 0E
               3C45   09 0D 09 0E
               3C49   09 0F 0A 0E
               3C4D   0A 0F 0A 10
    364        3C51   0B 0F 0B 10          FCB $b,$f,$b,$10,$b,$11,$c,$10,$c,$11,$c,$12,$d,$11,$d,$12,$d,$13,$e,$12,$e,$12,$e,$13,$e,$14,$f,$13,$f,$14,$f,$15,$10,$14,$10,$15,$10,$16,$11,$15
               3C55   0B 11 0C 10
               3C59   0C 11 0C 12
               3C5D   0D 11 0D 12
               3C61   0D 13 0E 12
               3C65   0E 12 0E 13
               3C69   0E 14 0F 13
               3C6D   0F 14 0F 15
               3C71   10 14 10 15
               3C75   10 16 11 15
    365        3C79   10 16 11 17          FCB $10,$16,$11,$17,$12,$16,$11,$16,$12,$17,$13,$17,$12,$17,$13,$18,$14,$18,$13,$18,$7,$8,$7,$8,$8,$8,$8,$9,$9,$9,$a,$9,$a,$a,$a,$a,$a,$a,$b,$b
               3C7D   12 16 11 16
               3C81   12 17 13 17
               3C85   12 17 13 18
               3C89   14 18 13 18
               3C8D   07 08 07 08
               3C91   08 08 08 09
               3C95   09 09 0A 09
               3C99   0A 0A 0A 0A
               3C9D   0A 0A 0B 0B
    366        3CA1   0B 0B 0B 0B          FCB $b,$b,$b,$b,$c,$c,$c,$c,$c,$c,$c,$d,$d,$d,$d,$d,$d,$e,$d,$e,$e,$e,$e,$f,$e,$f,$f,$f,$f,$f,$f,$10,$f,$10,$10,$10,$10,$11,$10,$11
               3CA5   0C 0C 0C 0C
               3CA9   0C 0C 0C 0D
               3CAD   0D 0D 0D 0D
               3CB1   0D 0E 0D 0E
               3CB5   0E 0E 0E 0F
               3CB9   0E 0F 0F 0F
               3CBD   0F 0F 0F 10
               3CC1   0F 10 10 10
               3CC5   10 11 10 11
    367        3CC9   10 11 11 12          FCB $10,$11,$11,$12,$11,$12,$11,$12,$12,$12,$12,$13,$12,$13,$12,$13,$13,$13,$13,$14,$13,$14,$14,$14,$14,$15,$15,$15,$15,$15,$16,$15,$16,$16,$16,$16,$16,$16,$17,$17
               3CCD   11 12 11 12
               3CD1   12 12 12 13
               3CD5   12 13 12 13
               3CD9   13 13 13 14
               3CDD   13 14 14 14
               3CE1   14 15 15 15
               3CE5   15 15 16 15
               3CE9   16 16 16 16
               3CED   16 16 17 17
    368        3CF1   02 02 02 02          FCB $2,$2,$2,$2,$2,$2,$2,$2,$2,$2,$3,$2,$2,$2,$2,$2,$2,$2,$2,$3,$2,$2,$2,$2,$3,$2,$2,$2,$2,$2,$2,$2,$2,$3,$2,$2,$2,$2,$2,$2
               3CF5   02 02 02 02
               3CF9   02 02 03 02
               3CFD   02 02 02 02
               3D01   02 02 02 03
               3D05   02 02 02 02
               3D09   03 02 02 02
               3D0D   02 02 02 02
               3D11   02 03 02 02
               3D15   02 02 02 02
    369        3D19   02 02 02 02          FCB $2,$2,$2,$2,$2,$2,$3,$3,$2,$2,$2,$2,$2,$2,$2,$2,$2,$2,$2,$2,$2,$2,$2,$2,$2,$2,$2,$2,$3,$2,$2,$2,$2,$2,$2,$2,$2,$3,$2,$2
               3D1D   02 02 03 03
               3D21   02 02 02 02
               3D25   02 02 02 02
               3D29   02 02 02 02
               3D2D   02 02 02 02
               3D31   02 02 02 02
               3D35   03 02 02 02
               3D39   02 02 02 02
               3D3D   02 03 02 02
    370        3D41   02 02 03 02          FCB $2,$2,$3,$2,$2,$2,$2,$2,$2,$2,$2,$3,$2,$2,$2,$2,$2,$2,$2,$2,$c,$8,$c,$8,$c,$7,$c,$8,$c,$9,$d,$8,$c,$8,$d,$9,$d,$a,$e,$9
               3D45   02 02 02 02
               3D49   02 02 02 03
               3D4D   02 02 02 02
               3D51   02 02 02 02
               3D55   0C 08 0C 08
               3D59   0C 07 0C 08
               3D5D   0C 09 0D 08
               3D61   0C 08 0D 09
               3D65   0D 0A 0E 09
    371        3D69   0D 09 0E 0A          FCB $d,$9,$e,$a,$e,$a,$f,$a,$e,$a,$f,$b,$f,$b,$10,$b,$f,$b,$10,$c,$10,$c,$11,$c,$10,$c,$11,$d,$11,$d,$11,$d,$11,$d,$12,$e,$12,$e,$12,$e
               3D6D   0E 0A 0F 0A
               3D71   0E 0A 0F 0B
               3D75   0F 0B 10 0B
               3D79   0F 0B 10 0C
               3D7D   10 0C 11 0C
               3D81   10 0C 11 0D
               3D85   11 0D 11 0D
               3D89   11 0D 12 0E
               3D8D   12 0E 12 0E
    372        3D91   12 0E 13 0F          FCB $12,$e,$13,$f,$13,$f,$13,$f,$13,$f,$14,$10,$14,$10,$14,$10,$14,$10,$15,$11,$15,$11,$15,$10,$15,$11,$16,$12,$16,$12,$16,$11,$16,$12,$17,$13,$17,$13,$17,$12
               3D95   13 0F 13 0F
               3D99   13 0F 14 10
               3D9D   14 10 14 10
               3DA1   14 10 15 11
               3DA5   15 11 15 10
               3DA9   15 11 16 12
               3DAD   16 12 16 11
               3DB1   16 12 17 13
               3DB5   17 13 17 12
    373        3DB9   04 04 04 04          FCB $4,$4,$4,$4,$4,$4,$4,$4,$4,$4,$4,$4,$4,$4,$4,$4,$4,$4,$4,$4,$4,$4,$4,$4,$4,$4,$4,$4,$4,$4,$4,$4,$4,$4,$4,$4,$4,$4,$4,$4
               3DBD   04 04 04 04
               3DC1   04 04 04 04
               3DC5   04 04 04 04
               3DC9   04 04 04 04
               3DCD   04 04 04 04
               3DD1   04 04 04 04
               3DD5   04 04 04 04
               3DD9   04 04 04 04
               3DDD   04 04 04 04
    374        3DE1   04 04 04 04          FCB $4,$4,$4,$4,$4,$4,$4,$4,$4,$4,$3,$3,$4,$4,$4,$4,$4,$4,$4,$4,$4,$4,$4,$4,$4,$4,$4,$4,$4,$4,$4,$4,$4,$4,$4,$4,$4,$4,$4,$4
               3DE5   04 04 04 04
               3DE9   04 04 03 03
               3DED   04 04 04 04
               3DF1   04 04 04 04
               3DF5   04 04 04 04
               3DF9   04 04 04 04
               3DFD   04 04 04 04
               3E01   04 04 04 04
               3E05   04 04 04 04
    375        3E09   04 04 04 04          FCB $4,$4,$4,$4,$4,$4,$4,$4,$4,$4,$4,$4,$4,$4,$4,$4,$4,$4,$4,$4,$4,$4,$4,$4,$4,$4,$4,$4,$4,$4,$4,$4,$4,$4,$4,$4,$4,$4,$4,$4
               3E0D   04 04 04 04
               3E11   04 04 04 04
               3E15   04 04 04 04
               3E19   04 04 04 04
               3E1D   04 04 04 04
               3E21   04 04 04 04
               3E25   04 04 04 04
               3E29   04 04 04 04
               3E2D   04 04 04 04
    376        3E31   04 04 04 04          FCB $4,$4,$4,$4,$4,$4,$4,$4,$4,$4,$4,$4,$4,$4,$4,$4,$4,$4,$4,$4,$4,$4,$4,$4,$4,$4,$4,$4,$4,$4,$3,$3,$4,$4,$4,$4,$4,$4,$4,$4
               3E35   04 04 04 04
               3E39   04 04 04 04
               3E3D   04 04 04 04
               3E41   04 04 04 04
               3E45   04 04 04 04
               3E49   04 04 04 04
               3E4D   04 04 03 03
               3E51   04 04 04 04
               3E55   04 04 04 04
    377        3E59   04 04 04 04          FCB $4,$4,$4,$4,$4,$4,$4,$4,$4,$4,$4,$4,$4,$4,$4,$4,$4,$4,$4,$4,$4,$4,$4,$4,$4,$4,$4,$4,$4,$4,$4,$4,$4,$4,$4,$4,$4,$4,$4,$4
               3E5D   04 04 04 04
               3E61   04 04 04 04
               3E65   04 04 04 04
               3E69   04 04 04 04
               3E6D   04 04 04 04
               3E71   04 04 04 04
               3E75   04 04 04 04
               3E79   04 04 04 04
               3E7D   04 04 04 04
    378        3E81   08 0C 08 0C          FCB $8,$c,$8,$c,$8,$c,$9,$d,$8,$d,$9,$d,$9,$d,$a,$e,$9,$e,$a,$e,$a,$e,$a,$f,$a,$e,$b,$f,$b,$f,$b,$10,$b,$f,$c,$10,$b,$10,$c,$10
               3E85   08 0C 09 0D
               3E89   08 0D 09 0D
               3E8D   09 0D 0A 0E
               3E91   09 0E 0A 0E
               3E95   0A 0E 0A 0F
               3E99   0A 0E 0B 0F
               3E9D   0B 0F 0B 10
               3EA1   0B 0F 0C 10
               3EA5   0B 10 0C 10
    379        3EA9   0D 10 0D 11          FCB $d,$10,$d,$11,$d,$11,$d,$11,$e,$11,$d,$11,$e,$12,$e,$12,$e,$12,$e,$12,$f,$13,$f,$13,$f,$13,$f,$13,$10,$14,$f,$14,$10,$14,$10,$14,$11,$15,$10,$15
               3EAD   0D 11 0D 11
               3EB1   0E 11 0D 11
               3EB5   0E 12 0E 12
               3EB9   0E 12 0E 12
               3EBD   0F 13 0F 13
               3EC1   0F 13 0F 13
               3EC5   10 14 0F 14
               3EC9   10 14 10 14
               3ECD   11 15 10 15
    380        3ED1   11 15 11 15          FCB $11,$15,$11,$15,$11,$16,$11,$15,$12,$16,$11,$16,$12,$17,$12,$16,$13,$17,$13,$17,$2,$2,$3,$2,$2,$2,$2,$2,$3,$3,$2,$3,$2,$2,$2,$2,$2,$2,$2,$2
               3ED5   11 16 11 15
               3ED9   12 16 11 16
               3EDD   12 17 12 16
               3EE1   13 17 13 17
               3EE5   02 02 03 02
               3EE9   02 02 02 02
               3EED   03 03 02 03
               3EF1   02 02 02 02
               3EF5   02 02 02 02
    381        3EF9   02 02 03 03          FCB $2,$2,$3,$3,$2,$2,$2,$2,$2,$2,$2,$2,$2,$2,$2,$2,$3,$3,$2,$2,$2,$2,$2,$2,$2,$2,$2,$2,$2,$2,$3,$3,$2,$2,$2,$2,$3,$2,$2,$2
               3EFD   02 02 02 02
               3F01   02 02 02 02
               3F05   02 02 02 02
               3F09   03 03 02 02
               3F0D   02 02 02 02
               3F11   02 02 02 02
               3F15   02 02 03 03
               3F19   02 02 02 02
               3F1D   03 02 02 02
    382        3F21   02 02 02 02          FCB $2,$2,$2,$2,$2,$3,$2,$2,$2,$2,$3,$2,$2,$2,$2,$2,$2,$2,$2,$3,$2,$2,$2,$2,$3,$2,$2,$2,$2,$2,$3,$3,$2,$3,$2,$2,$2,$2,$2,$2
               3F25   02 03 02 02
               3F29   02 02 03 02
               3F2D   02 02 02 02
               3F31   02 02 02 03
               3F35   02 02 02 02
               3F39   03 02 02 02
               3F3D   02 02 03 03
               3F41   02 03 02 02
               3F45   02 02 02 02
    383        3F49   07 07 07 08          FCB $7,$7,$7,$8,$8,$8,$8,$8,$8,$9,$8,$9,$8,$9,$8,$9,$8,$a,$9,$a,$a,$a,$a,$b,$a,$b,$a,$b,$a,$b,$b,$b,$b,$b,$b,$c,$b,$c,$b,$c
               3F4D   08 08 08 08
               3F51   08 09 08 09
               3F55   08 09 08 09
               3F59   08 0A 09 0A
               3F5D   0A 0A 0A 0B
               3F61   0A 0B 0A 0B
               3F65   0A 0B 0B 0B
               3F69   0B 0B 0B 0C
               3F6D   0B 0C 0B 0C
    384        3F71   0B 0C 0C 0C          FCB $b,$c,$c,$c,$c,$c,$c,$d,$d,$d,$d,$d,$d,$d,$d,$d,$e,$e,$e,$e,$e,$e,$e,$e,$e,$f,$e,$f,$f,$f,$f,$10,$f,$10,$f,$10,$f,$10,$10,$11
               3F75   0C 0C 0C 0D
               3F79   0D 0D 0D 0D
               3F7D   0D 0D 0D 0D
               3F81   0E 0E 0E 0E
               3F85   0E 0E 0E 0E
               3F89   0E 0F 0E 0F
               3F8D   0F 0F 0F 10
               3F91   0F 10 0F 10
               3F95   0F 10 10 11
    385        3F99   10 11 11 11          FCB $10,$11,$11,$11,$11,$12,$11,$12,$11,$12,$11,$12,$11,$12,$12,$12,$12,$12,$12,$13,$a,$6,$a,$7,$b,$6,$b,$7,$c,$8,$c,$8,$d,$8,$d,$9,$d,$9,$e,$9
               3F9D   11 12 11 12
               3FA1   11 12 11 12
               3FA5   11 12 12 12
               3FA9   12 12 12 13
               3FAD   0A 06 0A 07
               3FB1   0B 06 0B 07
               3FB5   0C 08 0C 08
               3FB9   0D 08 0D 09
               3FBD   0D 09 0E 09
    386        3FC1   0E 09 0F 0A          FCB $e,$9,$f,$a,$f,$b,$10,$b,$f,$b,$10,$c,$10,$c,$11,$c,$11,$d,$11,$e,$12,$e,$12,$e,$13,$e,$13,$f,$14,$f,$14,$f,$15,$10,$15,$11,$16,$10,$15,$11
               3FC5   0F 0B 10 0B
               3FC9   0F 0B 10 0C
               3FCD   10 0C 11 0C
               3FD1   11 0D 11 0E
               3FD5   12 0E 12 0E
               3FD9   13 0E 13 0F
               3FDD   14 0F 14 0F
               3FE1   15 10 15 11
               3FE5   16 10 15 11
    387        3FE9   15 12 16 12          FCB $15,$12,$16,$12,$16,$12,$17,$13,$17,$13,$18,$13,$18,$14,$19,$14,$19,$15,$1a,$15,$1a,$15,$1b,$16,$1b,$16,$1a,$16,$1b,$17,$1b,$18,$1c,$18,$1c,$18,$1d,$19,$1d,$19
               3FED   16 12 17 13
               3FF1   17 13 18 13
               3FF5   18 14 19 14
               3FF9   19 15 1A 15
               3FFD   1A 15 1B 16
               4001   1B 16 1A 16
               4005   1B 17 1B 18
               4009   1C 18 1C 18
               400D   1D 19 1D 19
    388        4011                    line_missile_cmd
    389        4011   15 17 15 17          FCB $15,$17,$15,$17,$15,$17,$15,$17,$15,$17,$15,$17,$15,$17,$15,$17,$15,$17,$15,$17,$15,$17,$15,$17,$15,$17,$15,$17,$15,$17,$15,$17,$15,$17,$15,$17,$15,$17,$15,$17
               4015   15 17 15 17
               4019   15 17 15 17
               401D   15 17 15 17
               4021   15 17 15 17
               4025   15 17 15 17
               4029   15 17 15 17
               402D   15 17 15 17
               4031   15 17 15 17
               4035   15 17 15 17
    390        4039   15 17 15 17          FCB $15,$17,$15,$17,$15,$17,$15,$17,$15,$17,$15,$17,$15,$17,$15,$17,$15,$17,$15,$17,$15,$17,$15,$17,$15,$17,$15,$17,$15,$17,$15,$17,$15,$17,$15,$17,$15,$17,$15,$17
               403D   15 17 15 17
               4041   15 17 15 17
               4045   15 17 15 17
               4049   15 17 15 17
               404D   15 17 15 17
               4051   15 17 15 17
               4055   15 17 15 17
               4059   15 17 15 17
               405D   15 17 15 17
    391        4061   15 17 15 17          FCB $15,$17,$15,$17,$15,$17,$15,$17,$15,$17,$15,$17,$15,$17,$15,$17,$15,$17,$15,$17,$17,$13,$17,$13,$17,$13,$17,$13,$17,$13,$17,$13,$17,$13,$17,$13,$17,$13,$17,$13
               4065   15 17 15 17
               4069   15 17 15 17
               406D   15 17 15 17
               4071   15 17 15 17
               4075   17 13 17 13
               4079   17 13 17 13
               407D   17 13 17 13
               4081   17 13 17 13
               4085   17 13 17 13
    392        4089   17 13 17 13          FCB $17,$13,$17,$13,$17,$13,$17,$13,$17,$13,$17,$13,$17,$13,$17,$13,$17,$13,$17,$13,$17,$13,$17,$13,$17,$13,$17,$13,$17,$13,$17,$13,$17,$13,$17,$13,$17,$13,$17,$13
               408D   17 13 17 13
               4091   17 13 17 13
               4095   17 13 17 13
               4099   17 13 17 13
               409D   17 13 17 13
               40A1   17 13 17 13
               40A5   17 13 17 13
               40A9   17 13 17 13
               40AD   17 13 17 13
    393        40B1   17 13 17 13          FCB $17,$13,$17,$13,$17,$13,$17,$13,$17,$13,$17,$13,$17,$13,$17,$13,$17,$13,$17,$13,$17,$13,$17,$13,$17,$13,$17,$13,$17,$13,$17,$13,$17,$13,$17,$13,$17,$13,$17,$13
               40B5   17 13 17 13
               40B9   17 13 17 13
               40BD   17 13 17 13
               40C1   17 13 17 13
               40C5   17 13 17 13
               40C9   17 13 17 13
               40CD   17 13 17 13
               40D1   17 13 17 13
               40D5   17 13 17 13
    394        40D9   15 17 15 17          FCB $15,$17,$15,$17,$15,$17,$15,$17,$15,$17,$15,$17,$15,$17,$15,$17,$15,$17,$15,$17,$15,$17,$15,$17,$15,$17,$15,$17,$15,$17,$15,$17,$15,$17,$15,$17,$15,$17,$15,$17
               40DD   15 17 15 17
               40E1   15 17 15 17
               40E5   15 17 15 17
               40E9   15 17 15 17
               40ED   15 17 15 17
               40F1   15 17 15 17
               40F5   15 17 15 17
               40F9   15 17 15 17
               40FD   15 17 15 17
    395        4101   15 17 15 17          FCB $15,$17,$15,$17,$15,$17,$15,$17,$15,$17,$15,$17,$15,$17,$15,$17,$15,$17,$15,$17,$15,$17,$15,$17,$15,$17,$15,$17,$15,$17,$15,$17,$15,$17,$15,$17,$15,$17,$15,$17
               4105   15 17 15 17
               4109   15 17 15 17
               410D   15 17 15 17
               4111   15 17 15 17
               4115   15 17 15 17
               4119   15 17 15 17
               411D   15 17 15 17
               4121   15 17 15 17
               4125   15 17 15 17
    396        4129   15 17 15 17          FCB $15,$17,$15,$17,$15,$17,$15,$17,$15,$17,$15,$17,$15,$17,$15,$17,$15,$17,$15,$17,$15,$17,$15,$17,$15,$17,$15,$17,$15,$17,$15,$17,$15,$17,$15,$17,$15,$17,$15,$17
               412D   15 17 15 17
               4131   15 17 15 17
               4135   15 17 15 17
               4139   15 17 15 17
               413D   15 17 15 17
               4141   15 17 15 17
               4145   15 17 15 17
               4149   15 17 15 17
               414D   15 17 15 17
    397        4151   15 17 15 17          FCB $15,$17,$15,$17,$15,$17,$15,$17,$15,$17,$15,$17,$15,$17,$15,$17,$15,$17,$15,$17,$15,$17,$15,$17,$15,$17,$15,$17,$15,$17,$15,$17,$15,$17,$15,$17,$15,$17,$15,$17
               4155   15 17 15 17
               4159   15 17 15 17
               415D   15 17 15 17
               4161   15 17 15 17
               4165   15 17 15 17
               4169   15 17 15 17
               416D   15 17 15 17
               4171   15 17 15 17
               4175   15 17 15 17
    398        4179   15 17 15 17          FCB $15,$17,$15,$17,$15,$17,$15,$17,$15,$17,$15,$17,$15,$17,$15,$17,$15,$17,$15,$17,$15,$17,$15,$17,$15,$17,$15,$17,$15,$17,$15,$17,$15,$17,$15,$17,$15,$17,$15,$17
               417D   15 17 15 17
               4181   15 17 15 17
               4185   15 17 15 17
               4189   15 17 15 17
               418D   15 17 15 17
               4191   15 17 15 17
               4195   15 17 15 17
               4199   15 17 15 17
               419D   15 17 15 17
    399        41A1   11 15 11 15          FCB $11,$15,$11,$15,$11,$15,$11,$15,$11,$15,$11,$15,$11,$15,$11,$15,$11,$15,$11,$15,$11,$15,$11,$15,$11,$15,$11,$15,$11,$15,$11,$15,$11,$15,$11,$15,$11,$15,$11,$15
               41A5   11 15 11 15
               41A9   11 15 11 15
               41AD   11 15 11 15
               41B1   11 15 11 15
               41B5   11 15 11 15
               41B9   11 15 11 15
               41BD   11 15 11 15
               41C1   11 15 11 15
               41C5   11 15 11 15
    400        41C9   11 15 11 15          FCB $11,$15,$11,$15,$11,$15,$11,$15,$11,$15,$11,$15,$11,$15,$11,$15,$11,$15,$11,$15,$11,$15,$11,$15,$11,$15,$11,$15,$11,$15,$11,$15,$11,$15,$11,$15,$11,$15,$11,$15
               41CD   11 15 11 15
               41D1   11 15 11 15
               41D5   11 15 11 15
               41D9   11 15 11 15
               41DD   11 15 11 15
               41E1   11 15 11 15
               41E5   11 15 11 15
               41E9   11 15 11 15
               41ED   11 15 11 15
    401        41F1   11 15 11 15          FCB $11,$15,$11,$15,$11,$15,$11,$15,$11,$15,$11,$15,$11,$15,$11,$15,$11,$15,$11,$15,$15,$17,$15,$17,$15,$17,$15,$17,$15,$17,$15,$17,$15,$17,$15,$17,$15,$17,$15,$17
               41F5   11 15 11 15
               41F9   11 15 11 15
               41FD   11 15 11 15
               4201   11 15 11 15
               4205   15 17 15 17
               4209   15 17 15 17
               420D   15 17 15 17
               4211   15 17 15 17
               4215   15 17 15 17
    402        4219   15 17 15 17          FCB $15,$17,$15,$17,$15,$17,$15,$17,$15,$17,$15,$17,$15,$17,$15,$17,$15,$17,$15,$17,$15,$17,$15,$17,$15,$17,$15,$17,$15,$17,$15,$17,$15,$17,$15,$17,$15,$17,$15,$17
               421D   15 17 15 17
               4221   15 17 15 17
               4225   15 17 15 17
               4229   15 17 15 17
               422D   15 17 15 17
               4231   15 17 15 17
               4235   15 17 15 17
               4239   15 17 15 17
               423D   15 17 15 17
    403        4241   15 17 15 17          FCB $15,$17,$15,$17,$15,$17,$15,$17,$15,$17,$15,$17,$15,$17,$15,$17,$15,$17,$15,$17,$15,$17,$15,$17,$15,$17,$15,$17,$15,$17,$15,$17,$15,$17,$15,$17,$15,$17,$15,$17
               4245   15 17 15 17
               4249   15 17 15 17
               424D   15 17 15 17
               4251   15 17 15 17
               4255   15 17 15 17
               4259   15 17 15 17
               425D   15 17 15 17
               4261   15 17 15 17
               4265   15 17 15 17
    404        4269   11 15 11 15          FCB $11,$15,$11,$15,$11,$15,$11,$15,$11,$15,$11,$15,$11,$15,$11,$15,$11,$15,$11,$15,$11,$15,$11,$15,$11,$15,$11,$15,$11,$15,$11,$15,$11,$15,$11,$15,$11,$15,$11,$15
               426D   11 15 11 15
               4271   11 15 11 15
               4275   11 15 11 15
               4279   11 15 11 15
               427D   11 15 11 15
               4281   11 15 11 15
               4285   11 15 11 15
               4289   11 15 11 15
               428D   11 15 11 15
    405        4291   11 15 11 15          FCB $11,$15,$11,$15,$11,$15,$11,$15,$11,$15,$11,$15,$11,$15,$11,$15,$11,$15,$11,$15,$11,$15,$11,$15,$11,$15,$11,$15,$11,$15,$11,$15,$11,$15,$11,$15,$11,$15,$11,$15
               4295   11 15 11 15
               4299   11 15 11 15
               429D   11 15 11 15
               42A1   11 15 11 15
               42A5   11 15 11 15
               42A9   11 15 11 15
               42AD   11 15 11 15
               42B1   11 15 11 15
               42B5   11 15 11 15
    406        42B9   11 15 11 15          FCB $11,$15,$11,$15,$11,$15,$11,$15,$11,$15,$11,$15,$11,$15,$11,$15,$11,$15,$11,$15,$11,$15,$11,$15,$11,$15,$11,$15,$11,$15,$11,$15,$11,$15,$11,$15,$11,$15,$11,$15
               42BD   11 15 11 15
               42C1   11 15 11 15
               42C5   11 15 11 15
               42C9   11 15 11 15
               42CD   11 15 11 15
               42D1   11 15 11 15
               42D5   11 15 11 15
               42D9   11 15 11 15
               42DD   11 15 11 15
    407        42E1   11 15 11 15          FCB $11,$15,$11,$15,$11,$15,$11,$15,$11,$15,$11,$15,$11,$15,$11,$15,$11,$15,$11,$15,$11,$15,$11,$15,$11,$15,$11,$15,$11,$15,$11,$15,$11,$15,$11,$15,$11,$15,$11,$15
               42E5   11 15 11 15
               42E9   11 15 11 15
               42ED   11 15 11 15
               42F1   11 15 11 15
               42F5   11 15 11 15
               42F9   11 15 11 15
               42FD   11 15 11 15
               4301   11 15 11 15
               4305   11 15 11 15
    408        4309   11 15 11 15          FCB $11,$15,$11,$15,$11,$15,$11,$15,$11,$15,$11,$15,$11,$15,$11,$15,$11,$15,$11,$15,$11,$15,$11,$15,$11,$15,$11,$15,$11,$15,$11,$15,$11,$15,$11,$15,$11,$15,$11,$15
               430D   11 15 11 15
               4311   11 15 11 15
               4315   11 15 11 15
               4319   11 15 11 15
               431D   11 15 11 15
               4321   11 15 11 15
               4325   11 15 11 15
               4329   11 15 11 15
               432D   11 15 11 15
    409        4331   13 11 13 11          FCB $13,$11,$13,$11,$13,$11,$13,$11,$13,$11,$13,$11,$13,$11,$13,$11,$13,$11,$13,$11,$13,$11,$13,$11,$13,$11,$13,$11,$13,$11,$13,$11,$13,$11,$13,$11,$13,$11,$13,$11
               4335   13 11 13 11
               4339   13 11 13 11
               433D   13 11 13 11
               4341   13 11 13 11
               4345   13 11 13 11
               4349   13 11 13 11
               434D   13 11 13 11
               4351   13 11 13 11
               4355   13 11 13 11
    410        4359   13 11 13 11          FCB $13,$11,$13,$11,$13,$11,$13,$11,$13,$11,$13,$11,$13,$11,$13,$11,$13,$11,$13,$11,$13,$11,$13,$11,$13,$11,$13,$11,$13,$11,$13,$11,$13,$11,$13,$11,$13,$11,$13,$11
               435D   13 11 13 11
               4361   13 11 13 11
               4365   13 11 13 11
               4369   13 11 13 11
               436D   13 11 13 11
               4371   13 11 13 11
               4375   13 11 13 11
               4379   13 11 13 11
               437D   13 11 13 11
    411        4381   13 11 13 11          FCB $13,$11,$13,$11,$13,$11,$13,$11,$13,$11,$13,$11,$13,$11,$13,$11,$13,$11,$13,$11,$11,$15,$11,$15,$11,$15,$11,$15,$11,$15,$11,$15,$11,$15,$11,$15,$11,$15,$11,$15
               4385   13 11 13 11
               4389   13 11 13 11
               438D   13 11 13 11
               4391   13 11 13 11
               4395   11 15 11 15
               4399   11 15 11 15
               439D   11 15 11 15
               43A1   11 15 11 15
               43A5   11 15 11 15
    412        43A9   11 15 11 15          FCB $11,$15,$11,$15,$11,$15,$11,$15,$11,$15,$11,$15,$11,$15,$11,$15,$11,$15,$11,$15,$11,$15,$11,$15,$11,$15,$11,$15,$11,$15,$11,$15,$11,$15,$11,$15,$11,$15,$11,$15
               43AD   11 15 11 15
               43B1   11 15 11 15
               43B5   11 15 11 15
               43B9   11 15 11 15
               43BD   11 15 11 15
               43C1   11 15 11 15
               43C5   11 15 11 15
               43C9   11 15 11 15
               43CD   11 15 11 15
    413        43D1   11 15 11 15          FCB $11,$15,$11,$15,$11,$15,$11,$15,$11,$15,$11,$15,$11,$15,$11,$15,$11,$15,$11,$15,$11,$15,$11,$15,$11,$15,$11,$15,$11,$15,$11,$15,$11,$15,$11,$15,$11,$15,$11,$15
               43D5   11 15 11 15
               43D9   11 15 11 15
               43DD   11 15 11 15
               43E1   11 15 11 15
               43E5   11 15 11 15
               43E9   11 15 11 15
               43ED   11 15 11 15
               43F1   11 15 11 15
               43F5   11 15 11 15
    414        43F9   13 11 13 11          FCB $13,$11,$13,$11,$13,$11,$13,$11,$13,$11,$13,$11,$13,$11,$13,$11,$13,$11,$13,$11,$13,$11,$13,$11,$13,$11,$13,$11,$13,$11,$13,$11,$13,$11,$13,$11,$13,$11,$13,$11
               43FD   13 11 13 11
               4401   13 11 13 11
               4405   13 11 13 11
               4409   13 11 13 11
               440D   13 11 13 11
               4411   13 11 13 11
               4415   13 11 13 11
               4419   13 11 13 11
               441D   13 11 13 11
    415        4421   13 11 13 11          FCB $13,$11,$13,$11,$13,$11,$13,$11,$13,$11,$13,$11,$13,$11,$13,$11,$13,$11,$13,$11,$13,$11,$13,$11,$13,$11,$13,$11,$13,$11,$13,$11,$13,$11,$13,$11,$13,$11,$13,$11
               4425   13 11 13 11
               4429   13 11 13 11
               442D   13 11 13 11
               4431   13 11 13 11
               4435   13 11 13 11
               4439   13 11 13 11
               443D   13 11 13 11
               4441   13 11 13 11
               4445   13 11 13 11
    416        4449   13 11 13 11          FCB $13,$11,$13,$11,$13,$11,$13,$11,$13,$11,$13,$11,$13,$11,$13,$11,$13,$11,$13,$11,$13,$11,$13,$11,$13,$11,$13,$11,$13,$11,$13,$11,$13,$11,$13,$11,$13,$11,$13,$11
               444D   13 11 13 11
               4451   13 11 13 11
               4455   13 11 13 11
               4459   13 11 13 11
               445D   13 11 13 11
               4461   13 11 13 11
               4465   13 11 13 11
               4469   13 11 13 11
               446D   13 11 13 11
    417        4471   13 11 13 11          FCB $13,$11,$13,$11,$13,$11,$13,$11,$13,$11,$13,$11,$13,$11,$13,$11,$13,$11,$13,$11,$13,$11,$13,$11,$13,$11,$13,$11,$13,$11,$13,$11,$13,$11,$13,$11,$13,$11,$13,$11
               4475   13 11 13 11
               4479   13 11 13 11
               447D   13 11 13 11
               4481   13 11 13 11
               4485   13 11 13 11
               4489   13 11 13 11
               448D   13 11 13 11
               4491   13 11 13 11
               4495   13 11 13 11
    418        4499   13 11 13 11          FCB $13,$11,$13,$11,$13,$11,$13,$11,$13,$11,$13,$11,$13,$11,$13,$11,$13,$11,$13,$11,$13,$11,$13,$11,$13,$11,$13,$11,$13,$11,$13,$11,$13,$11,$13,$11,$13,$11,$13,$11
               449D   13 11 13 11
               44A1   13 11 13 11
               44A5   13 11 13 11
               44A9   13 11 13 11
               44AD   13 11 13 11
               44B1   13 11 13 11
               44B5   13 11 13 11
               44B9   13 11 13 11
               44BD   13 11 13 11
    419        44C1   17 13 17 13          FCB $17,$13,$17,$13,$17,$13,$17,$13,$17,$13,$17,$13,$17,$13,$17,$13,$17,$13,$17,$13,$17,$13,$17,$13,$17,$13,$17,$13,$17,$13,$17,$13,$17,$13,$17,$13,$17,$13,$17,$13
               44C5   17 13 17 13
               44C9   17 13 17 13
               44CD   17 13 17 13
               44D1   17 13 17 13
               44D5   17 13 17 13
               44D9   17 13 17 13
               44DD   17 13 17 13
               44E1   17 13 17 13
               44E5   17 13 17 13
    420        44E9   17 13 17 13          FCB $17,$13,$17,$13,$17,$13,$17,$13,$17,$13,$17,$13,$17,$13,$17,$13,$17,$13,$17,$13,$17,$13,$17,$13,$17,$13,$17,$13,$17,$13,$17,$13,$17,$13,$17,$13,$17,$13,$17,$13
               44ED   17 13 17 13
               44F1   17 13 17 13
               44F5   17 13 17 13
               44F9   17 13 17 13
               44FD   17 13 17 13
               4501   17 13 17 13
               4505   17 13 17 13
               4509   17 13 17 13
               450D   17 13 17 13
    421        4511   17 13 17 13          FCB $17,$13,$17,$13,$17,$13,$17,$13,$17,$13,$17,$13,$17,$13,$17,$13,$17,$13,$17,$13,$13,$11,$13,$11,$13,$11,$13,$11,$13,$11,$13,$11,$13,$11,$13,$11,$13,$11,$13,$11
               4515   17 13 17 13
               4519   17 13 17 13
               451D   17 13 17 13
               4521   17 13 17 13
               4525   13 11 13 11
               4529   13 11 13 11
               452D   13 11 13 11
               4531   13 11 13 11
               4535   13 11 13 11
    422        4539   13 11 13 11          FCB $13,$11,$13,$11,$13,$11,$13,$11,$13,$11,$13,$11,$13,$11,$13,$11,$13,$11,$13,$11,$13,$11,$13,$11,$13,$11,$13,$11,$13,$11,$13,$11,$13,$11,$13,$11,$13,$11,$13,$11
               453D   13 11 13 11
               4541   13 11 13 11
               4545   13 11 13 11
               4549   13 11 13 11
               454D   13 11 13 11
               4551   13 11 13 11
               4555   13 11 13 11
               4559   13 11 13 11
               455D   13 11 13 11
    423        4561   13 11 13 11          FCB $13,$11,$13,$11,$13,$11,$13,$11,$13,$11,$13,$11,$13,$11,$13,$11,$13,$11,$13,$11,$13,$11,$13,$11,$13,$11,$13,$11,$13,$11,$13,$11,$13,$11,$13,$11,$13,$11,$13,$11
               4565   13 11 13 11
               4569   13 11 13 11
               456D   13 11 13 11
               4571   13 11 13 11
               4575   13 11 13 11
               4579   13 11 13 11
               457D   13 11 13 11
               4581   13 11 13 11
               4585   13 11 13 11
    424        4589   17 13 17 13          FCB $17,$13,$17,$13,$17,$13,$17,$13,$17,$13,$17,$13,$17,$13,$17,$13,$17,$13,$17,$13,$17,$13,$17,$13,$17,$13,$17,$13,$17,$13,$17,$13,$17,$13,$17,$13,$17,$13,$17,$13
               458D   17 13 17 13
               4591   17 13 17 13
               4595   17 13 17 13
               4599   17 13 17 13
               459D   17 13 17 13
               45A1   17 13 17 13
               45A5   17 13 17 13
               45A9   17 13 17 13
               45AD   17 13 17 13
    425        45B1   17 13 17 13          FCB $17,$13,$17,$13,$17,$13,$17,$13,$17,$13,$17,$13,$17,$13,$17,$13,$17,$13,$17,$13,$17,$13,$17,$13,$17,$13,$17,$13,$17,$13,$17,$13,$17,$13,$17,$13,$17,$13,$17,$13
               45B5   17 13 17 13
               45B9   17 13 17 13
               45BD   17 13 17 13
               45C1   17 13 17 13
               45C5   17 13 17 13
               45C9   17 13 17 13
               45CD   17 13 17 13
               45D1   17 13 17 13
               45D5   17 13 17 13
    426        45D9   17 13 17 13          FCB $17,$13,$17,$13,$17,$13,$17,$13,$17,$13,$17,$13,$17,$13,$17,$13,$17,$13,$17,$13,$17,$13,$17,$13,$17,$13,$17,$13,$17,$13,$17,$13,$17,$13,$17,$13,$17,$13,$17,$13
               45DD   17 13 17 13
               45E1   17 13 17 13
               45E5   17 13 17 13
               45E9   17 13 17 13
               45ED   17 13 17 13
               45F1   17 13 17 13
               45F5   17 13 17 13
               45F9   17 13 17 13
               45FD   17 13 17 13
    427        4601   17 13 17 13          FCB $17,$13,$17,$13,$17,$13,$17,$13,$17,$13,$17,$13,$17,$13,$17,$13,$17,$13,$17,$13,$17,$13,$17,$13,$17,$13,$17,$13,$17,$13,$17,$13,$17,$13,$17,$13,$17,$13,$17,$13
               4605   17 13 17 13
               4609   17 13 17 13
               460D   17 13 17 13
               4611   17 13 17 13
               4615   17 13 17 13
               4619   17 13 17 13
               461D   17 13 17 13
               4621   17 13 17 13
               4625   17 13 17 13
    428        4629   17 13 17 13          FCB $17,$13,$17,$13,$17,$13,$17,$13,$17,$13,$17,$13,$17,$13,$17,$13,$17,$13,$17,$13,$17,$13,$17,$13,$17,$13,$17,$13,$17,$13,$17,$13,$17,$13,$17,$13,$17,$13,$17,$13
               462D   17 13 17 13
               4631   17 13 17 13
               4635   17 13 17 13
               4639   17 13 17 13
               463D   17 13 17 13
               4641   17 13 17 13
               4645   17 13 17 13
               4649   17 13 17 13
               464D   17 13 17 13
               ----------------------------------------------------------------

