Pass1
Pass2
      1                        F000    GPU_CMD     EQU $F000
      2                        F003    GPU_CSIZE   EQU $F003
      3                        F005    GPU_DX      EQU $F005
      4                        F007    GPU_DY      EQU $F007
      5                        F008    GPU_X_MSB   EQU $F008
      6                        F009    GPU_X_LSB   EQU $F009
      7                        F00A    GPU_Y_MSB   EQU $F00A
      8                        F00B    GPU_Y_LSB   EQU $F00B
      9                        F010    GPU_COLOR   EQU $F010
     10                        F060    AY_REG      EQU $F060
     11                        F046    KEYB_REG    EQU $F046
     12
     13                        0030    MAZE_NB_LINES   EQU 48
     14
     15        0000                        org $0000
     16                        F0          setdp $F0
     17
     18  2     0000    86 F0               LDA #$F0
     19  8     0002    1E 8B               EXG A,DP
     20
     21  8     0004    BD 0503             JSR wait_gdp_chip
     22
     23  7     0007    7F 0734             CLR TMP_GPU_COLOR
     24
     25                                ****************************
     26                                * SPLASH
     27                                ****************************
     28        000A                    splash
     29  8     000A    BD 04E3             JSR clear_screen
     30
     31  8     000D    BD 0503             JSR wait_gdp_chip
     32
     33  3     0010    8E 0735             LDX #txt_splash_temps
     34  2     0013    86 06               LDA #$6
     35  5     0015    B7 0734             STA TMP_GPU_COLOR       ; Color (blue)
     36  2     0018    86 A0               LDA #$A0
     37  4     001A    97 0B               STA GPU_Y_LSB       ; Y = $78
     38  2     001C    86 45               LDA #$45
     39  4     001E    97 09               STA GPU_X_LSB
     40  2     0020    86 44               LDA #$44
     41  4     0022    97 03               STA GPU_CSIZE
     42  8     0024    BD 062B             JSR display_custom_text
     43
     44  8     0027    BD 0503             JSR wait_gdp_chip
     45
     46  3     002A    8E 073B             LDX #txt_splash_pourri
     47  2     002D    86 06               LDA #$6
     48  5     002F    B7 0734             STA TMP_GPU_COLOR       ; Color (blue)
     49  2     0032    86 70               LDA #$70
     50  4     0034    97 0B               STA GPU_Y_LSB       ; Y = $78
     51  2     0036    86 40               LDA #$40
     52  4     0038    97 09               STA GPU_X_LSB
     53  2     003A    86 44               LDA #$44
     54  4     003C    97 03               STA GPU_CSIZE
     55  8     003E    BD 062B             JSR display_custom_text
     56
     57  8     0041    BD 0503             JSR wait_gdp_chip
     58
     59  3     0044    8E 0742             LDX #txt_splash_credit
     60  2     0047    86 01               LDA #$1
     61  5     0049    B7 0734             STA TMP_GPU_COLOR       ; Color (blue)
     62  2     004C    86 40               LDA #$40
     63  4     004E    97 0B               STA GPU_Y_LSB       ; Y = $78
     64  2     0050    86 28               LDA #$28
     65  4     0052    97 09               STA GPU_X_LSB
     66  2     0054    86 11               LDA #$11
     67  4     0056    97 03               STA GPU_CSIZE
     68  8     0058    BD 062B             JSR display_custom_text
     69
     70        005B                    splash_loop
     71  8     005B    BD 063B             JSR wait_for_space_key
     72
     73                                ****************************
     74                                * GAME INIT
     75                                ****************************
     76  4     005E  108E 0000             LDY #0
     77  7     0062  10BF 0721             STY player_pos
     78
     79  8     0066    BD 0657             JSR rnd
     80  2     0069    84 0F               ANDA #$0F
     81  2     006B    48                  LSLA
     82  6     006C    1F 89               TFR A,B
     83  2     006E    86 00               LDA #0
     84  6     0070    1F 02               TFR D,Y
     85  6+4   0072  10AE A9 076A          LDY enemy_start_pos,Y
     86  7     0077  10BF 0723             STY enemy_pos               ; Reset enemy position
     87
     88  2     007B    86 31               LDA #49
     89  5     007D    B7 0725             STA enemy_hit
     90  4     0080  108E 0062             LDY #98
     91  7     0084  10BF 07B2             STY player_missile_pos
     92  7     0088    7F 07B4             CLR space_key_down
     93  7     008B    7F 072F             CLR gameover
     94  7     008E    7F 0728             CLR counter
     95        0091                    reset_missiles
     96  2     0091    C6 0A               LDB #10
     97  3     0093    8E 0000             LDX #0
     98        0096                    reset_missiles_loop
     99  6+4   0096    6F 89 079E          CLR missiles_life,X
    100  4+1   009A    30 02               LEAX 2,X                * X += 2
    101  2     009C    5A                  DECB
    102  3     009D    26 F7               BNE reset_missiles_loop
    103
    104  2     009F    86 F0               LDA #$F0
    105  5     00A1    B7 072D             STA energy
    106  2     00A4    86 00               LDA #0
    107  5     00A6    B7 072E             STA energy_lost
    108  2     00A9    86 11               LDA #$11
    109  5     00AB    B7 0730             STA gameover_size
    110  2     00AE    86 30               LDA #$30
    111  5     00B0    B7 06D6             STA score+7
    112  5     00B3    B7 06D7             STA score+8
    113  5     00B6    B7 06D8             STA score+9
    114  5     00B9    B7 06D9             STA score+10
    115  2     00BC    86 A0               LDA #$A0
    116  5     00BE    B7 0731             STA gameover_x
    117  2     00C1    86 02               LDA #2
    118  5     00C3    B7 0726             STA enemy_pause_move_rate
    119
    120  8     00C6    BD 04F6             JSR vblank
    121  8     00C9    BD 04E3             JSR clear_screen
    122
    123  3     00CC    8E 0030             LDX #MAZE_NB_LINES
    124  2     00CF    86 06               LDA #6
    125  5     00D1    B7 0734             STA TMP_GPU_COLOR   * color
    126
    127        00D4                    line_loop
    128  4+1   00D4    30 1F               LEAX -1,X
    129  8     00D6    BD 050E             JSR draw_line
    130  4     00D9    8C 0000             CMPX #0
    131  3     00DC    26 F6               BNE line_loop
    132
    133  8     00DE    BD 0598             JSR draw_energy_line
    134
    135  2     00E1    86 01               LDA #1
    136  5     00E3    B7 0734             STA TMP_GPU_COLOR           * color
    137  3     00E6    8E 0000             LDX #0
    138  8     00E9    BD 050E             JSR draw_line
    139  4+1   00EC    30 01               LEAX 1,X
    140  8     00EE    BD 050E             JSR draw_line
    141  4+1   00F1    30 01               LEAX 1,X
    142  8     00F3    BD 050E             JSR draw_line
    143  4+1   00F6    30 01               LEAX 1,X
    144  8     00F8    BD 050E             JSR draw_line
    145                                ****************************
    146                                * DISPLAY SCORE
    147                                ****************************
    148  2     00FB    86 F0               LDA #$F0
    149
    150  8     00FD    BD 0503             JSR wait_gdp_chip
    151
    152  4     0100    97 0B               STA GPU_Y_LSB
    153  3     0102    8E 06CF             LDX #score
    154  8     0105    BD 05E1             JSR display_text
    155
    156                                ****************************
    157                                * MAIN LOOP
    158                                ****************************
    159        0108                    MAIN_LOOP
    160  8     0108    BD 04F6             JSR vblank
    161
    162                                ************************
    163                                * GAME OVER?
    164                                ************************
    165  5     010B    B6 072D             LDA energy
    166  2     010E    81 00               CMPA #0
    167  3     0110    26 26               BNE game_not_over
    168
    169  2     0112    86 80               LDA #$80
    170  4     0114    97 0B               STA GPU_Y_LSB
    171  3     0116    8E 0760             LDX #txt_game_over
    172  2     0119    86 44               LDA #$44
    173  4     011B    97 03               STA GPU_CSIZE
    174  2     011D    86 14               LDA #$14             ; X position
    175  4     011F    97 09               STA GPU_X_LSB
    176  8     0121    BD 0620             JSR display_game_over
    177
    178  5     0124    F6 0728             LDB counter
    179  2     0127    C1 78               CMPB #120
    180  3     0129    27 07               BEQ game_over_processing_done
    181  2     012B    5C                  INCB
    182  5     012C    F7 0728             STB counter
    183  4     012F    7E 0108             JMP MAIN_LOOP
    184        0132                    game_over_processing_done
    185  8     0132    BD 063B             JSR wait_for_space_key
    186  4     0135    7E 000A             JMP splash
    187        0138                    game_not_over
    188
    189                                ****************** ERASE ENEMY
    190  2     0138    86 0F               LDA #15
    191  5     013A    B7 0734             STA TMP_GPU_COLOR           * color
    192  7     013D  10BE 0723             LDY enemy_pos           * Draw enemy
    193  8     0141    BD 053C             JSR draw_enemy_line
    194  4+1   0144    31 21               LEAY 1,Y
    195  8     0146    BD 053C             JSR draw_enemy_line
    196
    197  5     0149    B6 0728             LDA counter
    198  2     014C    4C                  INCA
    199  5     014D    B7 0728             STA counter
    200  5     0150    B1 0726             CMPA enemy_pause_move_rate
    201  3     0153    27 0B               BEQ reset_enemy_counter         ; If counter == reset_enemy_counter
    202  7     0155    7A 0725             DEC enemy_hit                   ; Otherwise, enemy_hit--
    203  4+1   0158    31 21               LEAY 1,Y
    204  7     015A  10BF 0723             STY enemy_pos                   ; And move the enemy
    205  3     015E    20 03               BRA erase_enemy_end
    206        0160                    reset_enemy_counter
    207  7     0160    7F 0728             CLR counter                     ; We just reset the counter but don't move the enemy
    208        0163                    erase_enemy_end
    209
    210  2     0163    86 0F               LDA #15
    211  5     0165    B7 0734             STA TMP_GPU_COLOR   * color
    212        0168                    erase_missiles
    213                                ****************** ERASE MISSILES
    214  2     0168    C6 0A               LDB #10
    215  3     016A    8E 0000             LDX #0
    216        016D                    erase_missile_loop
    217  4+4   016D    A6 89 079E          LDA missiles_life,X
    218  2     0171    81 00               CMPA #0
    219  3     0173    27 0D               BEQ next_erase_missile        * If the pointer is null, then next
    220  6+4   0175  10AE 89 078A          LDY missiles_pos,X      * Y = missiles_pos[X]
    221  8     017A    BD 056A             JSR draw_missile_line   * Draw missile first line
    222  4+1   017D    31 21               LEAY 1,Y                * Y++
    223  8     017F    BD 056A             JSR draw_missile_line   * Draw missile second line
    224        0182                    next_erase_missile
    225  4+1   0182    30 02               LEAX 2,X                * X += 2
    226  2     0184    5A                  DECB
    227  3     0185    26 E6               BNE erase_missile_loop
    228        0187                    end_erase_missiles
    229
    230                                ****************************
    231                                * SOUNDS
    232                                ****************************
    233  5     0187    B6 0732             LDA sound_lvl
    234  2     018A    81 00               CMPA #0
    235  3     018C    27 06               BEQ shooting_sound
    236  2     018E    4A                  DECA
    237  5     018F    B7 0732             STA sound_lvl
    238  3     0192    20 28               BRA sound_end
    239        0194                    shooting_sound
    240  5     0194    B6 0733             LDA sound_sht_dur
    241  2     0197    81 00               CMPA #0
    242  3     0199    27 21               BEQ sound_end
    243  2     019B    4A                  DECA
    244  5     019C    B7 0733             STA sound_sht_dur
    245  2     019F    81 00               CMPA #0
    246  3     01A1    26 09               BNE shooting_sound_down
    247  4     01A3  108E 0713             LDY #sound_off
    248  8     01A7    BD 0677             JSR play_sound
    249  3     01AA    20 10               BRA sound_end
    250        01AC                    shooting_sound_down
    251  6     01AC    FC 06E9             LDD sound_shoot
    252  4     01AF    C3 0064             ADDD #100
    253  6     01B2    FD 06E9             STD sound_shoot
    254  4     01B5  108E 06E9             LDY #sound_shoot
    255  8     01B9    BD 0677             JSR play_sound
    256        01BC                    sound_end
    257
    258                                ****************************
    259                                * MOVE ENEMY
    260                                ****************************
    261  5     01BC    B6 0725             LDA enemy_hit
    262  2     01BF    81 00               CMPA #0
    263  3     01C1    26 45               BNE move_enemy_end
    264        01C3                    hit_by_enemy
    265  2     01C3    86 05               LDA #5
    266  5     01C5    B7 0727             STA hit
    267  2     01C8    86 14               LDA #20
    268  5     01CA    B7 0732             STA sound_lvl
    269  4     01CD  108E 06DB             LDY #sound_hit_by_enemy
    270  8     01D1    BD 0677             JSR play_sound
    271
    272  5     01D4    B6 072E             LDA energy_lost
    273  2     01D7    8B 10               ADDA #$10
    274  5     01D9    B7 072E             STA energy_lost
    275  5     01DC    B6 072D             LDA energy
    276  2     01DF    82 10               SBCA #$10
    277  5     01E1    B7 072D             STA energy
    278  2     01E4    81 00               CMPA #0
    279  3     01E6    26 03               BNE reposition_enemy
    280  7     01E8    7F 0728             CLR counter                 ; If energy == 0, counter = 0
    281        01EB                    reposition_enemy
    282  8     01EB    BD 0657             JSR rnd
    283  2     01EE    84 0F               ANDA #$0F
    284  2     01F0    48                  LSLA
    285  6     01F1    1F 89               TFR A,B
    286  2     01F3    86 00               LDA #0
    287  6     01F5    1F 02               TFR D,Y
    288  6+4   01F7  10AE A9 076A          LDY enemy_start_pos,Y
    289  7     01FC  10BF 0723             STY enemy_pos
    290  2     0200    86 31               LDA #49
    291  5     0202    B7 0725             STA enemy_hit
    292  8     0205    BD 05BC             JSR erase_energy_line
    293        0208                    move_enemy_end
    294
    295                                ****************************
    296                                * MOVE MISSILES
    297                                ****************************
    298  2     0208    C6 0A               LDB #10
    299  3     020A    8E 0000             LDX #0
    300        020D                    move_missile_loop
    301  4+4   020D    A6 89 079E          LDA missiles_life,X
    302  2     0211    81 00               CMPA #0
    303  3     0213    27 21               BEQ next_missile_to_move        ; missiles_life[X] == 0, next
    304  2     0215    4A                  DECA
    305  4+4   0216    A7 89 079E          STA missiles_life,X             ; missiles_life[X]--
    306  6+4   021A  10AE 89 078A          LDY missiles_pos,X
    307  8     021F  10BC 0723             CMPY enemy_pos
    308  6     0223  1027 00B9             LBEQ destroy_enemy               ; if missile_pos[X] == enemy_pos, call destroy_enemy
    309        0227                    move_missile
    310  4+1   0227    31 3E               LEAY -2,Y
    311  6+4   0229  10AF 89 078A          STY missiles_pos,X              ; missiles_pos[X]--
    312  8     022E  10BC 0723             CMPY enemy_pos
    313  6     0232  1027 00AA             LBEQ destroy_enemy               ; if missile_pos[X] == enemy_pos, call destroy_enemy
    314        0236                    next_missile_to_move
    315  4+1   0236    30 02               LEAX 2,X                        ; X += 2
    316  2     0238    5A                  DECB
    317  3     0239    26 D2               BNE move_missile_loop
    318
    319                                ****************** DRAW ENEMY
    320  2     023B    86 03               LDA #3
    321  5     023D    B7 0734             STA TMP_GPU_COLOR   * color
    322  7     0240  10BE 0723             LDY enemy_pos           * Draw enemy
    323  8     0244    BD 053C             JSR draw_enemy_line
    324  4+1   0247    31 21               LEAY 1,Y
    325  8     0249    BD 053C             JSR draw_enemy_line
    326
    327  2     024C    86 05               LDA #5
    328  5     024E    B7 0734             STA TMP_GPU_COLOR   * color
    329        0251                    draw_missiles
    330                                ****************** DRAW MISSILES
    331  2     0251    C6 0A               LDB #10
    332  3     0253    8E 0000             LDX #0
    333        0256                    draw_missile_loop
    334  4+4   0256    A6 89 079E          LDA missiles_life,X
    335  2     025A    81 00               CMPA #0
    336  3     025C    27 0D               BEQ next_missile        * If the pointer is null, then next
    337  6+4   025E  10AE 89 078A          LDY missiles_pos,X      * Y = missiles_pos[X]
    338  8     0263    BD 056A             JSR draw_missile_line   * Draw missile first line
    339  4+1   0266    31 21               LEAY 1,Y                * Y++
    340  8     0268    BD 056A             JSR draw_missile_line   * Draw missile second line
    341        026B                    next_missile
    342  4+1   026B    30 02               LEAX 2,X                * X += 2
    343  2     026D    5A                  DECB
    344  3     026E    26 E6               BNE draw_missile_loop
    345        0270                    end_missiles
    346
    347                                ****************************
    348                                *    ; Bit 6 off ($40): right key down
    349                                *    ; Bit 5 off ($20): left key down
    350                                *    ; Bit 4 off ($10): space key down
    351        0270                    check_keyboard
    352  4     0270    96 46               LDA KEYB_REG
    353  2     0272    84 10               ANDA #$10
    354  2     0274    81 00               CMPA #$00
    355  6     0276  1026 0107             LBNE keyboard_space
    356  2     027A    86 00               LDA #0
    357  5     027C    B7 07B4             STA space_key_down          ; space_key_down = 0
    358        027F                    next_key
    359  5     027F    B6 0728             LDA counter
    360  2     0282    84 01               ANDA #$1
    361  2     0284    81 00               CMPA #0
    362  6     0286  1026 FE7E             LBNE MAIN_LOOP
    363  7     028A  10BE 0721             LDY player_pos              ; Y = player_pos
    364
    365        028E                    check_direction_keyboard
    366  4     028E    96 46               LDA KEYB_REG
    367  6     0290    1F 89               TFR A,B
    368  2     0292    84 20               ANDA #$20
    369  2     0294    81 00               CMPA #$00
    370  6     0296  1026 001A             LBNE single_move_left_done
    371  5     029A    B6 07B5             LDA move_key_down
    372  2     029D    81 00               CMPA #0
    373  3     029F    27 0B               BEQ set_first_move_left
    374  2     02A1    81 01               CMPA #1
    375  3     02A3    27 0C               BEQ set_continuous_move_left
    376  2     02A5    4A                  DECA
    377  5     02A6    B7 07B5             STA move_key_down
    378  4     02A9    7E 0108             JMP MAIN_LOOP
    379        02AC                    set_first_move_left
    380  2     02AC    86 03               LDA #3
    381  5     02AE    B7 07B5             STA move_key_down
    382        02B1                    set_continuous_move_left
    383  4     02B1    7E 0456             JMP KEYBOARD_LEFT
    384        02B4                    single_move_left_done
    385  6     02B4    1F 98               TFR B,A
    386  2     02B6    84 40               ANDA #$40
    387  2     02B8    81 00               CMPA #$00
    388  6     02BA  1026 001A             LBNE single_move_right_done
    389  5     02BE    B6 07B5             LDA move_key_down
    390  2     02C1    81 00               CMPA #0
    391  3     02C3    27 0B               BEQ set_first_move_right
    392  2     02C5    81 01               CMPA #1
    393  3     02C7    27 0C               BEQ set_continuous_move_right
    394  2     02C9    4A                  DECA
    395  5     02CA    B7 07B5             STA move_key_down
    396  4     02CD    7E 0108             JMP MAIN_LOOP
    397        02D0                    set_first_move_right
    398  2     02D0    86 03               LDA #3
    399  5     02D2    B7 07B5             STA move_key_down
    400        02D5                    set_continuous_move_right
    401  4     02D5    7E 03CB             JMP KEYBOARD_RIGHT
    402        02D8                    single_move_right_done
    403  2     02D8    86 00               LDA #0
    404  5     02DA    B7 07B5             STA move_key_down
    405  4     02DD    7E 0108             JMP MAIN_LOOP
    406
    407                                ****************************
    408                                * END OF MAIN LOOP
    409                                ****************************
    410
    411                                ****************************
    412                                * DESTROY ENEMY
    413                                ****************************
    414        02E0                    destroy_enemy
    415  8     02E0    BD 0503             JSR wait_gdp_chip
    416
    417  2     02E3    86 F0               LDA #$F0
    418  4     02E5    97 0B               STA GPU_Y_LSB
    419  3     02E7    8E 06D6             LDX #score_nb
    420  2     02EA    86 0F               LDA #$F
    421  5     02EC    B7 0734             STA TMP_GPU_COLOR       ; Color (white)
    422  8     02EF    BD 0600             JSR print_score
    423
    424  5+1   02F2    34 04               PSHS B
    425  2     02F4    86 00               LDA #0
    426  4+4   02F6    A7 89 079E          STA missiles_life,X
    427  4     02FA  108E 0000             LDY #0
    428  8     02FE    BD 0657             JSR rnd
    429  2     0301    84 0F               ANDA #$0F
    430  2     0303    48                  LSLA
    431  6     0304    1F 89               TFR A,B
    432  2     0306    86 00               LDA #0
    433  6     0308    1F 02               TFR D,Y
    434  6+4   030A  10AE A9 076A          LDY enemy_start_pos,Y
    435  7     030F  10BF 0723             STY enemy_pos
    436  2     0313    86 31               LDA #49
    437  5     0315    B7 0725             STA enemy_hit
    438  2     0318    86 14               LDA #20
    439  5     031A    B7 0732             STA sound_lvl
    440  4     031D  108E 0705             LDY #sound_enemy_hit
    441  8     0321    BD 0677             JSR play_sound
    442  5+1   0324    35 04               PULS B
    443  5     0326    B6 06D9             LDA (score+10)
    444  2     0329    81 39               CMPA #$39
    445  3     032B    27 07               BEQ score_digit_2
    446  2     032D    4C                  INCA
    447  5     032E    B7 06D9             STA (score+10)
    448  4     0331    7E 036C             JMP update_score
    449        0334                    score_digit_2
    450  7     0334    7C 0726             INC enemy_pause_move_rate           ; Every 10 enemies shot, we increase their speed
    451  2     0337    86 30               LDA #$30
    452  5     0339    B7 06D9             STA (score+10)
    453  5     033C    B6 06D8             LDA (score+9)
    454  2     033F    81 39               CMPA #$39
    455  3     0341    27 07               BEQ score_digit_3
    456  2     0343    4C                  INCA
    457  5     0344    B7 06D8             STA (score+9)
    458  4     0347    7E 036C             JMP update_score
    459        034A                    score_digit_3
    460  2     034A    86 30               LDA #$30
    461  5     034C    B7 06D8             STA (score+9)
    462  5     034F    B6 06D7             LDA (score+8)
    463  2     0352    81 39               CMPA #$39
    464  3     0354    27 07               BEQ score_digit_4
    465  2     0356    4C                  INCA
    466  5     0357    B7 06D7             STA (score+8)
    467  4     035A    7E 036C             JMP update_score
    468        035D                    score_digit_4
    469  2     035D    86 30               LDA #$30
    470  5     035F    B7 06D7             STA (score+8)
    471  5     0362    B6 06D6             LDA (score+7)
    472  2     0365    4C                  INCA
    473  5     0366    B7 06D6             STA (score+7)
    474  4     0369    7E 036C             JMP update_score
    475        036C                    update_score
    476  8     036C    BD 0503             JSR wait_gdp_chip
    477
    478  2     036F    86 F0               LDA #$F0
    479  4     0371    97 0B               STA GPU_Y_LSB
    480  3     0373    8E 06D6             LDX #score_nb
    481  2     0376    86 00               LDA #$0
    482  5     0378    B7 0734             STA TMP_GPU_COLOR       ; Color (white)
    483  8     037B    BD 0600             JSR print_score
    484  4     037E    7E 0236             JMP next_missile_to_move
    485
    486                                *********** FIRE
    487        0381                    keyboard_space
    488  5     0381    B6 07B4             LDA space_key_down
    489  2     0384    81 00               CMPA #0
    490  3     0386    26 40               BNE keyboard_space_end          ; is space_key_down != 0, skip
    491  2     0388    86 01               LDA #1
    492  5     038A    B7 07B4             STA space_key_down              ; space_key_down = 1
    493  2     038D    C6 0A               LDB #10
    494  3     038F    8E 0000             LDX #0
    495        0392                    look_for_available_missile_loop
    496  4+4   0392    A6 89 079E          LDA missiles_life,X
    497  2     0396    81 00               CMPA #0
    498  3     0398    26 29               BNE look_for_next_available_missile     ; if missiles_life[X] != 0, next
    499  7     039A  10BE 07B2             LDY player_missile_pos        ; Y = player_missile_pos
    500  6+4   039E  10AF 89 078A          STY missiles_pos,X               ; missiles_pos[X] = PLAYER_MISSILE_POS
    501  2     03A3    86 31               LDA #49
    502  4+4   03A5    A7 89 079E          STA missiles_life,X             ; missiles_life[X] = 100
    503  5     03A9    B6 0732             LDA sound_lvl
    504  2     03AC    81 00               CMPA #0
    505  3     03AE    26 18               BNE keyboard_space_end
    506  4     03B0  108E 06E9             LDY #sound_shoot
    507  8     03B4    BD 0677             JSR play_sound
    508  2     03B7    86 14               LDA #$14
    509  5     03B9    B7 06E9             STA sound_shoot
    510  2     03BC    86 0A               LDA #10
    511  5     03BE    B7 0733             STA sound_sht_dur
    512  3     03C1    20 05               BRA keyboard_space_end
    513        03C3                    look_for_next_available_missile
    514  4+1   03C3    30 02               LEAX 2,X
    515  2     03C5    5A                  DECB
    516  3     03C6    26 CA               BNE look_for_available_missile_loop
    517        03C8                    keyboard_space_end
    518  4     03C8    7E 027F             JMP next_key
    519
    520                                *********** MOVE RIGHT
    521        03CB                    KEYBOARD_RIGHT                      * Y = player position
    522  5     03CB  108C 002D             CMPY #45                        * If Y == 45 and going right
    523  3     03CF    27 4A               BEQ RIGHT_RESET                 * Then reset the player_position
    524  2     03D1    86 06               LDA #6                          * Otherwise paint lines Y, Y+1, Y+2 blue
    525  5     03D3    B7 0734             STA TMP_GPU_COLOR   * color
    526
    527  4+1   03D6    30 20               LEAX 0,Y
    528  8     03D8    BD 050E             JSR draw_line
    529  4+1   03DB    30 01               LEAX 1,X
    530  8     03DD    BD 050E             JSR draw_line
    531  4+1   03E0    30 01               LEAX 1,X
    532  8     03E2    BD 050E             JSR draw_line
    533
    534  2     03E5    86 01               LDA #1                          * And paint lines Y+4, Y+5 yellow (Y+3 stays yellow)
    535  5     03E7    B7 0734             STA TMP_GPU_COLOR   * color
    536
    537  4+1   03EA    30 24               LEAX 4,Y
    538  8     03EC    BD 050E             JSR draw_line
    539  4+1   03EF    30 01               LEAX 1,X
    540  8     03F1    BD 050E             JSR draw_line
    541  5     03F4  108C 002A             CMPY #42                        * If player_position == 42
    542  3     03F8    27 07               BEQ KEYBOARD_RIGHT_DRAW_FIRST_VECTOR
    543  4+1   03FA    30 01               LEAX 1,X
    544  8     03FC    BD 050E             JSR draw_line
    545
    546  3     03FF    20 06               BRA MOVE_PLAYER_RIGHT
    547        0401                    KEYBOARD_RIGHT_DRAW_FIRST_VECTOR
    548  4+1   0401    30 A8 D6            LEAX -42,Y
    549  8     0404    BD 050E             JSR draw_line
    550
    551        0407                    MOVE_PLAYER_RIGHT
    552  4+1   0407    31 23               LEAY 3,Y
    553  7     0409  10BF 0721             STY player_pos
    554  7     040D  10BE 07B2             LDY player_missile_pos
    555  4+1   0411    31 A8 64            LEAY 100,Y
    556  7     0414  10BF 07B2             STY player_missile_pos
    557  4     0418    7E 0108             JMP MAIN_LOOP
    558        041B                    RIGHT_RESET
    559  2     041B    86 06               LDA #6
    560  5     041D    B7 0734             STA TMP_GPU_COLOR   * color
    561
    562  4+1   0420    30 20               LEAX 0,Y
    563  8     0422    BD 050E             JSR draw_line
    564  4+1   0425    30 01               LEAX 1,X
    565  8     0427    BD 050E             JSR draw_line
    566  4+1   042A    30 01               LEAX 1,X
    567  8     042C    BD 050E             JSR draw_line
    568
    569  4     042F  108E 0062             LDY #98
    570  7     0433  10BF 07B2             STY player_missile_pos
    571  4     0437  108E 0000             LDY #0
    572  7     043B  10BF 0721             STY player_pos
    573  2     043F    86 01               LDA #1
    574  5     0441    B7 0734             STA TMP_GPU_COLOR   * color
    575
    576  4+1   0444    30 21               LEAX 1,Y
    577  8     0446    BD 050E             JSR draw_line
    578  4+1   0449    30 01               LEAX 1,X
    579  8     044B    BD 050E             JSR draw_line
    580  4+1   044E    30 01               LEAX 1,X
    581  8     0450    BD 050E             JSR draw_line
    582
    583  4     0453    7E 0108             JMP MAIN_LOOP
    584
    585                                *********** MOVE LEFT
    586        0456                    KEYBOARD_LEFT
    587  5     0456  108C 0000             CMPY #0
    588  3     045A    27 4A               BEQ LEFT_RESET
    589  2     045C    86 06               LDA #6
    590  5     045E    B7 0734             STA TMP_GPU_COLOR   * color
    591  4+1   0461    30 21               LEAX 1,Y
    592  8     0463    BD 050E             JSR draw_line
    593  4+1   0466    30 01               LEAX 1,X
    594  8     0468    BD 050E             JSR draw_line
    595
    596  5     046B  108C 002D             CMPY #45
    597  3     046F    27 07               BEQ KEYBOARD_LEFT_ERASE_FIRST_VECTOR
    598  4+1   0471    30 23               LEAX 3,Y
    599  8     0473    BD 050E             JSR draw_line
    600
    601  3     0476    20 06               BRA MOVE_PLAYER_LEFT
    602        0478                    KEYBOARD_LEFT_ERASE_FIRST_VECTOR
    603  3     0478    8E 0000             LDX #0
    604  8     047B    BD 050E             JSR draw_line
    605
    606        047E                    MOVE_PLAYER_LEFT
    607  2     047E    86 01               LDA #1
    608  5     0480    B7 0734             STA TMP_GPU_COLOR   * color
    609
    610  4+1   0483    30 3F               LEAX -1,Y
    611  8     0485    BD 050E             JSR draw_line
    612  4+1   0488    30 1F               LEAX -1,X
    613  8     048A    BD 050E             JSR draw_line
    614  4+1   048D    30 1F               LEAX -1,X
    615  8     048F    BD 050E             JSR draw_line
    616
    617  4+1   0492    31 3D               LEAY -3,Y
    618  7     0494  10BF 0721             STY player_pos
    619  7     0498  10BE 07B2             LDY player_missile_pos
    620  4+1   049C    31 A8 9C            LEAY -100,Y
    621  7     049F  10BF 07B2             STY player_missile_pos
    622  4     04A3    7E 0108             JMP MAIN_LOOP
    623        04A6                    LEFT_RESET
    624  2     04A6    86 06               LDA #6
    625  5     04A8    B7 0734             STA TMP_GPU_COLOR   * color
    626  4+1   04AB    30 21               LEAX 1,Y
    627  8     04AD    BD 050E             JSR draw_line
    628  4+1   04B0    30 01               LEAX 1,X
    629  8     04B2    BD 050E             JSR draw_line
    630  4+1   04B5    30 01               LEAX 1,X
    631  8     04B7    BD 050E             JSR draw_line
    632
    633  4     04BA  108E 063E             LDY #1598
    634  7     04BE  10BF 07B2             STY player_missile_pos
    635  4     04C2  108E 002D             LDY #45
    636  7     04C6  10BF 0721             STY player_pos
    637  2     04CA    86 01               LDA #1
    638  5     04CC    B7 0734             STA TMP_GPU_COLOR   * color
    639  4+1   04CF    30 20               LEAX 0,Y
    640  8     04D1    BD 050E             JSR draw_line
    641  4+1   04D4    30 01               LEAX 1,X
    642  8     04D6    BD 050E             JSR draw_line
    643  4+1   04D9    30 01               LEAX 1,X
    644  8     04DB    BD 050E             JSR draw_line
    645
    646  4     04DE    7E 0108             JMP MAIN_LOOP
    647
    648        04E1                    END_PRG
    649  3     04E1    20 FE               BRA END_PRG
    650
    651                                ********************************************************************************
    652
    653        04E3                    clear_screen
    654        04E3                    wait_video_chip_CS                  * WAIT_EF9365_READY();
    655  4     04E3    96 00               LDA GPU_CMD
    656  2     04E5    84 04               ANDA #4
    657  3     04E7    27 FA               BEQ wait_video_chip_CS
    658  5     04E9    B6 0734             LDA TMP_GPU_COLOR
    659  4     04EC    97 10               STA GPU_COLOR
    660        04EE                    clear_screen_black
    661  2     04EE    C6 04               LDB #$4
    662        04F0                    clear_screen_cmd
    663  3     04F0    8E F000             LDX #GPU_CMD
    664  4+0   04F3    E7 84           	STB ,X
    665  5     04F5    39                  RTS
    666
    667                                ********************************************************************************
    668
    669        04F6                    vblank
    670        04F6                    wait_for_vsync
    671  4     04F6    96 00               LDA GPU_CMD
    672  2     04F8    84 02               ANDA #$02
    673  3     04FA    27 FA               BEQ wait_for_vsync
    674        04FC                    wait_for_vblank
    675  4     04FC    96 00               LDA GPU_CMD
    676  2     04FE    84 02               ANDA #$02
    677  3     0500    26 FA               BNE wait_for_vblank
    678  5     0502    39                  RTS
    679
    680        0503                    wait_gdp_chip
    681  5+1   0503    34 02               pshs A
    682        0505                    wait_gdp_chip_loop
    683  4     0505    96 00               LDA GPU_CMD
    684  2     0507    84 04               ANDA #4
    685  3     0509    27 FA               BEQ wait_gdp_chip_loop
    686  5+1   050B    35 02               puls A
    687  5     050D    39                  RTS
    688
    689                                ********************************************************************************
    690
    691        050E                    draw_line
    692        050E                    wait_video_chip_DL                  * WAIT_EF9365_READY();
    693  4     050E    96 00               LDA GPU_CMD
    694  2     0510    84 04               ANDA #4
    695  3     0512    27 FA               BEQ wait_video_chip_DL
    696
    697  5     0514    B6 0734             LDA TMP_GPU_COLOR
    698  4     0517    97 10               STA GPU_COLOR
    699
    700  4+4   0519    A6 89 07B7          LDA line_x1,X
    701  4     051D    97 09               STA GPU_X_LSB   * X = X_staRT
    702  6     051F    0F 08               CLR GPU_X_MSB   * ? = 0
    703  6     0521    0F 0A               CLR GPU_Y_MSB   * ? = 0
    704  4+4   0523    A6 89 07E7          LDA line_y1,X
    705  4     0527    97 0B               STA GPU_Y_LSB   * Y = B
    706  4+4   0529    A6 89 0817          LDA line_dx,X
    707  4     052D    97 05               STA GPU_DX   * dX
    708  4+4   052F    A6 89 0847          LDA line_dy,X
    709  4     0533    97 07               STA GPU_DY   * dY
    710  4+4   0535    A6 89 0877          LDA line_cmd,X
    711  4     0539    97 00               STA GPU_CMD   * CMD = draw_line
    712  5     053B    39                  RTS
    713
    714                                ********************************************************************************
    715
    716        053C                    draw_enemy_line
    717        053C                    wait_video_chip_DEL                  * WAIT_EF9365_READY();
    718  4     053C    96 00               LDA GPU_CMD
    719  2     053E    84 04               ANDA #4
    720  3     0540    27 FA               BEQ wait_video_chip_DEL
    721
    722  5     0542    B6 0734             LDA TMP_GPU_COLOR
    723  4     0545    97 10               STA GPU_COLOR
    724
    725  4+4   0547    A6 A9 08D7          LDA line_enemy_x1,Y
    726  4     054B    97 09               STA GPU_X_LSB   * X = X_staRT
    727  6     054D    0F 08               CLR GPU_X_MSB   * ? = 0
    728  6     054F    0F 0A               CLR GPU_Y_MSB   * ? = 0
    729  4+4   0551    A6 A9 0F17          LDA line_enemy_y1,Y
    730  4     0555    97 0B               STA GPU_Y_LSB   * Y = B
    731  4+4   0557    A6 A9 1557          LDA line_enemy_dx,Y
    732  4     055B    97 05               STA GPU_DX   * dX
    733  4+4   055D    A6 A9 1B97          LDA line_enemy_dy,Y
    734  4     0561    97 07               STA GPU_DY   * dY
    735  4+4   0563    A6 A9 21D7          LDA line_enemy_cmd,Y
    736  4     0567    97 00               STA GPU_CMD   * CMD = draw_line
    737  5     0569    39                  RTS
    738
    739                                ********************************************************************************
    740
    741        056A                    draw_missile_line
    742        056A                    WAIT_VIDEO_CHIP_DEL                  * WAIT_EF9365_READY();
    743  4     056A    96 00               LDA GPU_CMD
    744  2     056C    84 04               ANDA #4
    745  3     056E    27 FA               BEQ WAIT_VIDEO_CHIP_DEL
    746
    747  5     0570    B6 0734             LDA TMP_GPU_COLOR
    748  4     0573    97 10               STA GPU_COLOR
    749
    750  4+4   0575    A6 A9 2817          LDA line_missile_x1,Y
    751  4     0579    97 09               STA GPU_X_LSB   * X = X_staRT
    752  6     057B    0F 08               CLR GPU_X_MSB   * ? = 0
    753  6     057D    0F 0A               CLR GPU_Y_MSB   * ? = 0
    754  4+4   057F    A6 A9 2E57          LDA line_missile_y1,Y
    755  4     0583    97 0B               STA GPU_Y_LSB   * Y = B
    756  4+4   0585    A6 A9 3497          LDA line_missile_dx,Y
    757  4     0589    97 05               STA GPU_DX   * dX
    758  4+4   058B    A6 A9 3AD7          LDA line_missile_dy,Y
    759  4     058F    97 07               STA GPU_DY   * dY
    760  4+4   0591    A6 A9 4117          LDA line_missile_cmd,Y
    761  4     0595    97 00               STA GPU_CMD   * CMD = draw_line
    762  5     0597    39                  RTS
    763
    764                                ********************************************************************************
    765
    766        0598                    draw_energy_line
    767
    768  8     0598    BD 0503             JSR wait_gdp_chip
    769
    770  5     059B    B6 0734             LDA TMP_GPU_COLOR
    771  4     059E    97 10               STA GPU_COLOR
    772
    773  2     05A0    86 00               LDA #0
    774  4     05A2    97 09               STA GPU_X_LSB   * X = 0
    775  6     05A4    0F 08               CLR GPU_X_MSB   * ? = 0
    776  6     05A6    0F 0A               CLR GPU_Y_MSB   * ? = 0
    777  2     05A8    86 0A               LDA #10
    778  4     05AA    97 0B               STA GPU_Y_LSB   * Y = 10
    779  5     05AC    B6 072D             LDA energy
    780  4     05AF    97 05               STA GPU_DX   * dX = energy
    781  2     05B1    86 02               LDA #2
    782  4     05B3    97 10               STA GPU_COLOR   * color = 2
    783  6     05B5    0F 07               CLR GPU_DY   * dY = 0
    784  2     05B7    86 11               LDA #$11
    785  4     05B9    97 00               STA GPU_CMD   * CMD = draw_line
    786  5     05BB    39                  RTS
    787
    788        05BC                    erase_energy_line
    789
    790  8     05BC    BD 0503             JSR wait_gdp_chip
    791
    792  5     05BF    B6 0734             LDA TMP_GPU_COLOR
    793  4     05C2    97 10               STA GPU_COLOR
    794
    795  5     05C4    B6 072D             LDA energy
    796  4     05C7    97 09               STA GPU_X_LSB   * X = 0
    797  6     05C9    0F 08               CLR GPU_X_MSB   * ? = 0
    798  6     05CB    0F 0A               CLR GPU_Y_MSB   * ? = 0
    799  2     05CD    86 0A               LDA #10
    800  4     05CF    97 0B               STA GPU_Y_LSB   * Y = 10
    801  5     05D1    B6 072E             LDA energy_lost
    802  4     05D4    97 05               STA GPU_DX   * dX = energy
    803  2     05D6    86 0F               LDA #15
    804  4     05D8    97 10               STA GPU_COLOR   * color = 15
    805  6     05DA    0F 07               CLR GPU_DY   * dY = 0
    806  2     05DC    86 11               LDA #$11
    807  4     05DE    97 00               STA GPU_CMD   * CMD = draw_line
    808  5     05E0    39                  RTS
    809
    810                                ********************************************************************************
    811
    812        05E1                    display_text
    813
    814  8     05E1    BD 0503             JSR wait_gdp_chip
    815
    816  2     05E4    86 00               LDA #$0
    817  4     05E6    97 10               STA GPU_COLOR       ; Color (white)
    818
    819  6     05E8    0F 08               CLR $F008
    820  2     05EA    86 60               LDA #$60        ; X position
    821  4     05EC    97 09               STA $F009
    822  6     05EE    0F 0A               CLR $F00A
    823
    824  2     05F0    86 11               LDA #$11        ; Text size
    825  4     05F2    97 03               STA GPU_CSIZE
    826
    827        05F4                    text_loop
    828  4+2   05F4    A6 80               LDA ,X+
    829  3     05F6    27 07               BEQ text_end
    830
    831  8     05F8    BD 0503             JSR wait_gdp_chip
    832
    833  4     05FB    97 00               STA $F000
    834  3     05FD    20 F5               BRA text_loop
    835        05FF                    text_end
    836  5     05FF    39                  RTS
    837
    838        0600                    print_score
    839
    840  8     0600    BD 0503             JSR wait_gdp_chip
    841
    842  5     0603    B6 0734             LDA TMP_GPU_COLOR
    843  4     0606    97 10               STA GPU_COLOR
    844
    845  6     0608    0F 08               CLR $F008
    846  2     060A    86 8A               LDA #$8A        ; X position
    847  4     060C    97 09               STA $F009
    848  6     060E    0F 0A               CLR $F00A
    849
    850  2     0610    86 11               LDA #$11        ; Text size
    851  4     0612    97 03               STA GPU_CSIZE
    852
    853        0614                    print_score_loop
    854  4+2   0614    A6 80               LDA ,X+
    855  3     0616    27 07               BEQ print_score_end
    856  8     0618    BD 0503             JSR wait_gdp_chip
    857  4     061B    97 00               STA $F000
    858  3     061D    20 F5               BRA print_score_loop
    859        061F                    print_score_end
    860  5     061F    39                  RTS
    861
    862                                ********************************************************************************
    863
    864        0620                    display_game_over
    865
    866  8     0620    BD 0503             JSR wait_gdp_chip
    867
    868  2     0623    86 00               LDA #$0
    869  4     0625    97 10               STA GPU_COLOR       ; Color (white)
    870  2     0627    86 78               LDA #$78
    871  4     0629    97 0B               STA GPU_Y_LSB       ; Y = $78
    872
    873        062B                    display_custom_text
    874  6     062B    0F 08               CLR GPU_X_MSB
    875  6     062D    0F 0A               CLR GPU_Y_MSB
    876
    877        062F                    text_gameover_loop
    878  4+2   062F    A6 80               LDA ,X+
    879  3     0631    27 07               BEQ text_gameover_end
    880
    881  8     0633    BD 0503             JSR wait_gdp_chip
    882
    883  4     0636    97 00               STA $F000
    884  3     0638    20 F5               BRA text_gameover_loop
    885        063A                    text_gameover_end
    886  5     063A    39                  RTS
    887
    888                                ********************************************************************************
    889
    890        063B                    wait_for_space_key
    891  4     063B    96 46               LDA KEYB_REG
    892  2     063D    84 10               ANDA #$10
    893  2     063F    81 00               CMPA #$00
    894  3     0641    27 F8               BEQ wait_for_space_key      ; Wait for the space key NOT to be pressed
    895        0643                    wait_for_space_key_down
    896  8     0643    BD 0657             JSR rnd
    897  4     0646    96 46               LDA KEYB_REG
    898  2     0648    84 10               ANDA #$10
    899  2     064A    81 00               CMPA #$00
    900  3     064C    26 F5               BNE wait_for_space_key_down
    901        064E                    wait_for_space_key_up
    902  4     064E    96 46               LDA KEYB_REG
    903  2     0650    84 10               ANDA #$10
    904  2     0652    81 00               CMPA #$00
    905  3     0654    27 F8               BEQ wait_for_space_key_up
    906  5     0656    39                  RTS
    907
    908                                ********************************************************************************
    909
    910        0657                    rnd
    911  7     0657    7C 072C             INC     rndx
    912  5     065A    B6 0729             LDA     rnda
    913  5     065D    B8 072B             EORA    rndc
    914  5     0660    B8 072C             EORA    rndx
    915  5     0663    B7 0729             STA     rnda
    916  5     0666    BB 072A             ADDA    rndb
    917  5     0669    B7 072A             STA     rndb
    918  2     066C    44                  LSRA
    919  5     066D    BB 072B             ADDA    rndc
    920  5     0670    B8 0729             EORA    rnda
    921  5     0673    B7 072B             STA     rndc
    922  5     0676    39                  RTS
    923
    924        0677                    play_sound
    925  3     0677    8E F060             LDX #AY_REG
    926
    927  2     067A    86 00               LDA #00
    928  4+2   067C    E6 A0               LDB ,Y+
    929  5+0   067E    ED 84               STD ,X
    930
    931  2     0680    86 01               LDA #01
    932  4+2   0682    E6 A0               LDB ,Y+
    933  5+0   0684    ED 84               STD ,X
    934
    935  2     0686    86 02               LDA #02
    936  4+2   0688    E6 A0               LDB ,Y+
    937  5+0   068A    ED 84               STD ,X
    938
    939  2     068C    86 03               LDA #03
    940  4+2   068E    E6 A0               LDB ,Y+
    941  5+0   0690    ED 84               STD ,X
    942
    943  2     0692    86 04               LDA #04
    944  4+2   0694    E6 A0               LDB ,Y+
    945  5+0   0696    ED 84               STD ,X
    946
    947  2     0698    86 05               LDA #05
    948  4+2   069A    E6 A0               LDB ,Y+
    949  5+0   069C    ED 84               STD ,X
    950
    951  2     069E    86 06               LDA #06
    952  4+2   06A0    E6 A0               LDB ,Y+
    953  5+0   06A2    ED 84               STD ,X
    954
    955  2     06A4    86 07               LDA #07
    956  4+2   06A6    E6 A0               LDB ,Y+
    957  5+0   06A8    ED 84               STD ,X
    958
    959  2     06AA    86 08               LDA #08
    960  4+2   06AC    E6 A0               LDB ,Y+
    961  5+0   06AE    ED 84               STD ,X
    962
    963  2     06B0    86 09               LDA #09
    964  4+2   06B2    E6 A0               LDB ,Y+
    965  5+0   06B4    ED 84               STD ,X
    966
    967  2     06B6    86 0A               LDA #10
    968  4+2   06B8    E6 A0               LDB ,Y+
    969  5+0   06BA    ED 84               STD ,X
    970
    971  2     06BC    86 0B               LDA #11
    972  4+2   06BE    E6 A0               LDB ,Y+
    973  5+0   06C0    ED 84               STD ,X
    974
    975  2     06C2    86 0C               LDA #12
    976  4+2   06C4    E6 A0               LDB ,Y+
    977  5+0   06C6    ED 84               STD ,X
    978
    979  2     06C8    86 0D               LDA #13
    980  4+2   06CA    E6 A0               LDB ,Y+
    981  5+0   06CC    ED 84               STD ,X
    982
    983  5     06CE    39                  RTS
    984
    985                                ********************************************************************************
    986
    987        06CF                    score
    988        06CF   53 63 6F 72          FCC /Score: /
               06D3   65 3A 20
    989        06D6                    score_nb
    990        06D6   30 30 30 30          FCC /0000/
    991        06DA   00                   FCB 0
    992
    993        06DB                    sound_hit_by_enemy
    994                                *    FCB $01,$01,$01,$01,$01,$01,$01,$00,$78,$76,$20,$2C,$04,$00
    995        06DB   32 34 37 38          FCB $32,$34,$37,$38,$3A,$2D,$00,$00,$78,$76,$20,$2C,$2E,$00
               06DF   3A 2D 00 00
               06E3   78 76 20 2C
               06E7   2E 00
    996                                *    FCB $F3,$05,$00,$00,$00,$00,$00,$F8,$09,$09,$00,$00,$00,$FF
    997                                *    FCB $00,$00,$00,$00,$00,$00,$1F,$07,$08,$08,$08,$D0,$07,$09
    998
    999        06E9                    sound_shoot
   1000        06E9   14 00 00 00          FCB $14,$00,$00,$00,$00,$00,$00,$7E,$10,$00,$00,$E8,$E3,$00
               06ED   00 00 00 7E
               06F1   10 00 00 E8
               06F5   E3 00
   1001        06F7   02 02 02 02          FCB $02,$02,$02,$02,$02,$02,$20,$78,$78,$76,$20,$2C,$05,$00
               06FB   02 02 20 78
               06FF   78 76 20 2C
               0703   05 00
   1002
   1003        0705                    sound_enemy_hit
   1004        0705   02 02 07 02          FCB $02,$02,$07,$02,$0A,$02,$00,$00,$78,$76,$20,$2C,$2E,$00
               0709   0A 02 00 00
               070D   78 76 20 2C
               0711   2E 00
   1005                                *    FCB $F0,$05,$00,$00,$00,$00,$00,$F8,$09,$09,$00,$00,$00,$00
   1006                                *    FCB $00,$00,$00,$00,$00,$00,$1F,$47,$08,$08,$08,$D0,$07,$09
   1007
   1008        0713                    sound_off
   1009        0713   00 00 00 00          FCB $00,$00,$00,$00,$00,$00,$00,$00,$00,$00,$00,$00,$00,$FF
               0717   00 00 00 00
               071B   00 00 00 00
               071F   00 FF
   1010
   1011        0721   0000             player_pos      FDB $0000
   1012        0723   0000             enemy_pos       FDB $0000
   1013        0725   00               enemy_hit       FCB $00
   1014        0726   00               enemy_pause_move_rate  FCB $00
   1015        0727   00               hit             FCB $00
   1016        0728   00               counter         FCB $00
   1017        0729   00               rnda            FCB 0
   1018        072A   00               rndb            FCB 0
   1019        072B   00               rndc            FCB 0
   1020        072C   00               rndx            FCB 0
   1021        072D   00               energy          FCB 0
   1022        072E   00               energy_lost     FCB 0
   1023        072F   00               gameover        FCB 0
   1024        0730   11               gameover_size   FCB $11
   1025        0731   A0               gameover_x      FCB $A0
   1026        0732   00               sound_lvl       FCB 0
   1027        0733   00               sound_sht_dur   FCB 0
   1028
   1029        0734   00               TMP_GPU_COLOR   FCB 0
   1030
   1031        0735                    txt_splash_temps
   1032        0735   54 65 6D 70          FCC /Temps/
               0739   73
   1033        073A   00                   FCB 0
   1034        073B                    txt_splash_pourri
   1035        073B   50 6F 75 72          FCC /Pourri/
               073F   72 69
   1036        0741   00                   FCB 0
   1037        0742                    txt_splash_credit
   1038        0742   43 6F 70 79          FCC /Copyleft 2025 Laurent Poulain/
               0746   6C 65 66 74
               074A   20 32 30 32
               074E   35 20 4C 61
               0752   75 72 65 6E
               0756   74 20 50 6F
               075A   75 6C 61 69
               075E   6E
   1039        075F   00                   FCB 0
   1040
   1041        0760                    txt_game_over
   1042        0760   47 61 6D 65          FCC /Game Over/
               0764   20 4F 76 65
               0768   72
   1043        0769   00                   FCB 0
   1044
   1045        076A                    enemy_start_pos
   1046        076A   0000 0064            FDB $0000,$0064,$00C8,$012C,$0190,$01F4,$0258,$02BC,$0320,$0384,$03E8,$044C,$04B0,$0514,$0578,$05DC
               076E   00C8 012C
               0772   0190 01F4
               0776   0258 02BC
               077A   0320 0384
               077E   03E8 044C
               0782   04B0 0514
               0786   0578 05DC
   1047        078A                    missiles_pos
   1048        078A   0000 0000            FDB $0000,$0000,$0000,$0000,$0000,$0000,$0000,$0000,$0000,$0000
               078E   0000 0000
               0792   0000 0000
               0796   0000 0000
               079A   0000 0000
   1049        079E                    missiles_life
   1050        079E   0000 0000            FDB $0000,$0000,$0000,$0000,$0000,$0000,$0000,$0000,$0000,$0000
               07A2   0000 0000
               07A6   0000 0000
               07AA   0000 0000
               07AE   0000 0000
   1051        07B2                    player_missile_pos
   1052        07B2   0000                 FDB $0000
   1053        07B4   00               space_key_down  fcb $00
   1054        07B5   00               move_key_down  fcb $00
   1055        07B6   00               next_missile_idx    fcb $00
   1056
   1057

               ----------------------------------------------------------------
   1058                                    INCLUD "temps_pourri/temps_pourri_vectors.asm"
      1        07B7                    line_x1
      2        07B7   71 28 71 7D          FCB $71,$28,$71,$7d,$5a,$7d,$7d,$5a,$7d,$89,$85,$89,$95,$ad,$95,$95,$ad,$95,$a1,$dc,$a1,$a1,$dc,$a1,$a1,$dc,$a1,$95,$ad,$95,$95,$ad,$95,$88,$85,$88,$7c,$59,$7c,$7c
               07BB   5A 7D 7D 5A
               07BF   7D 89 85 89
               07C3   95 AD 95 95
               07C7   AD 95 A1 DC
               07CB   A1 A1 DC A1
               07CF   A1 DC A1 95
               07D3   AD 95 95 AD
               07D7   95 88 85 88
               07DB   7C 59 7C 7C
      3        07DF   7C 59 71 71          FCB $7c,$59,$71,$71,$28,$71,$28,$71
               07E3   28 71 28 71
      4        07E7                    line_y1
      5        07E7   80 4A 80 80          FCB $80,$4a,$80,$80,$4a,$80,$75,$25,$75,$75,$25,$75,$75,$25,$75,$82,$4c,$82,$82,$4c,$82,$8c,$79,$8c,$97,$a7,$97,$97,$a7,$97,$a6,$d1,$a6,$a6,$d1,$a6,$a6,$d1,$a6,$96
               07EB   4A 80 75 25
               07EF   75 75 25 75
               07F3   75 25 75 82
               07F7   4C 82 82 4C
               07FB   82 8C 79 8C
               07FF   97 A7 97 97
               0803   A7 97 A6 D1
               0807   A6 A6 D1 A6
               080B   A6 D1 A6 96
      6        080F   96 A7 96 96          FCB $96,$a7,$96,$96,$a7,$8b,$82,$8b
               0813   A7 8B 82 8B
      7        0817                    line_dx
      8        0817   49 32 0C 23          FCB $49,$32,$c,$23,$0,$0,$23,$2c,$c,$4,$28,$c,$18,$0,$0,$18,$2f,$c,$3b,$0,$0,$3b,$0,$0,$3b,$30,$c,$18,$0,$0,$18,$28,$d,$3,$2c,$c,$23,$0,$0,$23
               081B   00 00 23 2C
               081F   0C 04 28 0C
               0823   18 00 00 18
               0827   2F 0C 3B 00
               082B   00 3B 00 00
               082F   3B 30 0C 18
               0833   00 00 18 28
               0837   0D 03 2C 0C
               083B   23 00 00 23
      9        083F   0B 31 49 00          FCB $b,$31,$49,$0,$0,$49,$0,$0
               0843   00 49 00 00
     10        0847                    line_dy
     11        0847   36 00 00 36          FCB $36,$0,$0,$36,$25,$b,$50,$0,$0,$50,$0,$0,$50,$28,$d,$36,$0,$0,$36,$2e,$a,$13,$2e,$b,$10,$0,$0,$10,$2a,$f,$2b,$0,$0,$2b,$0,$0,$2b,$2a,$10,$11
               084B   25 0B 50 00
               084F   00 50 00 00
               0853   50 28 0D 36
               0857   00 00 36 2E
               085B   0A 13 2E 0B
               085F   10 00 00 10
               0863   2A 0F 2B 00
               0867   00 2B 00 00
               086B   2B 2A 10 11
     12        086F   00 00 11 0B          FCB $0,$0,$11,$b,$25,$9,$38,$b
               0873   25 09 38 0B
     13        0877                    line_cmd
     14        0877   17 11 11 17          FCB $17,$11,$11,$17,$15,$15,$17,$11,$11,$17,$11,$11,$15,$11,$11,$15,$11,$11,$15,$11,$11,$15,$11,$11,$11,$13,$13,$11,$11,$11,$11,$13,$13,$13,$13,$13,$13,$15,$15,$13
               087B   15 15 17 11
               087F   11 17 11 11
               0883   15 11 11 15
               0887   11 11 15 11
               088B   11 15 11 11
               088F   11 13 13 11
               0893   11 11 11 13
               0897   13 13 13 13
               089B   13 15 15 13
     15        089F   13 13 13 15          FCB $13,$13,$13,$15,$15,$17,$15,$15
               08A3   15 17 15 15
     16        08A7                    line_color
     17        08A7   01 01 01 01          FCB $1,$1,$1,$1,$6,$6,$6,$6,$6,$6,$6,$6,$6,$6,$6,$6,$6,$6,$6,$6,$6,$6,$6,$6,$6,$6,$6,$6,$6,$6,$6,$6,$6,$6,$6,$6,$6,$6,$6,$6
               08AB   06 06 06 06
               08AF   06 06 06 06
               08B3   06 06 06 06
               08B7   06 06 06 06
               08BB   06 06 06 06
               08BF   06 06 06 06
               08C3   06 06 06 06
               08C7   06 06 06 06
               08CB   06 06 06 06
     18        08CF   06 06 06 06          FCB $6,$6,$6,$6,$6,$6,$6,$6
               08D3   06 06 06 06
     19        08D7                    line_enemy_x1
     20        08D7   72 7A 71 79          FCB $72,$7a,$71,$79,$6f,$79,$6e,$78,$6d,$78,$6c,$77,$6b,$76,$6a,$75,$68,$75,$67,$75,$66,$74,$65,$73,$64,$73,$63,$72,$61,$71,$60,$70,$5f,$6f,$5e,$6f,$5c,$6e,$5b,$6e
               08DB   6F 79 6E 78
               08DF   6D 78 6C 77
               08E3   6B 76 6A 75
               08E7   68 75 67 75
               08EB   66 74 65 73
               08EF   64 73 63 72
               08F3   61 71 60 70
               08F7   5F 6F 5E 6F
               08FB   5C 6E 5B 6E
     21        08FF   5A 6D 59 6C          FCB $5a,$6d,$59,$6c,$57,$6c,$56,$6b,$55,$6b,$54,$6a,$52,$69,$51,$69,$50,$68,$4f,$68,$4e,$67,$4d,$66,$4c,$66,$4a,$65,$49,$64,$48,$64,$47,$63,$45,$63,$43,$62,$43,$61
               0903   57 6C 56 6B
               0907   55 6B 54 6A
               090B   52 69 51 69
               090F   50 68 4F 68
               0913   4E 67 4D 66
               0917   4C 66 4A 65
               091B   49 64 48 64
               091F   47 63 45 63
               0923   43 62 43 61
     22        0927   41 61 40 60          FCB $41,$61,$40,$60,$3f,$60,$3e,$5f,$3d,$5e,$3b,$5e,$3a,$5d,$39,$5d,$38,$5c,$36,$5b,$7c,$7c,$7b,$7b,$7b,$7b,$7a,$7a,$7a,$7a,$79,$79,$78,$78,$78,$78,$77,$77,$77,$77
               092B   3F 60 3E 5F
               092F   3D 5E 3B 5E
               0933   3A 5D 39 5D
               0937   38 5C 36 5B
               093B   7C 7C 7B 7B
               093F   7B 7B 7A 7A
               0943   7A 7A 79 79
               0947   78 78 78 78
               094B   77 77 77 77
     23        094F   76 76 75 75          FCB $76,$76,$75,$75,$75,$75,$74,$74,$74,$74,$73,$73,$72,$72,$72,$72,$71,$71,$71,$71,$70,$70,$6f,$6f,$6f,$6f,$6e,$6e,$6e,$6e,$6d,$6d,$6c,$6c,$6c,$6c,$6b,$6b,$6b,$6b
               0953   75 75 74 74
               0957   74 74 73 73
               095B   72 72 72 72
               095F   71 71 71 71
               0963   70 70 6F 6F
               0967   6F 6F 6E 6E
               096B   6E 6E 6D 6D
               096F   6C 6C 6C 6C
               0973   6B 6B 6B 6B
     24        0977   6A 6A 69 69          FCB $6a,$6a,$69,$69,$69,$69,$68,$68,$67,$67,$67,$67,$66,$66,$66,$66,$65,$65,$64,$64,$64,$64,$63,$63,$63,$63,$62,$62,$61,$61,$61,$61,$60,$60,$60,$60,$5f,$5f,$5e,$5e
               097B   69 69 68 68
               097F   67 67 67 67
               0983   66 66 66 66
               0987   65 65 64 64
               098B   64 64 63 63
               098F   63 63 62 62
               0993   61 61 61 61
               0997   60 60 60 60
               099B   5F 5F 5E 5E
     25        099F   7E 87 7D 87          FCB $7e,$87,$7d,$87,$7d,$87,$7c,$87,$7c,$87,$7b,$87,$7a,$87,$7a,$87,$79,$86,$79,$86,$78,$86,$77,$86,$77,$86,$77,$86,$76,$86,$75,$86,$75,$86,$75,$86,$74,$86,$74,$86
               09A3   7D 87 7C 87
               09A7   7C 87 7B 87
               09AB   7A 87 7A 87
               09AF   79 86 79 86
               09B3   78 86 77 86
               09B7   77 86 77 86
               09BB   76 86 75 86
               09BF   75 86 75 86
               09C3   74 86 74 86
     26        09C7   73 86 72 86          FCB $73,$86,$72,$86,$72,$85,$71,$85,$71,$85,$70,$85,$6f,$85,$6f,$85,$6e,$85,$6e,$85,$6d,$85,$6c,$85,$6c,$85,$6b,$85,$6a,$85,$6a,$85,$69,$85,$69,$84,$68,$84,$67,$84
               09CB   72 85 71 85
               09CF   71 85 70 85
               09D3   6F 85 6F 85
               09D7   6E 85 6E 85
               09DB   6D 85 6C 85
               09DF   6C 85 6B 85
               09E3   6A 85 6A 85
               09E7   69 85 69 84
               09EB   68 84 67 84
     27        09EF   67 84 66 84          FCB $67,$84,$66,$84,$66,$84,$65,$84,$64,$84,$64,$84,$63,$84,$63,$84,$62,$84,$61,$84,$8a,$94,$8a,$94,$8a,$95,$8a,$95,$8a,$96,$8a,$96,$8b,$96,$8b,$97,$8a,$97,$8a,$98
               09F3   66 84 65 84
               09F7   64 84 64 84
               09FB   63 84 63 84
               09FF   62 84 61 84
               0A03   8A 94 8A 94
               0A07   8A 95 8A 95
               0A0B   8A 96 8A 96
               0A0F   8B 96 8B 97
               0A13   8A 97 8A 98
     28        0A17   8A 98 8A 99          FCB $8a,$98,$8a,$99,$8a,$99,$8a,$99,$8a,$99,$8a,$99,$8a,$9a,$8a,$9a,$8a,$9a,$8a,$9b,$8a,$9b,$8a,$9c,$89,$9c,$89,$9d,$89,$9d,$89,$9d,$89,$9e,$89,$9e,$89,$9f,$89,$9f
               0A1B   8A 99 8A 99
               0A1F   8A 99 8A 99
               0A23   8A 9A 8A 9A
               0A27   8A 9A 8A 9B
               0A2B   8A 9B 8A 9C
               0A2F   89 9C 89 9D
               0A33   89 9D 89 9D
               0A37   89 9E 89 9E
               0A3B   89 9F 89 9F
     29        0A3F   89 9F 89 A0          FCB $89,$9f,$89,$a0,$89,$a0,$89,$a1,$89,$a1,$89,$a1,$89,$a2,$88,$a2,$88,$a3,$88,$a3,$88,$a4,$88,$a4,$88,$a4,$88,$a5,$88,$a5,$88,$a6,$88,$a6,$88,$a6,$88,$a7,$88,$a7
               0A43   89 A0 89 A1
               0A47   89 A1 89 A1
               0A4B   89 A2 88 A2
               0A4F   88 A3 88 A3
               0A53   88 A4 88 A4
               0A57   88 A4 88 A5
               0A5B   88 A5 88 A6
               0A5F   88 A6 88 A6
               0A63   88 A7 88 A7
     30        0A67   96 96 96 96          FCB $96,$96,$96,$96,$97,$97,$97,$97,$98,$98,$98,$98,$98,$98,$99,$99,$99,$99,$9a,$9a,$9a,$9a,$9b,$9b,$9b,$9b,$9b,$9b,$9c,$9c,$9c,$9c,$9d,$9d,$9d,$9d,$9d,$9d,$9e,$9e
               0A6B   97 97 97 97
               0A6F   98 98 98 98
               0A73   98 98 99 99
               0A77   99 99 9A 9A
               0A7B   9A 9A 9B 9B
               0A7F   9B 9B 9B 9B
               0A83   9C 9C 9C 9C
               0A87   9D 9D 9D 9D
               0A8B   9D 9D 9E 9E
     31        0A8F   9E 9E 9F 9F          FCB $9e,$9e,$9f,$9f,$9f,$9f,$a0,$a0,$a0,$a0,$a0,$a0,$a1,$a1,$a1,$a1,$a2,$a2,$a2,$a2,$a2,$a2,$a3,$a3,$a3,$a3,$a4,$a4,$a4,$a4,$a4,$a4,$a5,$a5,$a5,$a5,$a6,$a6,$a6,$a6
               0A93   9F 9F A0 A0
               0A97   A0 A0 A0 A0
               0A9B   A1 A1 A1 A1
               0A9F   A2 A2 A2 A2
               0AA3   A2 A2 A3 A3
               0AA7   A3 A3 A4 A4
               0AAB   A4 A4 A4 A4
               0AAF   A5 A5 A5 A5
               0AB3   A6 A6 A6 A6
     32        0AB7   A7 A7 A7 A7          FCB $a7,$a7,$a7,$a7,$a7,$a7,$a8,$a8,$a8,$a8,$a9,$a9,$a9,$a9,$a9,$a9,$aa,$aa,$aa,$aa,$98,$a0,$98,$a1,$99,$a2,$99,$a3,$9a,$a3,$9a,$a4,$9a,$a5,$9b,$a6,$9b,$a8,$9c,$a8
               0ABB   A7 A7 A8 A8
               0ABF   A8 A8 A9 A9
               0AC3   A9 A9 A9 A9
               0AC7   AA AA AA AA
               0ACB   98 A0 98 A1
               0ACF   99 A2 99 A3
               0AD3   9A A3 9A A4
               0AD7   9A A5 9B A6
               0ADB   9B A8 9C A8
     33        0ADF   9C A9 9D AA          FCB $9c,$a9,$9d,$aa,$9d,$ab,$9d,$ac,$9e,$ad,$9f,$ae,$9f,$af,$a0,$b0,$a0,$b1,$a1,$b2,$a1,$b3,$a2,$b4,$a1,$b5,$a2,$b6,$a2,$b7,$a2,$b8,$a3,$b9,$a3,$ba,$a4,$bb,$a5,$bb
               0AE3   9D AB 9D AC
               0AE7   9E AD 9F AE
               0AEB   9F AF A0 B0
               0AEF   A0 B1 A1 B2
               0AF3   A1 B3 A2 B4
               0AF7   A1 B5 A2 B6
               0AFB   A2 B7 A2 B8
               0AFF   A3 B9 A3 BA
               0B03   A4 BB A5 BB
     34        0B07   A5 BD A6 BE          FCB $a5,$bd,$a6,$be,$a6,$bf,$a7,$c0,$a7,$c1,$a7,$c2,$a8,$c3,$a7,$c5,$a8,$c6,$a8,$c6,$a9,$c8,$a9,$c8,$a9,$ca,$ab,$ca,$ab,$cb,$ac,$cc,$ac,$cd,$ac,$ce,$ad,$cf,$ad,$d0
               0B0B   A6 BF A7 C0
               0B0F   A7 C1 A7 C2
               0B13   A8 C3 A7 C5
               0B17   A8 C6 A8 C6
               0B1B   A9 C8 A9 C8
               0B1F   A9 CA AB CA
               0B23   AB CB AC CC
               0B27   AC CD AC CE
               0B2B   AD CF AD D0
     35        0B2F   A2 A2 A3 A3          FCB $a2,$a2,$a3,$a3,$a4,$a4,$a5,$a5,$a6,$a6,$a7,$a7,$a8,$a8,$a9,$a9,$aa,$aa,$ab,$ab,$ac,$ac,$ad,$ad,$ae,$ae,$af,$af,$b0,$b0,$b1,$b1,$b2,$b2,$b3,$b3,$b4,$b4,$b5,$b5
               0B33   A4 A4 A5 A5
               0B37   A6 A6 A7 A7
               0B3B   A8 A8 A9 A9
               0B3F   AA AA AB AB
               0B43   AC AC AD AD
               0B47   AE AE AF AF
               0B4B   B0 B0 B1 B1
               0B4F   B2 B2 B3 B3
               0B53   B4 B4 B5 B5
     36        0B57   B6 B6 B7 B7          FCB $b6,$b6,$b7,$b7,$b8,$b8,$b9,$b9,$ba,$ba,$bb,$bb,$bc,$bc,$bd,$bd,$be,$be,$bf,$bf,$c1,$c1,$c2,$c2,$c3,$c3,$c4,$c4,$c5,$c5,$c6,$c6,$c7,$c7,$c8,$c8,$c9,$c9,$ca,$ca
               0B5B   B8 B8 B9 B9
               0B5F   BA BA BB BB
               0B63   BC BC BD BD
               0B67   BE BE BF BF
               0B6B   C1 C1 C2 C2
               0B6F   C3 C3 C4 C4
               0B73   C5 C5 C6 C6
               0B77   C7 C7 C8 C8
               0B7B   C9 C9 CA CA
     37        0B7F   CB CB CC CC          FCB $cb,$cb,$cc,$cc,$cd,$cd,$ce,$ce,$cf,$cf,$d0,$d0,$d1,$d1,$d2,$d2,$d3,$d3,$d4,$d4,$a2,$a2,$a3,$a3,$a4,$a4,$a5,$a5,$a6,$a6,$a7,$a7,$a8,$a8,$a9,$a9,$aa,$aa,$ab,$ab
               0B83   CD CD CE CE
               0B87   CF CF D0 D0
               0B8B   D1 D1 D2 D2
               0B8F   D3 D3 D4 D4
               0B93   A2 A2 A3 A3
               0B97   A4 A4 A5 A5
               0B9B   A6 A6 A7 A7
               0B9F   A8 A8 A9 A9
               0BA3   AA AA AB AB
     38        0BA7   AC AC AD AD          FCB $ac,$ac,$ad,$ad,$ae,$ae,$af,$af,$b0,$b0,$b1,$b1,$b2,$b2,$b3,$b3,$b4,$b4,$b5,$b5,$b6,$b6,$b7,$b7,$b8,$b8,$b9,$b9,$ba,$ba,$bb,$bb,$bc,$bc,$bd,$bd,$be,$be,$bf,$bf
               0BAB   AE AE AF AF
               0BAF   B0 B0 B1 B1
               0BB3   B2 B2 B3 B3
               0BB7   B4 B4 B5 B5
               0BBB   B6 B6 B7 B7
               0BBF   B8 B8 B9 B9
               0BC3   BA BA BB BB
               0BC7   BC BC BD BD
               0BCB   BE BE BF BF
     39        0BCF   C1 C1 C2 C2          FCB $c1,$c1,$c2,$c2,$c3,$c3,$c4,$c4,$c5,$c5,$c6,$c6,$c7,$c7,$c8,$c8,$c9,$c9,$ca,$ca,$cb,$cb,$cc,$cc,$cd,$cd,$ce,$ce,$cf,$cf,$d0,$d0,$d1,$d1,$d2,$d2,$d3,$d3,$d4,$d4
               0BD3   C3 C3 C4 C4
               0BD7   C5 C5 C6 C6
               0BDB   C7 C7 C8 C8
               0BDF   C9 C9 CA CA
               0BE3   CB CB CC CC
               0BE7   CD CD CE CE
               0BEB   CF CF D0 D0
               0BEF   D1 D1 D2 D2
               0BF3   D3 D3 D4 D4
     40        0BF7   9D 9F 9E 9F          FCB $9d,$9f,$9e,$9f,$9e,$a0,$9f,$a1,$a0,$a2,$a2,$9e,$a1,$a2,$a2,$a3,$a3,$a4,$a6,$a1,$a4,$a5,$a5,$a6,$a8,$a2,$a7,$a6,$a8,$a7,$a9,$a7,$ac,$a4,$aa,$a8,$ab,$a9,$ac,$aa
               0BFB   9E A0 9F A1
               0BFF   A0 A2 A2 9E
               0C03   A1 A2 A2 A3
               0C07   A3 A4 A6 A1
               0C0B   A4 A5 A5 A6
               0C0F   A8 A2 A7 A6
               0C13   A8 A7 A9 A7
               0C17   AC A4 AA A8
               0C1B   AB A9 AC AA
     41        0C1F   AD AA AE AB          FCB $ad,$aa,$ae,$ab,$ae,$ab,$b2,$a8,$b0,$ac,$b1,$ad,$b2,$ad,$b6,$a9,$b4,$ae,$b5,$ae,$b7,$af,$b7,$af,$b8,$b0,$b9,$b0,$bd,$ac,$bb,$b1,$bc,$b1,$bd,$b2,$c1,$ae,$bf,$b2
               0C23   AE AB B2 A8
               0C27   B0 AC B1 AD
               0C2B   B2 AD B6 A9
               0C2F   B4 AE B5 AE
               0C33   B7 AF B7 AF
               0C37   B8 B0 B9 B0
               0C3B   BD AC BB B1
               0C3F   BC B1 BD B2
               0C43   C1 AE BF B2
     42        0C47   C0 B3 C4 AF          FCB $c0,$b3,$c4,$af,$c2,$b3,$c3,$b4,$c4,$b4,$c8,$b1,$c6,$b5,$c7,$b5,$c8,$b6,$c9,$b6,$96,$96,$96,$96,$97,$97,$97,$97,$98,$98,$98,$98,$98,$98,$99,$99,$99,$99,$9a,$9a
               0C4B   C2 B3 C3 B4
               0C4F   C4 B4 C8 B1
               0C53   C6 B5 C7 B5
               0C57   C8 B6 C9 B6
               0C5B   96 96 96 96
               0C5F   97 97 97 97
               0C63   98 98 98 98
               0C67   98 98 99 99
               0C6B   99 99 9A 9A
     43        0C6F   9A 9A 9B 9B          FCB $9a,$9a,$9b,$9b,$9b,$9b,$9b,$9b,$9c,$9c,$9c,$9c,$9d,$9d,$9d,$9d,$9d,$9d,$9e,$9e,$9e,$9e,$9f,$9f,$9f,$9f,$a0,$a0,$a0,$a0,$a0,$a0,$a1,$a1,$a1,$a1,$a2,$a2,$a2,$a2
               0C73   9B 9B 9B 9B
               0C77   9C 9C 9C 9C
               0C7B   9D 9D 9D 9D
               0C7F   9D 9D 9E 9E
               0C83   9E 9E 9F 9F
               0C87   9F 9F A0 A0
               0C8B   A0 A0 A0 A0
               0C8F   A1 A1 A1 A1
               0C93   A2 A2 A2 A2
     44        0C97   A2 A2 A3 A3          FCB $a2,$a2,$a3,$a3,$a3,$a3,$a4,$a4,$a4,$a4,$a4,$a4,$a5,$a5,$a5,$a5,$a6,$a6,$a6,$a6,$a7,$a7,$a7,$a7,$a7,$a7,$a8,$a8,$a8,$a8,$a9,$a9,$a9,$a9,$a9,$a9,$aa,$aa,$aa,$aa
               0C9B   A3 A3 A4 A4
               0C9F   A4 A4 A4 A4
               0CA3   A5 A5 A5 A5
               0CA7   A6 A6 A6 A6
               0CAB   A7 A7 A7 A7
               0CAF   A7 A7 A8 A8
               0CB3   A8 A8 A9 A9
               0CB7   A9 A9 A9 A9
               0CBB   AA AA AA AA
     45        0CBF   93 8B 93 8B          FCB $93,$8b,$93,$8b,$94,$8b,$94,$8b,$94,$8b,$94,$8b,$94,$8b,$95,$8b,$95,$8b,$96,$8b,$96,$8a,$97,$8a,$97,$8a,$97,$8a,$98,$8a,$98,$8a,$99,$8a,$99,$8a,$99,$8a,$9a,$8a
               0CC3   94 8B 94 8B
               0CC7   94 8B 94 8B
               0CCB   94 8B 95 8B
               0CCF   95 8B 96 8B
               0CD3   96 8A 97 8A
               0CD7   97 8A 97 8A
               0CDB   98 8A 98 8A
               0CDF   99 8A 99 8A
               0CE3   99 8A 9A 8A
     46        0CE7   9A 8A 9B 8A          FCB $9a,$8a,$9b,$8a,$9b,$8a,$9c,$8a,$9c,$8a,$9b,$8b,$9d,$8a,$9d,$8a,$9e,$8a,$9d,$8a,$9e,$8a,$9f,$8a,$9f,$8a,$a0,$8a,$a0,$8a,$a0,$8a,$a1,$8a,$a1,$8a,$a2,$8a,$a2,$89
               0CEB   9B 8A 9C 8A
               0CEF   9C 8A 9B 8B
               0CF3   9D 8A 9D 8A
               0CF7   9E 8A 9D 8A
               0CFB   9E 8A 9F 8A
               0CFF   9F 8A A0 8A
               0D03   A0 8A A0 8A
               0D07   A1 8A A1 8A
               0D0B   A2 8A A2 89
     47        0D0F   A3 8A A3 89          FCB $a3,$8a,$a3,$89,$a3,$89,$a4,$89,$a4,$89,$a5,$89,$a5,$89,$a5,$89,$a6,$89,$a6,$88,$85,$7e,$85,$7d,$85,$7d,$85,$7c,$85,$7c,$85,$7b,$85,$7a,$85,$7a,$85,$79,$85,$79
               0D13   A3 89 A4 89
               0D17   A4 89 A5 89
               0D1B   A5 89 A5 89
               0D1F   A6 89 A6 88
               0D23   85 7E 85 7D
               0D27   85 7D 85 7C
               0D2B   85 7C 85 7B
               0D2F   85 7A 85 7A
               0D33   85 79 85 79
     48        0D37   84 79 84 78          FCB $84,$79,$84,$78,$84,$78,$84,$77,$84,$77,$83,$76,$83,$75,$83,$75,$83,$74,$83,$74,$83,$73,$83,$72,$83,$72,$83,$71,$83,$71,$82,$71,$83,$6f,$83,$6f,$83,$6e,$81,$6e
               0D3B   84 78 84 77
               0D3F   84 77 83 76
               0D43   83 75 83 75
               0D47   83 74 83 74
               0D4B   83 73 83 72
               0D4F   83 72 83 71
               0D53   83 71 82 71
               0D57   83 6F 83 6F
               0D5B   83 6E 81 6E
     49        0D5F   82 6D 82 6C          FCB $82,$6d,$82,$6c,$82,$6c,$82,$6b,$82,$6a,$82,$6a,$82,$69,$82,$69,$82,$68,$82,$67,$82,$67,$82,$66,$82,$66,$82,$65,$82,$64,$82,$64,$82,$63,$82,$63,$82,$62,$81,$61
               0D63   82 6C 82 6B
               0D67   82 6A 82 6A
               0D6B   82 69 82 69
               0D6F   82 68 82 67
               0D73   82 67 82 66
               0D77   82 66 82 65
               0D7B   82 64 82 64
               0D7F   82 63 82 63
               0D83   82 62 81 61
     50        0D87   7B 7B 7A 7A          FCB $7b,$7b,$7a,$7a,$7a,$7a,$79,$79,$79,$79,$78,$78,$77,$77,$77,$77,$76,$76,$76,$76,$75,$75,$74,$74,$74,$74,$73,$73,$73,$73,$72,$72,$71,$71,$71,$71,$70,$70,$70,$70
               0D8B   7A 7A 79 79
               0D8F   79 79 78 78
               0D93   77 77 77 77
               0D97   76 76 76 76
               0D9B   75 75 74 74
               0D9F   74 74 73 73
               0DA3   73 73 72 72
               0DA7   71 71 71 71
               0DAB   70 70 70 70
     51        0DAF   6F 6F 6E 6E          FCB $6f,$6f,$6e,$6e,$6e,$6e,$6d,$6d,$6d,$6d,$6c,$6c,$6b,$6b,$6b,$6b,$6a,$6a,$69,$69,$69,$69,$68,$68,$68,$68,$67,$67,$66,$66,$66,$66,$65,$65,$65,$65,$64,$64,$63,$63
               0DB3   6E 6E 6D 6D
               0DB7   6D 6D 6C 6C
               0DBB   6B 6B 6B 6B
               0DBF   6A 6A 69 69
               0DC3   69 69 68 68
               0DC7   68 68 67 67
               0DCB   66 66 66 66
               0DCF   65 65 65 65
               0DD3   64 64 63 63
     52        0DD7   63 63 62 62          FCB $63,$63,$62,$62,$62,$62,$61,$61,$60,$60,$60,$60,$5f,$5f,$5f,$5f,$5e,$5e,$5d,$5d,$72,$74,$74,$72,$70,$72,$6f,$71,$72,$6f,$71,$6e,$6c,$6e,$6c,$6d,$6f,$6a,$6b,$6b
               0DDB   62 62 61 61
               0DDF   60 60 60 60
               0DE3   5F 5F 5F 5F
               0DE7   5E 5E 5D 5D
               0DEB   72 74 74 72
               0DEF   70 72 6F 71
               0DF3   72 6F 71 6E
               0DF7   6C 6E 6C 6D
               0DFB   6F 6A 6B 6B
     53        0DFF   69 6A 6D 67          FCB $69,$6a,$6d,$67,$68,$68,$67,$67,$67,$66,$6a,$63,$65,$64,$65,$63,$68,$5f,$63,$61,$62,$60,$61,$5f,$66,$5a,$60,$5c,$60,$5b,$63,$58,$5e,$59,$5e,$58,$62,$54,$61,$52
               0E03   68 68 67 67
               0E07   67 66 6A 63
               0E0B   65 64 65 63
               0E0F   68 5F 63 61
               0E13   62 60 61 5F
               0E17   66 5A 60 5C
               0E1B   60 5B 63 58
               0E1F   5E 59 5E 58
               0E23   62 54 61 52
     54        0E27   5C 54 5B 53          FCB $5c,$54,$5b,$53,$5f,$4f,$5a,$50,$59,$50,$5d,$4b,$58,$4d,$58,$4c,$57,$4b,$5b,$47,$56,$49,$55,$47,$5a,$43,$54,$45,$53,$44,$58,$3f,$57,$3d,$52,$40,$51,$3f,$55,$3a
               0E2B   5F 4F 5A 50
               0E2F   59 50 5D 4B
               0E33   58 4D 58 4C
               0E37   57 4B 5B 47
               0E3B   56 49 55 47
               0E3F   5A 43 54 45
               0E43   53 44 58 3F
               0E47   57 3D 52 40
               0E4B   51 3F 55 3A
     55        0E4F   70 70 6F 6F          FCB $70,$70,$6f,$6f,$6d,$6d,$6c,$6c,$6b,$6b,$6a,$6a,$68,$68,$67,$67,$66,$66,$65,$65,$63,$63,$62,$62,$61,$61,$60,$60,$5e,$5e,$5d,$5d,$5c,$5c,$5b,$5b,$59,$59,$58,$58
               0E53   6D 6D 6C 6C
               0E57   6B 6B 6A 6A
               0E5B   68 68 67 67
               0E5F   66 66 65 65
               0E63   63 63 62 62
               0E67   61 61 60 60
               0E6B   5E 5E 5D 5D
               0E6F   5C 5C 5B 5B
               0E73   59 59 58 58
     56        0E77   57 57 56 56          FCB $57,$57,$56,$56,$54,$54,$53,$53,$52,$52,$51,$51,$4f,$4f,$4e,$4e,$4d,$4d,$4b,$4b,$4a,$4a,$49,$49,$48,$48,$46,$46,$45,$45,$44,$44,$43,$43,$41,$41,$40,$40,$3f,$3f
               0E7B   54 54 53 53
               0E7F   52 52 51 51
               0E83   4F 4F 4E 4E
               0E87   4D 4D 4B 4B
               0E8B   4A 4A 49 49
               0E8F   48 48 46 46
               0E93   45 45 44 44
               0E97   43 43 41 41
               0E9B   40 40 3F 3F
     57        0E9F   3E 3E 3C 3C          FCB $3e,$3e,$3c,$3c,$3b,$3b,$3a,$3a,$39,$39,$37,$37,$36,$36,$35,$35,$34,$34,$32,$32,$70,$70,$6f,$6f,$6d,$6d,$6c,$6c,$6b,$6b,$6a,$6a,$68,$68,$67,$67,$66,$66,$65,$65
               0EA3   3B 3B 3A 3A
               0EA7   39 39 37 37
               0EAB   36 36 35 35
               0EAF   34 34 32 32
               0EB3   70 70 6F 6F
               0EB7   6D 6D 6C 6C
               0EBB   6B 6B 6A 6A
               0EBF   68 68 67 67
               0EC3   66 66 65 65
     58        0EC7   63 63 62 62          FCB $63,$63,$62,$62,$61,$61,$60,$60,$5e,$5e,$5d,$5d,$5c,$5c,$5b,$5b,$59,$59,$58,$58,$57,$57,$56,$56,$54,$54,$53,$53,$52,$52,$51,$51,$4f,$4f,$4e,$4e,$4d,$4d,$4b,$4b
               0ECB   61 61 60 60
               0ECF   5E 5E 5D 5D
               0ED3   5C 5C 5B 5B
               0ED7   59 59 58 58
               0EDB   57 57 56 56
               0EDF   54 54 53 53
               0EE3   52 52 51 51
               0EE7   4F 4F 4E 4E
               0EEB   4D 4D 4B 4B
     59        0EEF   4A 4A 49 49          FCB $4a,$4a,$49,$49,$48,$48,$46,$46,$45,$45,$44,$44,$43,$43,$41,$41,$40,$40,$3f,$3f,$3e,$3e,$3c,$3c,$3b,$3b,$3a,$3a,$39,$39,$37,$37,$36,$36,$35,$35,$34,$34,$32,$32
               0EF3   48 48 46 46
               0EF7   45 45 44 44
               0EFB   43 43 41 41
               0EFF   40 40 3F 3F
               0F03   3E 3E 3C 3C
               0F07   3B 3B 3A 3A
               0F0B   39 39 37 37
               0F0F   36 36 35 35
               0F13   34 34 32 32
     60        0F17                    line_enemy_y1
     61        0F17   7F 7F 7E 7E          FCB $7f,$7f,$7e,$7e,$7d,$7d,$7c,$7c,$7b,$7b,$7a,$7a,$79,$79,$78,$78,$78,$78,$77,$77,$76,$76,$75,$75,$74,$74,$73,$73,$72,$72,$71,$71,$70,$70,$6f,$6f,$6e,$6e,$6d,$6d
               0F1B   7D 7D 7C 7C
               0F1F   7B 7B 7A 7A
               0F23   79 79 78 78
               0F27   78 78 77 77
               0F2B   76 76 75 75
               0F2F   74 74 73 73
               0F33   72 72 71 71
               0F37   70 70 6F 6F
               0F3B   6E 6E 6D 6D
     62        0F3F   6C 6C 6B 6B          FCB $6c,$6c,$6b,$6b,$6b,$6b,$6a,$6a,$69,$69,$68,$68,$67,$67,$66,$66,$65,$65,$64,$64,$63,$63,$62,$62,$61,$61,$60,$60,$5f,$5f,$5e,$5e,$5d,$5d,$5d,$5d,$5c,$5c,$5b,$5b
               0F43   6B 6B 6A 6A
               0F47   69 69 68 68
               0F4B   67 67 66 66
               0F4F   65 65 64 64
               0F53   63 63 62 62
               0F57   61 61 60 60
               0F5B   5F 5F 5E 5E
               0F5F   5D 5D 5D 5D
               0F63   5C 5C 5B 5B
     63        0F67   5A 5A 59 59          FCB $5a,$5a,$59,$59,$58,$58,$57,$57,$56,$56,$55,$55,$54,$54,$53,$53,$52,$52,$51,$51,$7c,$76,$7a,$75,$79,$73,$79,$72,$77,$70,$76,$6f,$74,$6e,$74,$6c,$74,$6b,$73,$6a
               0F6B   58 58 57 57
               0F6F   56 56 55 55
               0F73   54 54 53 53
               0F77   52 52 51 51
               0F7B   7C 76 7A 75
               0F7F   79 73 79 72
               0F83   77 70 76 6F
               0F87   74 6E 74 6C
               0F8B   74 6B 73 6A
     64        0F8F   72 68 70 68          FCB $72,$68,$70,$68,$70,$66,$6f,$65,$6e,$64,$6d,$62,$6b,$61,$6b,$60,$6a,$5e,$69,$5d,$68,$5b,$66,$5b,$67,$59,$66,$57,$65,$56,$64,$55,$63,$53,$62,$52,$61,$50,$60,$4f
               0F93   70 66 6F 65
               0F97   6E 64 6D 62
               0F9B   6B 61 6B 60
               0F9F   6A 5E 69 5D
               0FA3   68 5B 66 5B
               0FA7   67 59 66 57
               0FAB   65 56 64 55
               0FAF   63 53 62 52
               0FB3   61 50 60 4F
     65        0FB7   5F 4E 5E 4C          FCB $5f,$4e,$5e,$4c,$5d,$4b,$5c,$4a,$5a,$49,$5a,$47,$59,$46,$59,$45,$58,$43,$56,$42,$56,$41,$55,$3f,$54,$3e,$53,$3d,$51,$3b,$51,$3a,$50,$39,$4f,$37,$4f,$36,$4c,$34
               0FBB   5D 4B 5C 4A
               0FBF   5A 49 5A 47
               0FC3   59 46 59 45
               0FC7   58 43 56 42
               0FCB   56 41 55 3F
               0FCF   54 3E 53 3D
               0FD3   51 3B 51 3A
               0FD7   50 39 4F 37
               0FDB   4F 36 4C 34
     66        0FDF   74 74 73 73          FCB $74,$74,$73,$73,$71,$71,$70,$70,$6e,$6e,$6d,$6d,$6c,$6c,$6a,$6a,$69,$69,$68,$68,$66,$66,$65,$65,$63,$63,$62,$62,$61,$61,$5f,$5f,$5e,$5e,$5d,$5d,$5b,$5b,$5a,$5a
               0FE3   71 71 70 70
               0FE7   6E 6E 6D 6D
               0FEB   6C 6C 6A 6A
               0FEF   69 69 68 68
               0FF3   66 66 65 65
               0FF7   63 63 62 62
               0FFB   61 61 5F 5F
               0FFF   5E 5E 5D 5D
               1003   5B 5B 5A 5A
     67        1007   58 58 57 57          FCB $58,$58,$57,$57,$56,$56,$54,$54,$53,$53,$52,$52,$50,$50,$4f,$4f,$4d,$4d,$4c,$4c,$4b,$4b,$49,$49,$48,$48,$46,$46,$45,$45,$44,$44,$42,$42,$41,$41,$40,$40,$3e,$3e
               100B   56 56 54 54
               100F   53 53 52 52
               1013   50 50 4F 4F
               1017   4D 4D 4C 4C
               101B   4B 4B 49 49
               101F   48 48 46 46
               1023   45 45 44 44
               1027   42 42 41 41
               102B   40 40 3E 3E
     68        102F   3D 3D 3B 3B          FCB $3d,$3d,$3b,$3b,$3a,$3a,$39,$39,$37,$37,$36,$36,$35,$35,$33,$33,$32,$32,$30,$30,$74,$74,$73,$73,$71,$71,$70,$70,$6e,$6e,$6d,$6d,$6c,$6c,$6a,$6a,$69,$69,$68,$68
               1033   3A 3A 39 39
               1037   37 37 36 36
               103B   35 35 33 33
               103F   32 32 30 30
               1043   74 74 73 73
               1047   71 71 70 70
               104B   6E 6E 6D 6D
               104F   6C 6C 6A 6A
               1053   69 69 68 68
     69        1057   66 66 65 65          FCB $66,$66,$65,$65,$63,$63,$62,$62,$61,$61,$5f,$5f,$5e,$5e,$5d,$5d,$5b,$5b,$5a,$5a,$58,$58,$57,$57,$56,$56,$54,$54,$53,$53,$52,$52,$50,$50,$4f,$4f,$4d,$4d,$4c,$4c
               105B   63 63 62 62
               105F   61 61 5F 5F
               1063   5E 5E 5D 5D
               1067   5B 5B 5A 5A
               106B   58 58 57 57
               106F   56 56 54 54
               1073   53 53 52 52
               1077   50 50 4F 4F
               107B   4D 4D 4C 4C
     70        107F   4B 4B 49 49          FCB $4b,$4b,$49,$49,$48,$48,$46,$46,$45,$45,$44,$44,$42,$42,$41,$41,$40,$40,$3e,$3e,$3d,$3d,$3b,$3b,$3a,$3a,$39,$39,$37,$37,$36,$36,$35,$35,$33,$33,$32,$32,$30,$30
               1083   48 48 46 46
               1087   45 45 44 44
               108B   42 42 41 41
               108F   40 40 3E 3E
               1093   3D 3D 3B 3B
               1097   3A 3A 39 39
               109B   37 37 36 36
               109F   35 35 33 33
               10A3   32 32 30 30
     71        10A7   77 7A 75 7B          FCB $77,$7a,$75,$7b,$74,$78,$73,$79,$72,$76,$71,$75,$6f,$76,$6e,$73,$6c,$75,$6c,$72,$6a,$70,$69,$6f,$67,$6e,$65,$6f,$65,$6c,$63,$6d,$63,$6a,$62,$69,$5f,$6a,$5f,$67
               10AB   74 78 73 79
               10AF   72 76 71 75
               10B3   6F 76 6E 73
               10B7   6C 75 6C 72
               10BB   6A 70 69 6F
               10BF   67 6E 65 6F
               10C3   65 6C 63 6D
               10C7   63 6A 62 69
               10CB   5F 6A 5F 67
     72        10CF   5C 68 5C 65          FCB $5c,$68,$5c,$65,$5b,$65,$59,$64,$58,$63,$56,$64,$55,$61,$54,$60,$52,$5f,$51,$5e,$4f,$60,$4f,$5c,$4c,$5e,$4c,$5a,$4b,$59,$48,$5b,$48,$57,$45,$5a,$46,$57,$44,$55
               10D3   5B 65 59 64
               10D7   58 63 56 64
               10DB   55 61 54 60
               10DF   52 5F 51 5E
               10E3   4F 60 4F 5C
               10E7   4C 5E 4C 5A
               10EB   4B 59 48 5B
               10EF   48 57 45 5A
               10F3   46 57 44 55
     73        10F7   43 55 41 54          FCB $43,$55,$41,$54,$3e,$55,$3f,$52,$3c,$53,$3c,$50,$3b,$4f,$38,$50,$38,$4d,$35,$4e,$81,$81,$80,$80,$7f,$7f,$7e,$7e,$7d,$7d,$7c,$7c,$7b,$7b,$7a,$7a,$7a,$7a,$79,$79
               10FB   3E 55 3F 52
               10FF   3C 53 3C 50
               1103   3B 4F 38 50
               1107   38 4D 35 4E
               110B   81 81 80 80
               110F   7F 7F 7E 7E
               1113   7D 7D 7C 7C
               1117   7B 7B 7A 7A
               111B   7A 7A 79 79
     74        111F   78 78 77 77          FCB $78,$78,$77,$77,$76,$76,$75,$75,$74,$74,$73,$73,$72,$72,$71,$71,$70,$70,$6f,$6f,$6e,$6e,$6d,$6d,$6d,$6d,$6c,$6c,$6b,$6b,$6a,$6a,$69,$69,$68,$68,$67,$67,$66,$66
               1123   76 76 75 75
               1127   74 74 73 73
               112B   72 72 71 71
               112F   70 70 6F 6F
               1133   6E 6E 6D 6D
               1137   6D 6D 6C 6C
               113B   6B 6B 6A 6A
               113F   69 69 68 68
               1143   67 67 66 66
     75        1147   65 65 64 64          FCB $65,$65,$64,$64,$63,$63,$62,$62,$61,$61,$60,$60,$5f,$5f,$5f,$5f,$5e,$5e,$5d,$5d,$5c,$5c,$5b,$5b,$5a,$5a,$59,$59,$58,$58,$57,$57,$56,$56,$55,$55,$54,$54,$53,$53
               114B   63 63 62 62
               114F   61 61 60 60
               1153   5F 5F 5F 5F
               1157   5E 5E 5D 5D
               115B   5C 5C 5B 5B
               115F   5A 5A 59 59
               1163   58 58 57 57
               1167   56 56 55 55
               116B   54 54 53 53
     76        116F   83 8A 82 8A          FCB $83,$8a,$82,$8a,$81,$89,$80,$89,$7f,$89,$7e,$88,$7d,$88,$7c,$87,$7c,$86,$7b,$86,$7a,$86,$7a,$85,$79,$85,$78,$85,$77,$84,$76,$84,$75,$84,$74,$83,$73,$83,$72,$83
               1173   81 89 80 89
               1177   7F 89 7E 88
               117B   7D 88 7C 87
               117F   7C 86 7B 86
               1183   7A 86 7A 85
               1187   79 85 78 85
               118B   77 84 76 84
               118F   75 84 74 83
               1193   73 83 72 83
     77        1197   71 82 70 82          FCB $71,$82,$70,$82,$70,$82,$6f,$81,$6e,$81,$6d,$81,$6c,$80,$6b,$80,$6a,$80,$69,$7f,$68,$7f,$67,$7f,$66,$7f,$65,$7e,$64,$7e,$63,$7e,$62,$7d,$62,$7d,$61,$7d,$60,$7c
               119B   70 82 6F 81
               119F   6E 81 6D 81
               11A3   6C 80 6B 80
               11A7   6A 80 69 7F
               11AB   68 7F 67 7F
               11AF   66 7F 65 7E
               11B3   64 7E 63 7E
               11B7   62 7D 62 7D
               11BB   61 7D 60 7C
     78        11BF   5F 7C 5E 7C          FCB $5f,$7c,$5e,$7c,$5d,$7b,$5c,$7b,$5b,$7b,$5a,$7a,$59,$7a,$58,$7a,$57,$79,$56,$79,$8e,$95,$8e,$95,$8d,$96,$8d,$96,$8d,$96,$8c,$96,$8c,$97,$8c,$97,$8b,$97,$8b,$97
               11C3   5D 7B 5C 7B
               11C7   5B 7B 5A 7A
               11CB   59 7A 58 7A
               11CF   57 79 56 79
               11D3   8E 95 8E 95
               11D7   8D 96 8D 96
               11DB   8D 96 8C 96
               11DF   8C 97 8C 97
               11E3   8B 97 8B 97
     79        11E7   8B 98 8A 98          FCB $8b,$98,$8a,$98,$8a,$98,$8a,$99,$89,$99,$89,$99,$89,$99,$88,$9a,$88,$99,$88,$99,$88,$9a,$88,$9a,$87,$9b,$86,$9b,$86,$9c,$86,$9c,$85,$9c,$85,$9c,$85,$9d,$84,$9d
               11EB   8A 98 8A 99
               11EF   89 99 89 99
               11F3   89 99 88 9A
               11F7   88 99 88 99
               11FB   88 9A 88 9A
               11FF   87 9B 86 9B
               1203   86 9C 86 9C
               1207   85 9C 85 9C
               120B   85 9D 84 9D
     80        120F   85 9C 85 9D          FCB $85,$9c,$85,$9d,$85,$9d,$84,$9d,$84,$9d,$84,$9e,$83,$9e,$83,$9e,$83,$9e,$82,$9f,$82,$9f,$82,$9f,$81,$a0,$81,$a0,$81,$a0,$80,$a0,$80,$a1,$80,$a1,$7f,$a1,$7f,$a2
               1213   85 9D 84 9D
               1217   84 9D 84 9E
               121B   83 9E 83 9E
               121F   83 9E 82 9F
               1223   82 9F 82 9F
               1227   81 A0 81 A0
               122B   81 A0 80 A0
               122F   80 A1 80 A1
               1233   7F A1 7F A2
     81        1237   98 98 98 98          FCB $98,$98,$98,$98,$99,$99,$99,$99,$99,$99,$99,$99,$9a,$9a,$9a,$9a,$9a,$9a,$9a,$9a,$9b,$9b,$9b,$9b,$9b,$9b,$9c,$9c,$9c,$9c,$9c,$9c,$9c,$9c,$9d,$9d,$9d,$9d,$9d,$9d
               123B   99 99 99 99
               123F   99 99 99 99
               1243   9A 9A 9A 9A
               1247   9A 9A 9A 9A
               124B   9B 9B 9B 9B
               124F   9B 9B 9C 9C
               1253   9C 9C 9C 9C
               1257   9C 9C 9D 9D
               125B   9D 9D 9D 9D
     82        125F   9E 9E 9E 9E          FCB $9e,$9e,$9e,$9e,$9e,$9e,$9e,$9e,$9f,$9f,$9f,$9f,$9f,$9f,$9f,$9f,$a0,$a0,$a0,$a0,$a0,$a0,$a1,$a1,$a1,$a1,$a1,$a1,$a1,$a1,$a2,$a2,$a2,$a2,$a2,$a2,$a2,$a2,$a3,$a3
               1263   9E 9E 9E 9E
               1267   9F 9F 9F 9F
               126B   9F 9F 9F 9F
               126F   A0 A0 A0 A0
               1273   A0 A0 A1 A1
               1277   A1 A1 A1 A1
               127B   A1 A1 A2 A2
               127F   A2 A2 A2 A2
               1283   A2 A2 A3 A3
     83        1287   A3 A3 A3 A3          FCB $a3,$a3,$a3,$a3,$a4,$a4,$a4,$a4,$a4,$a4,$a4,$a4,$a5,$a5,$a5,$a5,$a5,$a5,$a6,$a6,$9e,$a2,$9c,$a4,$9f,$a3,$9d,$a5,$9f,$a4,$a0,$a5,$9e,$a6,$a0,$a6,$9f,$a8,$a1,$a8
               128B   A4 A4 A4 A4
               128F   A4 A4 A4 A4
               1293   A5 A5 A5 A5
               1297   A5 A5 A6 A6
               129B   9E A2 9C A4
               129F   9F A3 9D A5
               12A3   9F A4 A0 A5
               12A7   9E A6 A0 A6
               12AB   9F A8 A1 A8
     84        12AF   A2 A8 A2 A9          FCB $a2,$a8,$a2,$a9,$a2,$aa,$a1,$ac,$a3,$ab,$a1,$ad,$a3,$ac,$a4,$ad,$a2,$af,$a4,$ae,$a3,$b1,$a5,$b0,$a5,$b0,$a5,$b1,$a6,$b2,$a4,$b4,$a6,$b3,$a6,$b4,$a7,$b5,$a7,$b6
               12B3   A2 AA A1 AC
               12B7   A3 AB A1 AD
               12BB   A3 AC A4 AD
               12BF   A2 AF A4 AE
               12C3   A3 B1 A5 B0
               12C7   A5 B0 A5 B1
               12CB   A6 B2 A4 B4
               12CF   A6 B3 A6 B4
               12D3   A7 B5 A7 B6
     85        12D7   A5 B7 A8 B7          FCB $a5,$b7,$a8,$b7,$a6,$b9,$a8,$b8,$a8,$b9,$a7,$bb,$a9,$bb,$a7,$bc,$a9,$bc,$aa,$bd,$aa,$be,$aa,$be,$a9,$c0,$ab,$c0,$a9,$c2,$ab,$c1,$ac,$c2,$aa,$c4,$ac,$c4,$aa,$c6
               12DB   A6 B9 A8 B8
               12DF   A8 B9 A7 BB
               12E3   A9 BB A7 BC
               12E7   A9 BC AA BD
               12EB   AA BE AA BE
               12EF   A9 C0 AB C0
               12F3   A9 C2 AB C1
               12F7   AC C2 AA C4
               12FB   AC C4 AA C6
     86        12FF   A7 A7 A8 A8          FCB $a7,$a7,$a8,$a8,$a8,$a8,$a9,$a9,$aa,$aa,$ab,$ab,$ab,$ab,$ac,$ac,$ad,$ad,$ae,$ae,$ae,$ae,$af,$af,$b0,$b0,$b1,$b1,$b1,$b1,$b2,$b2,$b3,$b3,$b4,$b4,$b4,$b4,$b5,$b5
               1303   A8 A8 A9 A9
               1307   AA AA AB AB
               130B   AB AB AC AC
               130F   AD AD AE AE
               1313   AE AE AF AF
               1317   B0 B0 B1 B1
               131B   B1 B1 B2 B2
               131F   B3 B3 B4 B4
               1323   B4 B4 B5 B5
     87        1327   B6 B6 B7 B7          FCB $b6,$b6,$b7,$b7,$b7,$b7,$b8,$b8,$b9,$b9,$ba,$ba,$ba,$ba,$bb,$bb,$bc,$bc,$bd,$bd,$bd,$bd,$be,$be,$bf,$bf,$bf,$bf,$c0,$c0,$c1,$c1,$c2,$c2,$c2,$c2,$c3,$c3,$c4,$c4
               132B   B7 B7 B8 B8
               132F   B9 B9 BA BA
               1333   BA BA BB BB
               1337   BC BC BD BD
               133B   BD BD BE BE
               133F   BF BF BF BF
               1343   C0 C0 C1 C1
               1347   C2 C2 C2 C2
               134B   C3 C3 C4 C4
     88        134F   C5 C5 C5 C5          FCB $c5,$c5,$c5,$c5,$c6,$c6,$c7,$c7,$c8,$c8,$c8,$c8,$c9,$c9,$ca,$ca,$cb,$cb,$cb,$cb,$a7,$a7,$a8,$a8,$a8,$a8,$a9,$a9,$aa,$aa,$ab,$ab,$ab,$ab,$ac,$ac,$ad,$ad,$ae,$ae
               1353   C6 C6 C7 C7
               1357   C8 C8 C8 C8
               135B   C9 C9 CA CA
               135F   CB CB CB CB
               1363   A7 A7 A8 A8
               1367   A8 A8 A9 A9
               136B   AA AA AB AB
               136F   AB AB AC AC
               1373   AD AD AE AE
     89        1377   AE AE AF AF          FCB $ae,$ae,$af,$af,$b0,$b0,$b1,$b1,$b1,$b1,$b2,$b2,$b3,$b3,$b4,$b4,$b4,$b4,$b5,$b5,$b6,$b6,$b7,$b7,$b7,$b7,$b8,$b8,$b9,$b9,$ba,$ba,$ba,$ba,$bb,$bb,$bc,$bc,$bd,$bd
               137B   B0 B0 B1 B1
               137F   B1 B1 B2 B2
               1383   B3 B3 B4 B4
               1387   B4 B4 B5 B5
               138B   B6 B6 B7 B7
               138F   B7 B7 B8 B8
               1393   B9 B9 BA BA
               1397   BA BA BB BB
               139B   BC BC BD BD
     90        139F   BD BD BE BE          FCB $bd,$bd,$be,$be,$bf,$bf,$bf,$bf,$c0,$c0,$c1,$c1,$c2,$c2,$c2,$c2,$c3,$c3,$c4,$c4,$c5,$c5,$c5,$c5,$c6,$c6,$c7,$c7,$c8,$c8,$c8,$c8,$c9,$c9,$ca,$ca,$cb,$cb,$cb,$cb
               13A3   BF BF BF BF
               13A7   C0 C0 C1 C1
               13AB   C2 C2 C2 C2
               13AF   C3 C3 C4 C4
               13B3   C5 C5 C5 C5
               13B7   C6 C6 C7 C7
               13BB   C8 C8 C8 C8
               13BF   C9 C9 CA CA
               13C3   CB CB CB CB
     91        13C7   A3 9A A4 9C          FCB $a3,$9a,$a4,$9c,$a4,$9b,$a5,$9b,$a6,$9c,$a7,$9c,$a6,$9e,$a8,$9d,$a9,$9d,$aa,$9e,$aa,$9e,$aa,$9f,$ac,$9f,$ad,$9f,$ad,$9f,$ae,$9f,$ae,$a1,$af,$a0,$b0,$a0,$b0,$a1
               13CB   A4 9B A5 9B
               13CF   A6 9C A7 9C
               13D3   A6 9E A8 9D
               13D7   A9 9D AA 9E
               13DB   AA 9E AA 9F
               13DF   AC 9F AD 9F
               13E3   AD 9F AE 9F
               13E7   AE A1 AF A0
               13EB   B0 A0 B0 A1
     92        13EF   B1 A1 B2 A1          FCB $b1,$a1,$b2,$a1,$b2,$a1,$b3,$a2,$b4,$a2,$b5,$a2,$b5,$a3,$b6,$a3,$b7,$a3,$b7,$a4,$b8,$a4,$b9,$a4,$ba,$a4,$ba,$a5,$ba,$a6,$bc,$a5,$bd,$a6,$bd,$a6,$be,$a6,$be,$a7
               13F3   B2 A1 B3 A2
               13F7   B4 A2 B5 A2
               13FB   B5 A3 B6 A3
               13FF   B7 A3 B7 A4
               1403   B8 A4 B9 A4
               1407   BA A4 BA A5
               140B   BA A6 BC A5
               140F   BD A6 BD A6
               1413   BE A6 BE A7
     93        1417   C0 A7 C0 A7          FCB $c0,$a7,$c0,$a7,$c1,$a7,$c2,$a8,$c2,$a9,$c3,$a8,$c4,$a8,$c5,$a9,$c6,$a9,$c6,$aa,$97,$97,$97,$97,$98,$98,$98,$98,$98,$98,$98,$98,$99,$99,$99,$99,$99,$99,$9a,$9a
               141B   C1 A7 C2 A8
               141F   C2 A9 C3 A8
               1423   C4 A8 C5 A9
               1427   C6 A9 C6 AA
               142B   97 97 97 97
               142F   98 98 98 98
               1433   98 98 98 98
               1437   99 99 99 99
               143B   99 99 9A 9A
     94        143F   9A 9A 9A 9A          FCB $9a,$9a,$9a,$9a,$9b,$9b,$9b,$9b,$9b,$9b,$9b,$9b,$9c,$9c,$9c,$9c,$9c,$9c,$9d,$9d,$9d,$9d,$9d,$9d,$9d,$9d,$9e,$9e,$9e,$9e,$9e,$9e,$9f,$9f,$9f,$9f,$9f,$9f,$9f,$9f
               1443   9B 9B 9B 9B
               1447   9B 9B 9B 9B
               144B   9C 9C 9C 9C
               144F   9C 9C 9D 9D
               1453   9D 9D 9D 9D
               1457   9D 9D 9E 9E
               145B   9E 9E 9E 9E
               145F   9F 9F 9F 9F
               1463   9F 9F 9F 9F
     95        1467   A0 A0 A0 A0          FCB $a0,$a0,$a0,$a0,$a0,$a0,$a1,$a1,$a1,$a1,$a1,$a1,$a2,$a2,$a2,$a2,$a2,$a2,$a2,$a2,$a3,$a3,$a3,$a3,$a3,$a3,$a4,$a4,$a4,$a4,$a4,$a4,$a4,$a4,$a5,$a5,$a5,$a5,$a5,$a5
               146B   A0 A0 A1 A1
               146F   A1 A1 A1 A1
               1473   A2 A2 A2 A2
               1477   A2 A2 A2 A2
               147B   A3 A3 A3 A3
               147F   A3 A3 A4 A4
               1483   A4 A4 A4 A4
               1487   A4 A4 A5 A5
               148B   A5 A5 A5 A5
     96        148F   95 8C 95 8C          FCB $95,$8c,$95,$8c,$96,$8c,$96,$8c,$96,$8c,$96,$8c,$97,$8c,$97,$8b,$97,$8c,$97,$8c,$97,$8b,$97,$8b,$98,$8b,$98,$8b,$98,$8b,$98,$8b,$99,$8b,$99,$8a,$99,$8a,$9a,$8a
               1493   96 8C 96 8C
               1497   96 8C 96 8C
               149B   97 8C 97 8B
               149F   97 8C 97 8C
               14A3   97 8B 97 8B
               14A7   98 8B 98 8B
               14AB   98 8B 98 8B
               14AF   99 8B 99 8A
               14B3   99 8A 9A 8A
     97        14B7   9A 8A 9A 8A          FCB $9a,$8a,$9a,$8a,$9a,$8a,$9b,$89,$9b,$89,$9b,$89,$9c,$89,$9c,$89,$9c,$89,$9c,$88,$9d,$88,$9d,$88,$9d,$88,$9e,$88,$9e,$88,$9e,$88,$9f,$87,$9f,$87,$9f,$87,$9f,$87
               14BB   9A 8A 9B 89
               14BF   9B 89 9B 89
               14C3   9C 89 9C 89
               14C7   9C 89 9C 88
               14CB   9D 88 9D 88
               14CF   9D 88 9E 88
               14D3   9E 88 9E 88
               14D7   9F 87 9F 87
               14DB   9F 87 9F 87
     98        14DF   A0 87 A0 87          FCB $a0,$87,$a0,$87,$a0,$86,$a1,$86,$a1,$86,$a1,$86,$a1,$86,$a2,$86,$a2,$86,$a2,$85,$89,$81,$89,$80,$89,$7f,$89,$7e,$88,$7d,$88,$7c,$88,$7b,$88,$7a,$88,$7a,$88,$79
               14E3   A0 86 A1 86
               14E7   A1 86 A1 86
               14EB   A1 86 A2 86
               14EF   A2 86 A2 85
               14F3   89 81 89 80
               14F7   89 7F 89 7E
               14FB   88 7D 88 7C
               14FF   88 7B 88 7A
               1503   88 7A 88 79
     99        1507   87 79 87 78          FCB $87,$79,$87,$78,$87,$77,$86,$76,$87,$75,$86,$74,$86,$73,$85,$72,$85,$71,$85,$70,$85,$6f,$85,$6e,$85,$6e,$84,$6d,$84,$6c,$84,$6b,$84,$6a,$84,$69,$84,$68,$83,$67
               150B   87 77 86 76
               150F   87 75 86 74
               1513   86 73 85 72
               1517   85 71 85 70
               151B   85 6F 85 6E
               151F   85 6E 84 6D
               1523   84 6C 84 6B
               1527   84 6A 84 69
               152B   84 68 83 67
    100        152F   83 66 83 65          FCB $83,$66,$83,$65,$83,$64,$83,$63,$83,$62,$83,$61,$82,$60,$82,$60,$82,$5f,$82,$5e,$82,$5d,$82,$5c,$81,$5b,$81,$5a,$81,$59,$81,$58,$81,$57,$81,$56,$81,$55,$80,$54
               1533   83 64 83 63
               1537   83 62 83 61
               153B   82 60 82 60
               153F   82 5F 82 5E
               1543   82 5D 82 5C
               1547   81 5B 81 5A
               154B   81 59 81 58
               154F   81 57 81 56
               1553   81 55 80 54
    101        1557                    line_enemy_dx
    102        1557   05 10 06 10          FCB $5,$10,$6,$10,$7,$12,$7,$12,$8,$13,$8,$13,$8,$14,$8,$13,$a,$15,$b,$16,$a,$17,$b,$17,$b,$18,$b,$18,$d,$18,$d,$18,$e,$18,$e,$19,$f,$1a,$10,$1b
               155B   07 12 07 12
               155F   08 13 08 13
               1563   08 14 08 13
               1567   0A 15 0B 16
               156B   0A 17 0B 17
               156F   0B 18 0B 18
               1573   0D 18 0D 18
               1577   0E 18 0E 19
               157B   0F 1A 10 1B
    103        157F   10 1B 11 1C          FCB $10,$1b,$11,$1c,$12,$1d,$12,$1d,$13,$1e,$13,$1f,$14,$1f,$15,$20,$15,$20,$15,$22,$15,$22,$15,$22,$16,$23,$17,$24,$18,$24,$18,$25,$18,$25,$1a,$27,$1c,$27,$1b,$27
               1583   12 1D 12 1D
               1587   13 1E 13 1F
               158B   14 1F 15 20
               158F   15 20 15 22
               1593   15 22 15 22
               1597   16 23 17 24
               159B   18 24 18 25
               159F   18 25 1A 27
               15A3   1C 27 1B 27
    104        15A7   1D 28 1C 29          FCB $1d,$28,$1c,$29,$1d,$2a,$1d,$2a,$1e,$2a,$1f,$2c,$1f,$2c,$20,$2d,$20,$2d,$22,$2e,$3,$3,$2,$2,$3,$3,$3,$3,$3,$3,$3,$3,$2,$2,$3,$3,$3,$3,$3,$3
               15AB   1D 2A 1D 2A
               15AF   1E 2A 1F 2C
               15B3   1F 2C 20 2D
               15B7   20 2D 22 2E
               15BB   03 03 02 02
               15BF   03 03 03 03
               15C3   03 03 03 03
               15C7   02 02 03 03
               15CB   03 03 03 03
    105        15CF   03 03 02 02          FCB $3,$3,$2,$2,$3,$3,$3,$3,$3,$3,$3,$3,$2,$2,$3,$3,$3,$3,$3,$3,$3,$3,$2,$2,$3,$3,$3,$3,$3,$3,$3,$3,$3,$3,$3,$3,$3,$3,$3,$3
               15D3   03 03 03 03
               15D7   03 03 03 03
               15DB   02 02 03 03
               15DF   03 03 03 03
               15E3   03 03 02 02
               15E7   03 03 03 03
               15EB   03 03 03 03
               15EF   03 03 03 03
               15F3   03 03 03 03
    106        15F7   03 03 03 03          FCB $3,$3,$3,$3,$3,$3,$3,$3,$2,$2,$3,$3,$3,$3,$3,$3,$3,$3,$2,$2,$3,$3,$3,$3,$3,$3,$3,$3,$2,$2,$3,$3,$3,$3,$3,$3,$3,$3,$2,$2
               15FB   03 03 03 03
               15FF   02 02 03 03
               1603   03 03 03 03
               1607   03 03 02 02
               160B   03 03 03 03
               160F   03 03 03 03
               1613   02 02 03 03
               1617   03 03 03 03
               161B   03 03 02 02
    107        161F   09 0D 0A 0D          FCB $9,$d,$a,$d,$a,$e,$b,$f,$b,$f,$c,$10,$d,$10,$d,$11,$e,$11,$e,$11,$f,$12,$10,$12,$10,$13,$f,$14,$10,$14,$11,$15,$10,$15,$10,$16,$11,$17,$11,$17
               1623   0A 0E 0B 0F
               1627   0B 0F 0C 10
               162B   0D 10 0D 11
               162F   0E 11 0E 11
               1633   0F 12 10 12
               1637   10 13 0F 14
               163B   10 14 11 15
               163F   10 15 10 16
               1643   11 17 11 17
    108        1647   12 18 13 18          FCB $12,$18,$13,$18,$13,$18,$14,$19,$14,$19,$15,$1a,$16,$1b,$16,$1b,$17,$1c,$16,$1c,$17,$1d,$18,$1e,$18,$1e,$19,$1f,$1a,$1f,$1a,$20,$1b,$21,$1b,$20,$1c,$21,$1d,$21
               164B   13 18 14 19
               164F   14 19 15 1A
               1653   16 1B 16 1B
               1657   17 1C 16 1C
               165B   17 1D 18 1E
               165F   18 1E 19 1F
               1663   1A 1F 1A 20
               1667   1B 21 1B 20
               166B   1C 21 1D 21
    109        166F   1D 22 1E 23          FCB $1d,$22,$1e,$23,$1e,$23,$1e,$24,$1f,$24,$1f,$25,$20,$26,$20,$26,$21,$27,$22,$27,$d,$b,$e,$b,$e,$c,$f,$c,$f,$d,$f,$d,$e,$d,$e,$e,$10,$e,$10,$f
               1673   1E 23 1E 24
               1677   1F 24 1F 25
               167B   20 26 20 26
               167F   21 27 22 27
               1683   0D 0B 0E 0B
               1687   0E 0C 0F 0C
               168B   0F 0D 0F 0D
               168F   0E 0D 0E 0E
               1693   10 0E 10 0F
    110        1697   10 0F 11 10          FCB $10,$f,$11,$10,$11,$10,$12,$10,$12,$10,$13,$10,$13,$11,$13,$11,$14,$11,$14,$12,$15,$12,$15,$13,$16,$13,$17,$14,$17,$14,$18,$14,$18,$15,$18,$15,$19,$16,$19,$17
               169B   11 10 12 10
               169F   12 10 13 10
               16A3   13 11 13 11
               16A7   14 11 14 12
               16AB   15 12 15 13
               16AF   16 13 17 14
               16B3   17 14 18 14
               16B7   18 15 18 15
               16BB   19 16 19 17
    111        16BF   1A 17 1A 18          FCB $1a,$17,$1a,$18,$1b,$18,$1b,$19,$1b,$19,$1c,$19,$1c,$1a,$1e,$1a,$1e,$1b,$1e,$1b,$1f,$1c,$1f,$1c,$20,$1c,$20,$1e,$21,$1e,$21,$1f,$21,$1f,$22,$1f,$22,$20,$23,$20
               16C3   1B 18 1B 19
               16C7   1B 19 1C 19
               16CB   1C 1A 1E 1A
               16CF   1E 1B 1E 1B
               16D3   1F 1C 1F 1C
               16D7   20 1C 20 1E
               16DB   21 1E 21 1F
               16DF   21 1F 22 1F
               16E3   22 20 23 20
    112        16E7   01 01 02 02          FCB $1,$1,$2,$2,$1,$1,$2,$2,$1,$1,$1,$1,$2,$2,$1,$1,$2,$2,$1,$1,$1,$1,$1,$1,$1,$1,$2,$2,$1,$1,$2,$2,$1,$1,$1,$1,$2,$2,$1,$1
               16EB   01 01 02 02
               16EF   01 01 01 01
               16F3   02 02 01 01
               16F7   02 02 01 01
               16FB   01 01 01 01
               16FF   01 01 02 02
               1703   01 01 02 02
               1707   01 01 01 01
               170B   02 02 01 01
    113        170F   02 02 01 01          FCB $2,$2,$1,$1,$1,$1,$1,$1,$1,$1,$2,$2,$1,$1,$1,$1,$1,$1,$1,$1,$2,$2,$1,$1,$2,$2,$1,$1,$1,$1,$2,$2,$1,$1,$2,$2,$1,$1,$1,$1
               1713   01 01 01 01
               1717   01 01 02 02
               171B   01 01 01 01
               171F   01 01 01 01
               1723   02 02 01 01
               1727   02 02 01 01
               172B   01 01 02 02
               172F   01 01 02 02
               1733   01 01 01 01
    114        1737   01 01 01 01          FCB $1,$1,$1,$1,$2,$2,$1,$1,$2,$2,$1,$1,$1,$1,$2,$2,$1,$1,$2,$2,$e,$7,$f,$7,$f,$8,$10,$8,$10,$7,$11,$8,$12,$8,$12,$9,$13,$b,$13,$a
               173B   02 02 01 01
               173F   02 02 01 01
               1743   01 01 02 02
               1747   01 01 02 02
               174B   0E 07 0F 07
               174F   0F 08 10 08
               1753   10 07 11 08
               1757   12 08 12 09
               175B   13 0B 13 0A
    115        175F   14 0B 14 0B          FCB $14,$b,$14,$b,$15,$c,$16,$c,$16,$d,$15,$d,$17,$e,$16,$f,$17,$f,$17,$10,$18,$10,$18,$11,$1c,$12,$1c,$12,$1d,$13,$1e,$13,$1e,$14,$1f,$15,$1f,$15,$1e,$14
               1763   15 0C 16 0C
               1767   16 0D 15 0D
               176B   17 0E 16 0F
               176F   17 0F 17 10
               1773   18 10 18 11
               1777   1C 12 1C 12
               177B   1D 13 1E 13
               177F   1E 14 1F 15
               1783   1F 15 1E 14
    116        1787   1F 15 1F 16          FCB $1f,$15,$1f,$16,$20,$16,$20,$17,$21,$18,$22,$18,$22,$19,$25,$1b,$25,$1c,$26,$1b,$26,$1d,$27,$1c,$28,$1e,$26,$1d,$27,$1d,$27,$1e,$28,$1f,$29,$1f,$29,$20,$2a,$20
               178B   20 16 20 17
               178F   21 18 22 18
               1793   22 19 25 1B
               1797   25 1C 26 1B
               179B   26 1D 27 1C
               179F   28 1E 26 1D
               17A3   27 1D 27 1E
               17A7   28 1F 29 1F
               17AB   29 20 2A 20
    117        17AF   06 06 06 06          FCB $6,$6,$6,$6,$6,$6,$6,$6,$6,$6,$6,$6,$6,$6,$6,$6,$6,$6,$6,$6,$6,$6,$6,$6,$6,$6,$6,$6,$6,$6,$6,$6,$6,$6,$6,$6,$6,$6,$6,$6
               17B3   06 06 06 06
               17B7   06 06 06 06
               17BB   06 06 06 06
               17BF   06 06 06 06
               17C3   06 06 06 06
               17C7   06 06 06 06
               17CB   06 06 06 06
               17CF   06 06 06 06
               17D3   06 06 06 06
    118        17D7   06 06 06 06          FCB $6,$6,$6,$6,$7,$7,$7,$7,$7,$7,$7,$7,$7,$7,$7,$7,$7,$7,$7,$7,$6,$6,$6,$6,$6,$6,$6,$6,$6,$6,$6,$6,$6,$6,$6,$6,$6,$6,$6,$6
               17DB   07 07 07 07
               17DF   07 07 07 07
               17E3   07 07 07 07
               17E7   07 07 07 07
               17EB   06 06 06 06
               17EF   06 06 06 06
               17F3   06 06 06 06
               17F7   06 06 06 06
               17FB   06 06 06 06
    119        17FF   06 06 06 06          FCB $6,$6,$6,$6,$6,$6,$6,$6,$6,$6,$6,$6,$6,$6,$6,$6,$6,$6,$6,$6,$6,$6,$6,$6,$6,$6,$6,$6,$6,$6,$6,$6,$6,$6,$6,$6,$6,$6,$6,$6
               1803   06 06 06 06
               1807   06 06 06 06
               180B   06 06 06 06
               180F   06 06 06 06
               1813   06 06 06 06
               1817   06 06 06 06
               181B   06 06 06 06
               181F   06 06 06 06
               1823   06 06 06 06
    120        1827   06 06 06 06          FCB $6,$6,$6,$6,$6,$6,$6,$6,$6,$6,$6,$6,$6,$6,$6,$6,$6,$6,$6,$6,$6,$6,$6,$6,$7,$7,$7,$7,$7,$7,$7,$7,$7,$7,$7,$7,$7,$7,$7,$7
               182B   06 06 06 06
               182F   06 06 06 06
               1833   06 06 06 06
               1837   06 06 06 06
               183B   06 06 06 06
               183F   07 07 07 07
               1843   07 07 07 07
               1847   07 07 07 07
               184B   07 07 07 07
    121        184F   06 06 06 06          FCB $6,$6,$6,$6,$6,$6,$6,$6,$6,$6,$6,$6,$6,$6,$6,$6,$6,$6,$6,$6,$6,$6,$6,$6,$6,$6,$6,$6,$6,$6,$6,$6,$6,$6,$6,$6,$6,$6,$6,$6
               1853   06 06 06 06
               1857   06 06 06 06
               185B   06 06 06 06
               185F   06 06 06 06
               1863   06 06 06 06
               1867   06 06 06 06
               186B   06 06 06 06
               186F   06 06 06 06
               1873   06 06 06 06
    122        1877   01 00 01 01          FCB $1,$0,$1,$1,$0,$1,$0,$0,$1,$0,$4,$9,$0,$2,$1,$2,$1,$1,$6,$9,$1,$2,$1,$2,$6,$b,$2,$4,$3,$4,$3,$5,$8,$d,$3,$6,$3,$5,$4,$5
               187B   00 01 00 00
               187F   01 00 04 09
               1883   00 02 01 02
               1887   01 01 06 09
               188B   01 02 01 02
               188F   06 0B 02 04
               1893   03 04 03 05
               1897   08 0D 03 06
               189B   03 05 04 05
    123        189F   04 06 05 06          FCB $4,$6,$5,$6,$4,$8,$a,$10,$5,$9,$5,$8,$6,$a,$d,$13,$7,$b,$8,$c,$9,$b,$8,$d,$8,$c,$9,$e,$10,$17,$a,$e,$b,$10,$b,$f,$12,$19,$d,$12
               18A3   04 08 0A 10
               18A7   05 09 05 08
               18AB   06 0A 0D 13
               18AF   07 0B 08 0C
               18B3   09 0B 08 0D
               18B7   08 0C 09 0E
               18BB   10 17 0A 0E
               18BF   0B 10 0B 0F
               18C3   12 19 0D 12
    124        18C7   0D 12 14 1B          FCB $d,$12,$14,$1b,$e,$14,$f,$14,$f,$15,$16,$1d,$11,$16,$11,$17,$12,$17,$12,$18,$1,$1,$2,$2,$1,$1,$2,$2,$1,$1,$1,$1,$2,$2,$1,$1,$2,$2,$1,$1
               18CB   0E 14 0F 14
               18CF   0F 15 16 1D
               18D3   11 16 11 17
               18D7   12 17 12 18
               18DB   01 01 02 02
               18DF   01 01 02 02
               18E3   01 01 01 01
               18E7   02 02 01 01
               18EB   02 02 01 01
    125        18EF   01 01 01 01          FCB $1,$1,$1,$1,$1,$1,$2,$2,$1,$1,$2,$2,$1,$1,$1,$1,$2,$2,$1,$1,$2,$2,$1,$1,$1,$1,$1,$1,$1,$1,$2,$2,$1,$1,$1,$1,$1,$1,$1,$1
               18F3   01 01 02 02
               18F7   01 01 02 02
               18FB   01 01 01 01
               18FF   02 02 01 01
               1903   02 02 01 01
               1907   01 01 01 01
               190B   01 01 02 02
               190F   01 01 01 01
               1913   01 01 01 01
    126        1917   02 02 01 01          FCB $2,$2,$1,$1,$2,$2,$1,$1,$1,$1,$2,$2,$1,$1,$2,$2,$1,$1,$1,$1,$1,$1,$1,$1,$2,$2,$1,$1,$2,$2,$1,$1,$1,$1,$2,$2,$1,$1,$2,$2
               191B   02 02 01 01
               191F   01 01 02 02
               1923   01 01 02 02
               1927   01 01 01 01
               192B   01 01 01 01
               192F   02 02 01 01
               1933   02 02 01 01
               1937   01 01 02 02
               193B   01 01 02 02
    127        193F   09 0A 09 0B          FCB $9,$a,$9,$b,$b,$b,$b,$c,$a,$c,$a,$c,$a,$d,$b,$d,$b,$e,$c,$e,$c,$f,$d,$10,$d,$10,$d,$11,$e,$11,$e,$12,$f,$12,$f,$12,$f,$13,$10,$13
               1943   0B 0B 0B 0C
               1947   0A 0C 0A 0C
               194B   0A 0D 0B 0D
               194F   0B 0E 0C 0E
               1953   0C 0F 0D 10
               1957   0D 10 0D 11
               195B   0E 11 0E 12
               195F   0F 12 0F 12
               1963   0F 13 10 13
    128        1967   10 14 12 14          FCB $10,$14,$12,$14,$12,$14,$13,$15,$13,$15,$11,$14,$14,$16,$14,$16,$15,$17,$13,$16,$15,$17,$16,$17,$16,$18,$17,$18,$17,$18,$17,$19,$18,$19,$18,$1a,$19,$1a,$19,$1c
               196B   12 14 13 15
               196F   13 15 11 14
               1973   14 16 14 16
               1977   15 17 13 16
               197B   15 17 16 17
               197F   16 18 17 18
               1983   17 18 17 19
               1987   18 19 18 1A
               198B   19 1A 19 1C
    129        198F   1A 1B 1B 1D          FCB $1a,$1b,$1b,$1d,$1b,$1e,$1c,$1e,$1c,$1f,$1d,$1f,$1d,$1f,$1d,$20,$1e,$20,$1e,$22,$b,$8,$b,$9,$c,$8,$d,$9,$d,$9,$e,$a,$e,$b,$f,$b,$10,$c,$10,$c
               1993   1B 1E 1C 1E
               1997   1C 1F 1D 1F
               199B   1D 1F 1D 20
               199F   1E 20 1E 22
               19A3   0B 08 0B 09
               19A7   0C 08 0D 09
               19AB   0D 09 0E 0A
               19AF   0E 0B 0F 0B
               19B3   10 0C 10 0C
    130        19B7   10 0B 10 0C          FCB $10,$b,$10,$c,$11,$c,$12,$d,$12,$d,$11,$e,$11,$f,$12,$f,$13,$10,$13,$10,$14,$11,$15,$11,$15,$11,$16,$12,$16,$12,$15,$11,$18,$14,$18,$14,$19,$15,$16,$14
               19BB   11 0C 12 0D
               19BF   12 0D 11 0E
               19C3   11 0F 12 0F
               19C7   13 10 13 10
               19CB   14 11 15 11
               19CF   15 11 16 12
               19D3   16 12 15 11
               19D7   18 14 18 14
               19DB   19 15 16 14
    131        19DF   19 16 1A 17          FCB $19,$16,$1a,$17,$1a,$17,$1b,$18,$1b,$19,$1c,$19,$1d,$1a,$1d,$1a,$1e,$1b,$1e,$1c,$1f,$1c,$20,$1c,$20,$1c,$21,$1d,$21,$1e,$22,$1e,$23,$1f,$23,$1f,$24,$20,$23,$21
               19E3   1A 17 1B 18
               19E7   1B 19 1C 19
               19EB   1D 1A 1D 1A
               19EF   1E 1B 1E 1C
               19F3   1F 1C 20 1C
               19F7   20 1C 21 1D
               19FB   21 1E 22 1E
               19FF   23 1F 23 1F
               1A03   24 20 23 21
    132        1A07   03 03 02 02          FCB $3,$3,$2,$2,$3,$3,$3,$3,$3,$3,$3,$3,$2,$2,$3,$3,$3,$3,$3,$3,$3,$3,$2,$2,$3,$3,$3,$3,$3,$3,$3,$3,$2,$2,$3,$3,$3,$3,$3,$3
               1A0B   03 03 03 03
               1A0F   03 03 03 03
               1A13   02 02 03 03
               1A17   03 03 03 03
               1A1B   03 03 02 02
               1A1F   03 03 03 03
               1A23   03 03 03 03
               1A27   02 02 03 03
               1A2B   03 03 03 03
    133        1A2F   03 03 03 03          FCB $3,$3,$3,$3,$3,$3,$3,$3,$3,$3,$3,$3,$3,$3,$3,$3,$3,$3,$2,$2,$3,$3,$3,$3,$3,$3,$3,$3,$2,$2,$3,$3,$3,$3,$3,$3,$3,$3,$2,$2
               1A33   03 03 03 03
               1A37   03 03 03 03
               1A3B   03 03 03 03
               1A3F   03 03 02 02
               1A43   03 03 03 03
               1A47   03 03 03 03
               1A4B   02 02 03 03
               1A4F   03 03 03 03
               1A53   03 03 02 02
    134        1A57   03 03 03 03          FCB $3,$3,$3,$3,$3,$3,$3,$3,$2,$2,$3,$3,$3,$3,$3,$3,$3,$3,$2,$2,$1,$0,$7,$3,$1,$0,$1,$0,$8,$3,$8,$3,$1,$1,$2,$1,$a,$5,$3,$2
               1A5B   03 03 03 03
               1A5F   02 02 03 03
               1A63   03 03 03 03
               1A67   03 03 02 02
               1A6B   01 00 07 03
               1A6F   01 00 01 00
               1A73   08 03 08 03
               1A77   01 01 02 01
               1A7B   0A 05 03 02
    135        1A7F   02 01 0C 06          FCB $2,$1,$c,$6,$3,$2,$3,$2,$5,$2,$d,$6,$5,$3,$6,$3,$f,$8,$6,$3,$6,$3,$7,$3,$12,$b,$8,$5,$9,$6,$12,$a,$a,$5,$b,$6,$15,$c,$16,$e
               1A83   03 02 03 02
               1A87   05 02 0D 06
               1A8B   05 03 06 03
               1A8F   0F 08 06 03
               1A93   06 03 07 03
               1A97   12 0B 08 05
               1A9B   09 06 12 0A
               1A9F   0A 05 0B 06
               1AA3   15 0C 16 0E
    136        1AA7   0D 08 0D 08          FCB $d,$8,$d,$8,$16,$f,$f,$a,$f,$9,$18,$11,$10,$b,$12,$b,$12,$b,$1c,$12,$13,$c,$14,$d,$1f,$14,$15,$e,$15,$f,$21,$16,$21,$18,$18,$11,$18,$11,$23,$19
               1AAB   16 0F 0F 0A
               1AAF   0F 09 18 11
               1AB3   10 0B 12 0B
               1AB7   12 0B 1C 12
               1ABB   13 0C 14 0D
               1ABF   1F 14 15 0E
               1AC3   15 0F 21 16
               1AC7   21 18 18 11
               1ACB   18 11 23 19
    137        1ACF   08 08 08 08          FCB $8,$8,$8,$8,$8,$8,$8,$8,$8,$8,$8,$8,$8,$8,$8,$8,$8,$8,$8,$8,$8,$8,$8,$8,$8,$8,$8,$8,$8,$8,$8,$8,$8,$8,$8,$8,$8,$8,$8,$8
               1AD3   08 08 08 08
               1AD7   08 08 08 08
               1ADB   08 08 08 08
               1ADF   08 08 08 08
               1AE3   08 08 08 08
               1AE7   08 08 08 08
               1AEB   08 08 08 08
               1AEF   08 08 08 08
               1AF3   08 08 08 08
    138        1AF7   08 08 09 09          FCB $8,$8,$9,$9,$8,$8,$8,$8,$8,$8,$9,$9,$8,$8,$8,$8,$8,$8,$8,$8,$8,$8,$8,$8,$8,$8,$8,$8,$8,$8,$8,$8,$8,$8,$8,$8,$8,$8,$8,$8
               1AFB   08 08 08 08
               1AFF   08 08 09 09
               1B03   08 08 08 08
               1B07   08 08 08 08
               1B0B   08 08 08 08
               1B0F   08 08 08 08
               1B13   08 08 08 08
               1B17   08 08 08 08
               1B1B   08 08 08 08
    139        1B1F   08 08 08 08          FCB $8,$8,$8,$8,$8,$8,$8,$8,$8,$8,$8,$8,$8,$8,$8,$8,$8,$8,$8,$8,$8,$8,$8,$8,$8,$8,$8,$8,$8,$8,$8,$8,$8,$8,$8,$8,$8,$8,$8,$8
               1B23   08 08 08 08
               1B27   08 08 08 08
               1B2B   08 08 08 08
               1B2F   08 08 08 08
               1B33   08 08 08 08
               1B37   08 08 08 08
               1B3B   08 08 08 08
               1B3F   08 08 08 08
               1B43   08 08 08 08
    140        1B47   08 08 08 08          FCB $8,$8,$8,$8,$8,$8,$8,$8,$8,$8,$8,$8,$8,$8,$8,$8,$8,$8,$8,$8,$8,$8,$9,$9,$8,$8,$8,$8,$8,$8,$9,$9,$8,$8,$8,$8,$8,$8,$8,$8
               1B4B   08 08 08 08
               1B4F   08 08 08 08
               1B53   08 08 08 08
               1B57   08 08 08 08
               1B5B   08 08 09 09
               1B5F   08 08 08 08
               1B63   08 08 09 09
               1B67   08 08 08 08
               1B6B   08 08 08 08
    141        1B6F   08 08 08 08          FCB $8,$8,$8,$8,$8,$8,$8,$8,$8,$8,$8,$8,$8,$8,$8,$8,$8,$8,$8,$8,$8,$8,$8,$8,$8,$8,$8,$8,$8,$8,$8,$8,$8,$8,$8,$8,$8,$8,$8,$8
               1B73   08 08 08 08
               1B77   08 08 08 08
               1B7B   08 08 08 08
               1B7F   08 08 08 08
               1B83   08 08 08 08
               1B87   08 08 08 08
               1B8B   08 08 08 08
               1B8F   08 08 08 08
               1B93   08 08 08 08
    142        1B97                    line_enemy_dy
    143        1B97   05 05 05 05          FCB $5,$5,$5,$5,$5,$5,$5,$5,$5,$5,$5,$5,$5,$5,$5,$5,$6,$6,$6,$6,$6,$6,$6,$6,$6,$6,$6,$6,$5,$5,$5,$5,$5,$5,$5,$5,$5,$5,$5,$5
               1B9B   05 05 05 05
               1B9F   05 05 05 05
               1BA3   05 05 05 05
               1BA7   06 06 06 06
               1BAB   06 06 06 06
               1BAF   06 06 06 06
               1BB3   05 05 05 05
               1BB7   05 05 05 05
               1BBB   05 05 05 05
    144        1BBF   05 05 05 05          FCB $5,$5,$5,$5,$6,$6,$6,$6,$6,$6,$6,$6,$6,$6,$6,$6,$6,$6,$5,$5,$5,$5,$5,$5,$5,$5,$5,$5,$5,$5,$5,$5,$5,$5,$6,$6,$6,$6,$6,$6
               1BC3   06 06 06 06
               1BC7   06 06 06 06
               1BCB   06 06 06 06
               1BCF   06 06 05 05
               1BD3   05 05 05 05
               1BD7   05 05 05 05
               1BDB   05 05 05 05
               1BDF   05 05 06 06
               1BE3   06 06 06 06
    145        1BE7   06 06 06 06          FCB $6,$6,$6,$6,$6,$6,$5,$5,$5,$5,$5,$5,$5,$5,$5,$5,$5,$5,$5,$5,$e,$2,$c,$2,$d,$3,$f,$3,$e,$4,$e,$4,$c,$4,$f,$5,$10,$5,$10,$5
               1BEB   06 06 05 05
               1BEF   05 05 05 05
               1BF3   05 05 05 05
               1BF7   05 05 05 05
               1BFB   0E 02 0C 02
               1BFF   0D 03 0F 03
               1C03   0E 04 0E 04
               1C07   0C 04 0F 05
               1C0B   10 05 10 05
    146        1C0F   11 06 0F 04          FCB $11,$6,$f,$4,$12,$5,$12,$5,$12,$6,$13,$7,$11,$7,$13,$7,$14,$8,$14,$8,$15,$9,$13,$7,$16,$9,$17,$a,$17,$a,$18,$a,$18,$b,$18,$b,$19,$c,$19,$d
               1C13   12 05 12 05
               1C17   12 06 13 07
               1C1B   11 07 13 07
               1C1F   14 08 14 08
               1C23   15 09 13 07
               1C27   16 09 17 0A
               1C2B   17 0A 18 0A
               1C2F   18 0B 18 0B
               1C33   19 0C 19 0D
    147        1C37   19 0D 1A 0E          FCB $19,$d,$1a,$e,$1a,$e,$1b,$d,$19,$d,$1b,$f,$1c,$e,$1d,$e,$1d,$10,$1c,$f,$1e,$f,$1f,$10,$1f,$10,$1f,$11,$1e,$12,$20,$12,$20,$12,$21,$13,$23,$13,$20,$14
               1C3B   1A 0E 1B 0D
               1C3F   19 0D 1B 0F
               1C43   1C 0E 1D 0E
               1C47   1D 10 1C 0F
               1C4B   1E 0F 1F 10
               1C4F   1F 10 1F 11
               1C53   1E 12 20 12
               1C57   20 12 21 13
               1C5B   23 13 20 14
    148        1C5F   09 09 09 09          FCB $9,$9,$9,$9,$9,$9,$9,$9,$9,$9,$9,$9,$9,$9,$9,$9,$9,$9,$9,$9,$9,$9,$9,$9,$9,$9,$9,$9,$9,$9,$9,$9,$9,$9,$9,$9,$9,$9,$9,$9
               1C63   09 09 09 09
               1C67   09 09 09 09
               1C6B   09 09 09 09
               1C6F   09 09 09 09
               1C73   09 09 09 09
               1C77   09 09 09 09
               1C7B   09 09 09 09
               1C7F   09 09 09 09
               1C83   09 09 09 09
    149        1C87   09 09 09 09          FCB $9,$9,$9,$9,$9,$9,$9,$9,$9,$9,$a,$a,$9,$9,$9,$9,$9,$9,$9,$9,$9,$9,$9,$9,$9,$9,$9,$9,$9,$9,$9,$9,$9,$9,$9,$9,$9,$9,$9,$9
               1C8B   09 09 09 09
               1C8F   09 09 0A 0A
               1C93   09 09 09 09
               1C97   09 09 09 09
               1C9B   09 09 09 09
               1C9F   09 09 09 09
               1CA3   09 09 09 09
               1CA7   09 09 09 09
               1CAB   09 09 09 09
    150        1CAF   09 09 09 09          FCB $9,$9,$9,$9,$9,$9,$9,$9,$9,$9,$9,$9,$9,$9,$9,$9,$9,$9,$9,$9,$9,$9,$9,$9,$9,$9,$9,$9,$9,$9,$9,$9,$9,$9,$9,$9,$9,$9,$9,$9
               1CB3   09 09 09 09
               1CB7   09 09 09 09
               1CBB   09 09 09 09
               1CBF   09 09 09 09
               1CC3   09 09 09 09
               1CC7   09 09 09 09
               1CCB   09 09 09 09
               1CCF   09 09 09 09
               1CD3   09 09 09 09
    151        1CD7   09 09 09 09          FCB $9,$9,$9,$9,$9,$9,$9,$9,$9,$9,$9,$9,$9,$9,$9,$9,$9,$9,$9,$9,$9,$9,$9,$9,$9,$9,$9,$9,$9,$9,$a,$a,$9,$9,$9,$9,$9,$9,$9,$9
               1CDB   09 09 09 09
               1CDF   09 09 09 09
               1CE3   09 09 09 09
               1CE7   09 09 09 09
               1CEB   09 09 09 09
               1CEF   09 09 09 09
               1CF3   09 09 0A 0A
               1CF7   09 09 09 09
               1CFB   09 09 09 09
    152        1CFF   09 09 09 09          FCB $9,$9,$9,$9,$9,$9,$9,$9,$9,$9,$9,$9,$9,$9,$9,$9,$9,$9,$9,$9,$9,$9,$9,$9,$9,$9,$9,$9,$9,$9,$9,$9,$9,$9,$9,$9,$9,$9,$9,$9
               1D03   09 09 09 09
               1D07   09 09 09 09
               1D0B   09 09 09 09
               1D0F   09 09 09 09
               1D13   09 09 09 09
               1D17   09 09 09 09
               1D1B   09 09 09 09
               1D1F   09 09 09 09
               1D23   09 09 09 09
    153        1D27   02 08 04 0C          FCB $2,$8,$4,$c,$3,$9,$3,$d,$2,$a,$2,$a,$4,$e,$3,$b,$5,$10,$3,$c,$4,$b,$4,$b,$5,$c,$7,$10,$6,$c,$7,$11,$5,$d,$5,$d,$8,$12,$6,$e
               1D2B   03 09 03 0D
               1D2F   02 0A 02 0A
               1D33   04 0E 03 0B
               1D37   05 10 03 0C
               1D3B   04 0B 04 0B
               1D3F   05 0C 07 10
               1D43   06 0C 07 11
               1D47   05 0D 05 0D
               1D4B   08 12 06 0E
    154        1D4F   09 13 07 0F          FCB $9,$13,$7,$f,$7,$10,$8,$11,$8,$11,$a,$16,$9,$12,$9,$12,$a,$13,$b,$13,$d,$19,$a,$14,$e,$1a,$b,$15,$b,$15,$f,$1b,$c,$16,$10,$1d,$c,$19,$d,$18
               1D53   07 10 08 11
               1D57   08 11 0A 16
               1D5B   09 12 09 12
               1D5F   0A 13 0B 13
               1D63   0D 19 0A 14
               1D67   0E 1A 0B 15
               1D6B   0B 15 0F 1B
               1D6F   0C 16 10 1D
               1D73   0C 19 0D 18
    155        1D77   0D 1A 0E 1B          FCB $d,$1a,$e,$1b,$12,$1f,$f,$1b,$12,$20,$10,$1c,$10,$1c,$13,$21,$11,$1d,$14,$22,$5,$5,$5,$5,$5,$5,$5,$5,$5,$5,$5,$5,$5,$5,$5,$5,$6,$6,$6,$6
               1D7B   12 1F 0F 1B
               1D7F   12 20 10 1C
               1D83   10 1C 13 21
               1D87   11 1D 14 22
               1D8B   05 05 05 05
               1D8F   05 05 05 05
               1D93   05 05 05 05
               1D97   05 05 05 05
               1D9B   06 06 06 06
    156        1D9F   06 06 06 06          FCB $6,$6,$6,$6,$6,$6,$6,$6,$5,$5,$5,$5,$5,$5,$5,$5,$5,$5,$5,$5,$5,$5,$5,$5,$6,$6,$6,$6,$6,$6,$6,$6,$6,$6,$6,$6,$6,$6,$5,$5
               1DA3   06 06 06 06
               1DA7   05 05 05 05
               1DAB   05 05 05 05
               1DAF   05 05 05 05
               1DB3   05 05 05 05
               1DB7   06 06 06 06
               1DBB   06 06 06 06
               1DBF   06 06 06 06
               1DC3   06 06 05 05
    157        1DC7   05 05 05 05          FCB $5,$5,$5,$5,$5,$5,$5,$5,$5,$5,$5,$5,$5,$5,$6,$6,$6,$6,$6,$6,$6,$6,$6,$6,$6,$6,$5,$5,$5,$5,$5,$5,$5,$5,$5,$5,$5,$5,$5,$5
               1DCB   05 05 05 05
               1DCF   05 05 05 05
               1DD3   05 05 06 06
               1DD7   06 06 06 06
               1DDB   06 06 06 06
               1DDF   06 06 05 05
               1DE3   05 05 05 05
               1DE7   05 05 05 05
               1DEB   05 05 05 05
    158        1DEF   05 0D 06 0E          FCB $5,$d,$6,$e,$7,$e,$7,$f,$8,$10,$9,$10,$9,$11,$a,$10,$a,$10,$a,$11,$b,$12,$a,$12,$a,$13,$b,$14,$c,$13,$c,$14,$d,$15,$e,$15,$e,$16,$f,$17
               1DF3   07 0E 07 0F
               1DF7   08 10 09 10
               1DFB   09 11 0A 10
               1DFF   0A 10 0A 11
               1E03   0B 12 0A 12
               1E07   0A 13 0B 14
               1E0B   0C 13 0C 14
               1E0F   0D 15 0E 15
               1E13   0E 16 0F 17
    159        1E17   10 17 10 18          FCB $10,$17,$10,$18,$10,$19,$11,$19,$12,$1a,$12,$1b,$13,$1b,$14,$1c,$14,$1d,$15,$1c,$16,$1d,$16,$1e,$17,$1f,$18,$1f,$18,$20,$19,$21,$1a,$21,$19,$22,$1a,$23,$1b,$23
               1E1B   10 19 11 19
               1E1F   12 1A 12 1B
               1E23   13 1B 14 1C
               1E27   14 1D 15 1C
               1E2B   16 1D 16 1E
               1E2F   17 1F 18 1F
               1E33   18 20 19 21
               1E37   1A 21 19 22
               1E3B   1A 23 1B 23
    160        1E3F   1B 24 1C 25          FCB $1b,$24,$1c,$25,$1d,$25,$1d,$25,$1e,$26,$1f,$26,$1f,$27,$20,$28,$21,$28,$21,$29,$9,$a,$9,$a,$b,$b,$b,$c,$b,$c,$d,$c,$d,$e,$d,$e,$e,$e,$f,$f
               1E43   1D 25 1D 25
               1E47   1E 26 1F 26
               1E4B   1F 27 20 28
               1E4F   21 28 21 29
               1E53   09 0A 09 0A
               1E57   0B 0B 0B 0C
               1E5B   0B 0C 0D 0C
               1E5F   0D 0E 0D 0E
               1E63   0E 0E 0F 0F
    161        1E67   0F 10 10 10          FCB $f,$10,$10,$10,$11,$11,$11,$12,$12,$12,$12,$13,$13,$13,$14,$14,$14,$13,$14,$13,$14,$14,$14,$15,$16,$17,$18,$17,$18,$18,$18,$19,$19,$19,$1a,$19,$1a,$1b,$1b,$1b
               1E6B   11 11 11 12
               1E6F   12 12 12 13
               1E73   13 13 14 14
               1E77   14 13 14 13
               1E7B   14 14 14 15
               1E7F   16 17 18 17
               1E83   18 18 18 19
               1E87   19 19 1A 19
               1E8B   1A 1B 1B 1B
    162        1E8F   19 19 1A 1B          FCB $19,$19,$1a,$1b,$1a,$1b,$1b,$1b,$1c,$1c,$1c,$1d,$1d,$1d,$1d,$1e,$1e,$1e,$1f,$1f,$1f,$20,$20,$20,$21,$21,$21,$22,$21,$22,$23,$22,$23,$24,$23,$24,$24,$24,$25,$26
               1E93   1A 1B 1B 1B
               1E97   1C 1C 1C 1D
               1E9B   1D 1D 1D 1E
               1E9F   1E 1E 1F 1F
               1EA3   1F 20 20 20
               1EA7   21 21 21 22
               1EAB   21 22 23 22
               1EAF   23 24 23 24
               1EB3   24 24 25 26
    163        1EB7   00 00 00 00          FCB $0,$0,$0,$0,$0,$0,$0,$0,$0,$0,$1,$1,$0,$0,$0,$0,$0,$0,$1,$1,$0,$0,$0,$0,$1,$1,$0,$0,$0,$0,$0,$0,$1,$1,$0,$0,$0,$0,$0,$0
               1EBB   00 00 00 00
               1EBF   00 00 01 01
               1EC3   00 00 00 00
               1EC7   00 00 01 01
               1ECB   00 00 00 00
               1ECF   01 01 00 00
               1ED3   00 00 00 00
               1ED7   01 01 00 00
               1EDB   00 00 00 00
    164        1EDF   00 00 00 00          FCB $0,$0,$0,$0,$0,$0,$1,$1,$0,$0,$0,$0,$0,$0,$1,$1,$0,$0,$0,$0,$0,$0,$0,$0,$0,$0,$0,$0,$1,$1,$0,$0,$0,$0,$0,$0,$1,$1,$0,$0
               1EE3   00 00 01 01
               1EE7   00 00 00 00
               1EEB   00 00 01 01
               1EEF   00 00 00 00
               1EF3   00 00 00 00
               1EF7   00 00 00 00
               1EFB   01 01 00 00
               1EFF   00 00 00 00
               1F03   01 01 00 00
    165        1F07   00 00 01 01          FCB $0,$0,$1,$1,$0,$0,$0,$0,$0,$0,$1,$1,$0,$0,$0,$0,$0,$0,$0,$0,$7,$5,$c,$8,$7,$5,$c,$8,$9,$5,$8,$5,$d,$7,$a,$6,$d,$9,$a,$7
               1F0B   00 00 00 00
               1F0F   00 00 01 01
               1F13   00 00 00 00
               1F17   00 00 00 00
               1F1B   07 05 0C 08
               1F1F   07 05 0C 08
               1F23   09 05 08 05
               1F27   0D 07 0A 06
               1F2B   0D 09 0A 07
    166        1F2F   09 07 0A 08          FCB $9,$7,$a,$8,$b,$8,$f,$b,$b,$9,$10,$c,$d,$8,$d,$9,$11,$d,$e,$a,$12,$e,$f,$b,$f,$b,$10,$b,$10,$c,$14,$f,$11,$d,$12,$d,$12,$e,$12,$f
               1F33   0B 08 0F 0B
               1F37   0B 09 10 0C
               1F3B   0D 08 0D 09
               1F3F   11 0D 0E 0A
               1F43   12 0E 0F 0B
               1F47   0F 0B 10 0B
               1F4B   10 0C 14 0F
               1F4F   11 0D 12 0D
               1F53   12 0E 12 0F
    167        1F57   17 11 13 0F          FCB $17,$11,$13,$f,$18,$12,$14,$10,$15,$10,$19,$13,$16,$12,$1a,$14,$17,$12,$17,$13,$18,$14,$18,$13,$1c,$16,$19,$15,$1e,$18,$1a,$15,$1a,$16,$1f,$19,$1c,$18,$21,$1b
               1F5B   18 12 14 10
               1F5F   15 10 19 13
               1F63   16 12 1A 14
               1F67   17 12 17 13
               1F6B   18 14 18 13
               1F6F   1C 16 19 15
               1F73   1E 18 1A 15
               1F77   1A 16 1F 19
               1F7B   1C 18 21 1B
    168        1F7F   04 04 04 04          FCB $4,$4,$4,$4,$4,$4,$4,$4,$4,$4,$4,$4,$4,$4,$4,$4,$4,$4,$4,$4,$4,$4,$4,$4,$4,$4,$4,$4,$4,$4,$4,$4,$4,$4,$4,$4,$4,$4,$4,$4
               1F83   04 04 04 04
               1F87   04 04 04 04
               1F8B   04 04 04 04
               1F8F   04 04 04 04
               1F93   04 04 04 04
               1F97   04 04 04 04
               1F9B   04 04 04 04
               1F9F   04 04 04 04
               1FA3   04 04 04 04
    169        1FA7   04 04 04 04          FCB $4,$4,$4,$4,$4,$4,$4,$4,$4,$4,$3,$3,$4,$4,$4,$4,$4,$4,$3,$3,$4,$4,$4,$4,$4,$4,$4,$4,$4,$4,$4,$4,$4,$4,$4,$4,$4,$4,$4,$4
               1FAB   04 04 04 04
               1FAF   04 04 03 03
               1FB3   04 04 04 04
               1FB7   04 04 03 03
               1FBB   04 04 04 04
               1FBF   04 04 04 04
               1FC3   04 04 04 04
               1FC7   04 04 04 04
               1FCB   04 04 04 04
    170        1FCF   04 04 04 04          FCB $4,$4,$4,$4,$4,$4,$4,$4,$4,$4,$4,$4,$4,$4,$4,$4,$4,$4,$4,$4,$4,$4,$4,$4,$4,$4,$4,$4,$4,$4,$4,$4,$4,$4,$4,$4,$4,$4,$4,$4
               1FD3   04 04 04 04
               1FD7   04 04 04 04
               1FDB   04 04 04 04
               1FDF   04 04 04 04
               1FE3   04 04 04 04
               1FE7   04 04 04 04
               1FEB   04 04 04 04
               1FEF   04 04 04 04
               1FF3   04 04 04 04
    171        1FF7   04 04 04 04          FCB $4,$4,$4,$4,$4,$4,$4,$4,$4,$4,$4,$4,$4,$4,$4,$4,$4,$4,$4,$4,$4,$4,$4,$4,$4,$4,$4,$4,$4,$4,$3,$3,$4,$4,$4,$4,$4,$4,$3,$3
               1FFB   04 04 04 04
               1FFF   04 04 04 04
               2003   04 04 04 04
               2007   04 04 04 04
               200B   04 04 04 04
               200F   04 04 04 04
               2013   04 04 03 03
               2017   04 04 04 04
               201B   04 04 03 03
    172        201F   04 04 04 04          FCB $4,$4,$4,$4,$4,$4,$4,$4,$4,$4,$4,$4,$4,$4,$4,$4,$4,$4,$4,$4,$4,$4,$4,$4,$4,$4,$4,$4,$4,$4,$4,$4,$4,$4,$4,$4,$4,$4,$4,$4
               2023   04 04 04 04
               2027   04 04 04 04
               202B   04 04 04 04
               202F   04 04 04 04
               2033   04 04 04 04
               2037   04 04 04 04
               203B   04 04 04 04
               203F   04 04 04 04
               2043   04 04 04 04
    173        2047   08 0E 08 0B          FCB $8,$e,$8,$b,$8,$e,$9,$f,$9,$e,$a,$f,$8,$c,$b,$f,$b,$10,$c,$10,$c,$10,$a,$f,$d,$11,$e,$12,$e,$12,$e,$13,$d,$11,$e,$14,$f,$14,$e,$14
               204B   08 0E 09 0F
               204F   09 0E 0A 0F
               2053   08 0C 0B 0F
               2057   0B 10 0C 10
               205B   0C 10 0A 0F
               205F   0D 11 0E 12
               2063   0E 12 0E 13
               2067   0D 11 0E 14
               206B   0F 14 0E 14
    174        206F   0F 15 10 16          FCB $f,$15,$10,$16,$f,$16,$10,$16,$11,$17,$11,$17,$11,$17,$12,$18,$12,$19,$11,$17,$13,$19,$14,$1a,$14,$1b,$14,$1a,$13,$19,$15,$1c,$16,$1c,$16,$1c,$17,$1d,$15,$1c
               2073   0F 16 10 16
               2077   11 17 11 17
               207B   11 17 12 18
               207F   12 19 11 17
               2083   13 19 14 1A
               2087   14 1B 14 1A
               208B   13 19 15 1C
               208F   16 1C 16 1C
               2093   17 1D 15 1C
    175        2097   18 1E 18 1E          FCB $18,$1e,$18,$1e,$18,$1f,$19,$1f,$18,$1e,$19,$20,$1a,$21,$1b,$21,$1c,$22,$1b,$20,$0,$0,$1,$1,$0,$0,$0,$0,$1,$1,$1,$1,$0,$0,$0,$0,$1,$1,$0,$0
               209B   18 1F 19 1F
               209F   18 1E 19 20
               20A3   1A 21 1B 21
               20A7   1C 22 1B 20
               20AB   00 00 01 01
               20AF   00 00 00 00
               20B3   01 01 01 01
               20B7   00 00 00 00
               20BB   01 01 00 00
    176        20BF   00 00 01 01          FCB $0,$0,$1,$1,$0,$0,$0,$0,$0,$0,$1,$1,$0,$0,$0,$0,$1,$1,$0,$0,$0,$0,$0,$0,$1,$1,$0,$0,$0,$0,$1,$1,$0,$0,$0,$0,$1,$1,$1,$1
               20C3   00 00 00 00
               20C7   00 00 01 01
               20CB   00 00 00 00
               20CF   01 01 00 00
               20D3   00 00 00 00
               20D7   01 01 00 00
               20DB   00 00 01 01
               20DF   00 00 00 00
               20E3   01 01 01 01
    177        20E7   00 00 00 00          FCB $0,$0,$0,$0,$1,$1,$0,$0,$0,$0,$1,$1,$0,$0,$0,$0,$0,$0,$1,$1,$0,$0,$0,$0,$1,$1,$0,$0,$0,$0,$1,$1,$1,$1,$0,$0,$0,$0,$1,$1
               20EB   01 01 00 00
               20EF   00 00 01 01
               20F3   00 00 00 00
               20F7   00 00 01 01
               20FB   00 00 00 00
               20FF   01 01 00 00
               2103   00 00 01 01
               2107   01 01 00 00
               210B   00 00 01 01
    178        210F   0A 0B 0A 0C          FCB $a,$b,$a,$c,$c,$c,$c,$c,$c,$c,$c,$c,$d,$c,$d,$e,$d,$d,$d,$d,$d,$e,$d,$f,$e,$f,$e,$f,$e,$f,$f,$10,$10,$10,$10,$11,$10,$12,$11,$12
               2113   0C 0C 0C 0C
               2117   0C 0C 0C 0C
               211B   0D 0C 0D 0E
               211F   0D 0D 0D 0D
               2123   0D 0E 0D 0F
               2127   0E 0F 0E 0F
               212B   0E 0F 0F 10
               212F   10 10 10 11
               2133   10 12 11 12
    179        2137   11 12 12 12          FCB $11,$12,$12,$12,$12,$13,$13,$14,$13,$14,$13,$15,$14,$15,$14,$15,$15,$16,$15,$17,$16,$17,$16,$17,$16,$18,$17,$18,$18,$18,$18,$19,$19,$1a,$19,$1a,$19,$1a,$19,$1b
               213B   12 13 13 14
               213F   13 14 13 15
               2143   14 15 14 15
               2147   15 16 15 17
               214B   16 17 16 17
               214F   16 18 17 18
               2153   18 18 18 19
               2157   19 1A 19 1A
               215B   19 1A 19 1B
    180        215F   1A 1B 1B 1B          FCB $1a,$1b,$1b,$1b,$1b,$1d,$1c,$1d,$1c,$1d,$1c,$1e,$1c,$1e,$1e,$1e,$1e,$1e,$1e,$20,$e,$8,$f,$9,$10,$9,$11,$a,$11,$b,$12,$c,$13,$d,$14,$e,$15,$e,$16,$e
               2163   1B 1D 1C 1D
               2167   1C 1D 1C 1E
               216B   1C 1E 1E 1E
               216F   1E 1E 1E 20
               2173   0E 08 0F 09
               2177   10 09 11 0A
               217B   11 0B 12 0C
               217F   13 0D 14 0E
               2183   15 0E 16 0E
    181        2187   16 0D 17 0E          FCB $16,$d,$17,$e,$18,$f,$17,$10,$19,$11,$18,$11,$19,$12,$19,$13,$1a,$14,$1b,$15,$1c,$16,$1d,$16,$1e,$16,$1e,$17,$1f,$18,$20,$19,$21,$1a,$22,$1b,$23,$1b,$22,$1c
               218B   18 0F 17 10
               218F   19 11 18 11
               2193   19 12 19 13
               2197   1A 14 1B 15
               219B   1C 16 1D 16
               219F   1E 16 1E 17
               21A3   1F 18 20 19
               21A7   21 1A 22 1B
               21AB   23 1B 22 1C
    182        21AF   23 1D 24 1E          FCB $23,$1d,$24,$1e,$25,$1f,$26,$20,$27,$20,$28,$21,$28,$22,$29,$22,$2a,$23,$2b,$24,$2c,$25,$2d,$25,$2d,$26,$2d,$27,$2e,$28,$2f,$29,$30,$2a,$31,$2a,$32,$2b,$32,$2c
               21B3   25 1F 26 20
               21B7   27 20 28 21
               21BB   28 22 29 22
               21BF   2A 23 2B 24
               21C3   2C 25 2D 25
               21C7   2D 26 2D 27
               21CB   2E 28 2F 29
               21CF   30 2A 31 2A
               21D3   32 2B 32 2C
    183        21D7                    line_enemy_cmd
    184        21D7   15 17 15 17          FCB $15,$17,$15,$17,$15,$17,$15,$17,$15,$17,$15,$17,$15,$17,$15,$17,$15,$17,$15,$17,$15,$17,$15,$17,$15,$17,$15,$17,$15,$17,$15,$17,$15,$17,$15,$17,$15,$17,$15,$17
               21DB   15 17 15 17
               21DF   15 17 15 17
               21E3   15 17 15 17
               21E7   15 17 15 17
               21EB   15 17 15 17
               21EF   15 17 15 17
               21F3   15 17 15 17
               21F7   15 17 15 17
               21FB   15 17 15 17
    185        21FF   15 17 15 17          FCB $15,$17,$15,$17,$15,$17,$15,$17,$15,$17,$15,$17,$15,$17,$15,$17,$15,$17,$15,$17,$15,$17,$15,$17,$15,$17,$15,$17,$15,$17,$15,$17,$15,$17,$15,$17,$15,$17,$15,$17
               2203   15 17 15 17
               2207   15 17 15 17
               220B   15 17 15 17
               220F   15 17 15 17
               2213   15 17 15 17
               2217   15 17 15 17
               221B   15 17 15 17
               221F   15 17 15 17
               2223   15 17 15 17
    186        2227   15 17 15 17          FCB $15,$17,$15,$17,$15,$17,$15,$17,$15,$17,$15,$17,$15,$17,$15,$17,$15,$17,$15,$17,$17,$13,$17,$13,$17,$13,$17,$13,$17,$13,$17,$13,$17,$13,$17,$13,$17,$13,$17,$13
               222B   15 17 15 17
               222F   15 17 15 17
               2233   15 17 15 17
               2237   15 17 15 17
               223B   17 13 17 13
               223F   17 13 17 13
               2243   17 13 17 13
               2247   17 13 17 13
               224B   17 13 17 13
    187        224F   17 13 17 13          FCB $17,$13,$17,$13,$17,$13,$17,$13,$17,$13,$17,$13,$17,$13,$17,$13,$17,$13,$17,$13,$17,$13,$17,$13,$17,$13,$17,$13,$17,$13,$17,$13,$17,$13,$17,$13,$17,$13,$17,$13
               2253   17 13 17 13
               2257   17 13 17 13
               225B   17 13 17 13
               225F   17 13 17 13
               2263   17 13 17 13
               2267   17 13 17 13
               226B   17 13 17 13
               226F   17 13 17 13
               2273   17 13 17 13
    188        2277   17 13 17 13          FCB $17,$13,$17,$13,$17,$13,$17,$13,$17,$13,$17,$13,$17,$13,$17,$13,$17,$13,$17,$13,$17,$13,$17,$13,$17,$13,$17,$13,$17,$13,$17,$13,$17,$13,$17,$13,$17,$13,$17,$13
               227B   17 13 17 13
               227F   17 13 17 13
               2283   17 13 17 13
               2287   17 13 17 13
               228B   17 13 17 13
               228F   17 13 17 13
               2293   17 13 17 13
               2297   17 13 17 13
               229B   17 13 17 13
    189        229F   15 17 15 17          FCB $15,$17,$15,$17,$15,$17,$15,$17,$15,$17,$15,$17,$15,$17,$15,$17,$15,$17,$15,$17,$15,$17,$15,$17,$15,$17,$15,$17,$15,$17,$15,$17,$15,$17,$15,$17,$15,$17,$15,$17
               22A3   15 17 15 17
               22A7   15 17 15 17
               22AB   15 17 15 17
               22AF   15 17 15 17
               22B3   15 17 15 17
               22B7   15 17 15 17
               22BB   15 17 15 17
               22BF   15 17 15 17
               22C3   15 17 15 17
    190        22C7   15 17 15 17          FCB $15,$17,$15,$17,$15,$17,$15,$17,$15,$17,$15,$17,$15,$17,$15,$17,$15,$17,$15,$17,$15,$17,$15,$17,$15,$17,$15,$17,$15,$17,$15,$17,$15,$17,$15,$17,$15,$17,$15,$17
               22CB   15 17 15 17
               22CF   15 17 15 17
               22D3   15 17 15 17
               22D7   15 17 15 17
               22DB   15 17 15 17
               22DF   15 17 15 17
               22E3   15 17 15 17
               22E7   15 17 15 17
               22EB   15 17 15 17
    191        22EF   15 17 15 17          FCB $15,$17,$15,$17,$15,$17,$15,$17,$15,$17,$15,$17,$15,$17,$15,$17,$15,$17,$15,$17,$15,$17,$15,$17,$15,$17,$15,$17,$15,$17,$15,$17,$15,$17,$15,$17,$15,$17,$15,$17
               22F3   15 17 15 17
               22F7   15 17 15 17
               22FB   15 17 15 17
               22FF   15 17 15 17
               2303   15 17 15 17
               2307   15 17 15 17
               230B   15 17 15 17
               230F   15 17 15 17
               2313   15 17 15 17
    192        2317   15 17 15 17          FCB $15,$17,$15,$17,$15,$17,$15,$17,$15,$17,$15,$17,$15,$17,$15,$17,$15,$17,$15,$17,$15,$17,$15,$17,$15,$17,$15,$17,$15,$17,$15,$17,$15,$17,$15,$17,$15,$17,$15,$17
               231B   15 17 15 17
               231F   15 17 15 17
               2323   15 17 15 17
               2327   15 17 15 17
               232B   15 17 15 17
               232F   15 17 15 17
               2333   15 17 15 17
               2337   15 17 15 17
               233B   15 17 15 17
    193        233F   15 17 15 17          FCB $15,$17,$15,$17,$15,$17,$15,$17,$15,$17,$15,$17,$15,$17,$15,$17,$15,$17,$15,$17,$15,$17,$15,$17,$15,$17,$15,$17,$15,$17,$15,$17,$15,$17,$15,$17,$15,$17,$15,$17
               2343   15 17 15 17
               2347   15 17 15 17
               234B   15 17 15 17
               234F   15 17 15 17
               2353   15 17 15 17
               2357   15 17 15 17
               235B   15 17 15 17
               235F   15 17 15 17
               2363   15 17 15 17
    194        2367   11 15 11 15          FCB $11,$15,$11,$15,$11,$15,$11,$15,$11,$15,$11,$15,$11,$15,$11,$15,$11,$15,$11,$15,$11,$15,$11,$15,$11,$15,$11,$15,$11,$15,$11,$15,$11,$15,$11,$15,$11,$15,$11,$15
               236B   11 15 11 15
               236F   11 15 11 15
               2373   11 15 11 15
               2377   11 15 11 15
               237B   11 15 11 15
               237F   11 15 11 15
               2383   11 15 11 15
               2387   11 15 11 15
               238B   11 15 11 15
    195        238F   11 15 11 15          FCB $11,$15,$11,$15,$11,$15,$11,$15,$11,$15,$11,$15,$11,$15,$11,$15,$11,$15,$11,$15,$11,$15,$11,$15,$11,$15,$11,$15,$11,$15,$11,$15,$11,$15,$11,$15,$11,$15,$11,$15
               2393   11 15 11 15
               2397   11 15 11 15
               239B   11 15 11 15
               239F   11 15 11 15
               23A3   11 15 11 15
               23A7   11 15 11 15
               23AB   11 15 11 15
               23AF   11 15 11 15
               23B3   11 15 11 15
    196        23B7   11 15 11 15          FCB $11,$15,$11,$15,$11,$15,$11,$15,$11,$15,$11,$15,$11,$15,$11,$15,$11,$15,$11,$15,$15,$17,$15,$17,$15,$17,$15,$17,$15,$17,$15,$17,$15,$17,$15,$17,$15,$17,$15,$17
               23BB   11 15 11 15
               23BF   11 15 11 15
               23C3   11 15 11 15
               23C7   11 15 11 15
               23CB   15 17 15 17
               23CF   15 17 15 17
               23D3   15 17 15 17
               23D7   15 17 15 17
               23DB   15 17 15 17
    197        23DF   15 17 15 17          FCB $15,$17,$15,$17,$15,$17,$15,$17,$15,$17,$15,$17,$15,$17,$15,$17,$15,$17,$15,$17,$15,$17,$15,$17,$15,$17,$15,$17,$15,$17,$15,$17,$15,$17,$15,$17,$15,$17,$15,$17
               23E3   15 17 15 17
               23E7   15 17 15 17
               23EB   15 17 15 17
               23EF   15 17 15 17
               23F3   15 17 15 17
               23F7   15 17 15 17
               23FB   15 17 15 17
               23FF   15 17 15 17
               2403   15 17 15 17
    198        2407   15 17 15 17          FCB $15,$17,$15,$17,$15,$17,$15,$17,$15,$17,$15,$17,$15,$17,$15,$17,$15,$17,$15,$17,$15,$17,$15,$17,$15,$17,$15,$17,$15,$17,$15,$17,$15,$17,$15,$17,$15,$17,$15,$17
               240B   15 17 15 17
               240F   15 17 15 17
               2413   15 17 15 17
               2417   15 17 15 17
               241B   15 17 15 17
               241F   15 17 15 17
               2423   15 17 15 17
               2427   15 17 15 17
               242B   15 17 15 17
    199        242F   11 15 11 15          FCB $11,$15,$11,$15,$11,$15,$11,$15,$11,$15,$11,$15,$11,$15,$11,$15,$11,$15,$11,$15,$11,$15,$11,$15,$11,$15,$11,$15,$11,$15,$11,$15,$11,$15,$11,$15,$11,$15,$11,$15
               2433   11 15 11 15
               2437   11 15 11 15
               243B   11 15 11 15
               243F   11 15 11 15
               2443   11 15 11 15
               2447   11 15 11 15
               244B   11 15 11 15
               244F   11 15 11 15
               2453   11 15 11 15
    200        2457   11 15 11 15          FCB $11,$15,$11,$15,$11,$15,$11,$15,$11,$15,$11,$15,$11,$15,$11,$15,$11,$15,$11,$15,$11,$15,$11,$15,$11,$15,$11,$15,$11,$15,$11,$15,$11,$15,$11,$15,$11,$15,$11,$15
               245B   11 15 11 15
               245F   11 15 11 15
               2463   11 15 11 15
               2467   11 15 11 15
               246B   11 15 11 15
               246F   11 15 11 15
               2473   11 15 11 15
               2477   11 15 11 15
               247B   11 15 11 15
    201        247F   11 15 11 15          FCB $11,$15,$11,$15,$11,$15,$11,$15,$11,$15,$11,$15,$11,$15,$11,$15,$11,$15,$11,$15,$11,$15,$11,$15,$11,$15,$11,$15,$11,$15,$11,$15,$11,$15,$11,$15,$11,$15,$11,$15
               2483   11 15 11 15
               2487   11 15 11 15
               248B   11 15 11 15
               248F   11 15 11 15
               2493   11 15 11 15
               2497   11 15 11 15
               249B   11 15 11 15
               249F   11 15 11 15
               24A3   11 15 11 15
    202        24A7   11 15 11 15          FCB $11,$15,$11,$15,$11,$15,$11,$15,$11,$15,$11,$15,$11,$15,$11,$15,$11,$15,$11,$15,$11,$15,$11,$15,$11,$15,$11,$15,$11,$15,$11,$15,$11,$15,$11,$15,$11,$15,$11,$15
               24AB   11 15 11 15
               24AF   11 15 11 15
               24B3   11 15 11 15
               24B7   11 15 11 15
               24BB   11 15 11 15
               24BF   11 15 11 15
               24C3   11 15 11 15
               24C7   11 15 11 15
               24CB   11 15 11 15
    203        24CF   11 15 11 15          FCB $11,$15,$11,$15,$11,$15,$11,$15,$11,$15,$11,$15,$11,$15,$11,$15,$11,$15,$11,$15,$11,$15,$11,$15,$11,$15,$11,$15,$11,$15,$11,$15,$11,$15,$11,$15,$11,$15,$11,$15
               24D3   11 15 11 15
               24D7   11 15 11 15
               24DB   11 15 11 15
               24DF   11 15 11 15
               24E3   11 15 11 15
               24E7   11 15 11 15
               24EB   11 15 11 15
               24EF   11 15 11 15
               24F3   11 15 11 15
    204        24F7   13 11 13 11          FCB $13,$11,$13,$11,$13,$11,$13,$11,$13,$11,$13,$11,$13,$11,$13,$11,$13,$11,$13,$11,$13,$11,$13,$11,$13,$11,$13,$11,$13,$11,$13,$11,$13,$11,$13,$11,$13,$11,$13,$11
               24FB   13 11 13 11
               24FF   13 11 13 11
               2503   13 11 13 11
               2507   13 11 13 11
               250B   13 11 13 11
               250F   13 11 13 11
               2513   13 11 13 11
               2517   13 11 13 11
               251B   13 11 13 11
    205        251F   13 11 13 11          FCB $13,$11,$13,$11,$13,$11,$13,$11,$13,$11,$13,$11,$13,$11,$13,$11,$13,$11,$13,$11,$13,$11,$13,$11,$13,$11,$13,$11,$13,$11,$13,$11,$13,$11,$13,$11,$13,$11,$13,$11
               2523   13 11 13 11
               2527   13 11 13 11
               252B   13 11 13 11
               252F   13 11 13 11
               2533   13 11 13 11
               2537   13 11 13 11
               253B   13 11 13 11
               253F   13 11 13 11
               2543   13 11 13 11
    206        2547   13 11 13 11          FCB $13,$11,$13,$11,$13,$11,$13,$11,$13,$11,$13,$11,$13,$11,$13,$11,$13,$11,$13,$11,$11,$15,$11,$15,$11,$15,$11,$15,$11,$15,$11,$15,$11,$15,$11,$15,$11,$15,$11,$15
               254B   13 11 13 11
               254F   13 11 13 11
               2553   13 11 13 11
               2557   13 11 13 11
               255B   11 15 11 15
               255F   11 15 11 15
               2563   11 15 11 15
               2567   11 15 11 15
               256B   11 15 11 15
    207        256F   11 15 11 15          FCB $11,$15,$11,$15,$11,$15,$11,$15,$11,$15,$11,$15,$11,$15,$11,$15,$11,$15,$11,$15,$11,$15,$11,$15,$11,$15,$11,$15,$11,$15,$11,$15,$11,$15,$11,$15,$11,$15,$11,$15
               2573   11 15 11 15
               2577   11 15 11 15
               257B   11 15 11 15
               257F   11 15 11 15
               2583   11 15 11 15
               2587   11 15 11 15
               258B   11 15 11 15
               258F   11 15 11 15
               2593   11 15 11 15
    208        2597   11 15 11 15          FCB $11,$15,$11,$15,$11,$15,$11,$15,$11,$15,$11,$15,$11,$15,$11,$15,$11,$15,$11,$15,$11,$15,$11,$15,$11,$15,$11,$15,$11,$15,$11,$15,$11,$15,$11,$15,$11,$15,$11,$15
               259B   11 15 11 15
               259F   11 15 11 15
               25A3   11 15 11 15
               25A7   11 15 11 15
               25AB   11 15 11 15
               25AF   11 15 11 15
               25B3   11 15 11 15
               25B7   11 15 11 15
               25BB   11 15 11 15
    209        25BF   13 11 13 11          FCB $13,$11,$13,$11,$13,$11,$13,$11,$13,$11,$13,$11,$13,$11,$13,$11,$13,$11,$13,$11,$13,$11,$13,$11,$13,$11,$13,$11,$13,$11,$13,$11,$13,$11,$13,$11,$13,$11,$13,$11
               25C3   13 11 13 11
               25C7   13 11 13 11
               25CB   13 11 13 11
               25CF   13 11 13 11
               25D3   13 11 13 11
               25D7   13 11 13 11
               25DB   13 11 13 11
               25DF   13 11 13 11
               25E3   13 11 13 11
    210        25E7   13 11 13 11          FCB $13,$11,$13,$11,$13,$11,$13,$11,$13,$11,$13,$11,$13,$11,$13,$11,$13,$11,$13,$11,$13,$11,$13,$11,$13,$11,$13,$11,$13,$11,$13,$11,$13,$11,$13,$11,$13,$11,$13,$11
               25EB   13 11 13 11
               25EF   13 11 13 11
               25F3   13 11 13 11
               25F7   13 11 13 11
               25FB   13 11 13 11
               25FF   13 11 13 11
               2603   13 11 13 11
               2607   13 11 13 11
               260B   13 11 13 11
    211        260F   13 11 13 11          FCB $13,$11,$13,$11,$13,$11,$13,$11,$13,$11,$13,$11,$13,$11,$13,$11,$13,$11,$13,$11,$13,$11,$13,$11,$13,$11,$13,$11,$13,$11,$13,$11,$13,$11,$13,$11,$13,$11,$13,$11
               2613   13 11 13 11
               2617   13 11 13 11
               261B   13 11 13 11
               261F   13 11 13 11
               2623   13 11 13 11
               2627   13 11 13 11
               262B   13 11 13 11
               262F   13 11 13 11
               2633   13 11 13 11
    212        2637   13 11 13 11          FCB $13,$11,$13,$11,$13,$11,$13,$11,$13,$11,$13,$11,$13,$11,$13,$11,$13,$11,$13,$11,$13,$11,$13,$11,$13,$11,$13,$11,$13,$11,$13,$11,$13,$11,$13,$11,$13,$11,$13,$11
               263B   13 11 13 11
               263F   13 11 13 11
               2643   13 11 13 11
               2647   13 11 13 11
               264B   13 11 13 11
               264F   13 11 13 11
               2653   13 11 13 11
               2657   13 11 13 11
               265B   13 11 13 11
    213        265F   13 11 13 11          FCB $13,$11,$13,$11,$13,$11,$13,$11,$13,$11,$13,$11,$13,$11,$13,$11,$13,$11,$13,$11,$13,$11,$13,$11,$13,$11,$13,$11,$13,$11,$13,$11,$13,$11,$13,$11,$13,$11,$13,$11
               2663   13 11 13 11
               2667   13 11 13 11
               266B   13 11 13 11
               266F   13 11 13 11
               2673   13 11 13 11
               2677   13 11 13 11
               267B   13 11 13 11
               267F   13 11 13 11
               2683   13 11 13 11
    214        2687   17 13 17 13          FCB $17,$13,$17,$13,$17,$13,$17,$13,$17,$13,$17,$13,$17,$13,$17,$13,$17,$13,$17,$13,$17,$13,$17,$13,$17,$13,$17,$13,$17,$13,$17,$13,$17,$13,$17,$13,$17,$13,$17,$13
               268B   17 13 17 13
               268F   17 13 17 13
               2693   17 13 17 13
               2697   17 13 17 13
               269B   17 13 17 13
               269F   17 13 17 13
               26A3   17 13 17 13
               26A7   17 13 17 13
               26AB   17 13 17 13
    215        26AF   17 13 17 13          FCB $17,$13,$17,$13,$17,$13,$17,$13,$17,$13,$17,$13,$17,$13,$17,$13,$17,$13,$17,$13,$17,$13,$17,$13,$17,$13,$17,$13,$17,$13,$17,$13,$17,$13,$17,$13,$17,$13,$17,$13
               26B3   17 13 17 13
               26B7   17 13 17 13
               26BB   17 13 17 13
               26BF   17 13 17 13
               26C3   17 13 17 13
               26C7   17 13 17 13
               26CB   17 13 17 13
               26CF   17 13 17 13
               26D3   17 13 17 13
    216        26D7   17 13 17 13          FCB $17,$13,$17,$13,$17,$13,$17,$13,$17,$13,$17,$13,$17,$13,$17,$13,$17,$13,$17,$13,$13,$11,$13,$11,$13,$11,$13,$11,$13,$11,$13,$11,$13,$11,$13,$11,$13,$11,$13,$11
               26DB   17 13 17 13
               26DF   17 13 17 13
               26E3   17 13 17 13
               26E7   17 13 17 13
               26EB   13 11 13 11
               26EF   13 11 13 11
               26F3   13 11 13 11
               26F7   13 11 13 11
               26FB   13 11 13 11
    217        26FF   13 11 13 11          FCB $13,$11,$13,$11,$13,$11,$13,$11,$13,$11,$13,$11,$13,$11,$13,$11,$13,$11,$13,$11,$13,$11,$13,$11,$13,$11,$13,$11,$13,$11,$13,$11,$13,$11,$13,$11,$13,$11,$13,$11
               2703   13 11 13 11
               2707   13 11 13 11
               270B   13 11 13 11
               270F   13 11 13 11
               2713   13 11 13 11
               2717   13 11 13 11
               271B   13 11 13 11
               271F   13 11 13 11
               2723   13 11 13 11
    218        2727   13 11 13 11          FCB $13,$11,$13,$11,$13,$11,$13,$11,$13,$11,$13,$11,$13,$11,$13,$11,$13,$11,$13,$11,$13,$11,$13,$11,$13,$11,$13,$11,$13,$11,$13,$11,$13,$11,$13,$11,$13,$11,$13,$11
               272B   13 11 13 11
               272F   13 11 13 11
               2733   13 11 13 11
               2737   13 11 13 11
               273B   13 11 13 11
               273F   13 11 13 11
               2743   13 11 13 11
               2747   13 11 13 11
               274B   13 11 13 11
    219        274F   17 13 17 13          FCB $17,$13,$17,$13,$17,$13,$17,$13,$17,$13,$17,$13,$17,$13,$17,$13,$17,$13,$17,$13,$17,$13,$17,$13,$17,$13,$17,$13,$17,$13,$17,$13,$17,$13,$17,$13,$17,$13,$17,$13
               2753   17 13 17 13
               2757   17 13 17 13
               275B   17 13 17 13
               275F   17 13 17 13
               2763   17 13 17 13
               2767   17 13 17 13
               276B   17 13 17 13
               276F   17 13 17 13
               2773   17 13 17 13
    220        2777   17 13 17 13          FCB $17,$13,$17,$13,$17,$13,$17,$13,$17,$13,$17,$13,$17,$13,$17,$13,$17,$13,$17,$13,$17,$13,$17,$13,$17,$13,$17,$13,$17,$13,$17,$13,$17,$13,$17,$13,$17,$13,$17,$13
               277B   17 13 17 13
               277F   17 13 17 13
               2783   17 13 17 13
               2787   17 13 17 13
               278B   17 13 17 13
               278F   17 13 17 13
               2793   17 13 17 13
               2797   17 13 17 13
               279B   17 13 17 13
    221        279F   17 13 17 13          FCB $17,$13,$17,$13,$17,$13,$17,$13,$17,$13,$17,$13,$17,$13,$17,$13,$17,$13,$17,$13,$17,$13,$17,$13,$17,$13,$17,$13,$17,$13,$17,$13,$17,$13,$17,$13,$17,$13,$17,$13
               27A3   17 13 17 13
               27A7   17 13 17 13
               27AB   17 13 17 13
               27AF   17 13 17 13
               27B3   17 13 17 13
               27B7   17 13 17 13
               27BB   17 13 17 13
               27BF   17 13 17 13
               27C3   17 13 17 13
    222        27C7   17 13 17 13          FCB $17,$13,$17,$13,$17,$13,$17,$13,$17,$13,$17,$13,$17,$13,$17,$13,$17,$13,$17,$13,$17,$13,$17,$13,$17,$13,$17,$13,$17,$13,$17,$13,$17,$13,$17,$13,$17,$13,$17,$13
               27CB   17 13 17 13
               27CF   17 13 17 13
               27D3   17 13 17 13
               27D7   17 13 17 13
               27DB   17 13 17 13
               27DF   17 13 17 13
               27E3   17 13 17 13
               27E7   17 13 17 13
               27EB   17 13 17 13
    223        27EF   17 13 17 13          FCB $17,$13,$17,$13,$17,$13,$17,$13,$17,$13,$17,$13,$17,$13,$17,$13,$17,$13,$17,$13,$17,$13,$17,$13,$17,$13,$17,$13,$17,$13,$17,$13,$17,$13,$17,$13,$17,$13,$17,$13
               27F3   17 13 17 13
               27F7   17 13 17 13
               27FB   17 13 17 13
               27FF   17 13 17 13
               2803   17 13 17 13
               2807   17 13 17 13
               280B   17 13 17 13
               280F   17 13 17 13
               2813   17 13 17 13
    224        2817                    line_missile_x1
    225        2817   74 73 73 72          FCB $74,$73,$73,$72,$72,$71,$71,$70,$70,$6f,$6f,$6f,$6e,$6d,$6d,$6d,$6c,$6b,$6b,$6b,$6a,$69,$69,$69,$68,$68,$67,$67,$67,$66,$66,$65,$65,$64,$64,$63,$63,$62,$62,$61
               281B   72 71 71 70
               281F   70 6F 6F 6F
               2823   6E 6D 6D 6D
               2827   6C 6B 6B 6B
               282B   6A 69 69 69
               282F   68 68 67 67
               2833   67 66 66 65
               2837   65 64 64 63
               283B   63 62 62 61
    226        283F   61 61 60 5F          FCB $61,$61,$60,$5f,$5f,$5f,$5e,$5d,$5d,$5d,$5c,$5b,$5b,$5b,$5a,$5a,$5a,$59,$59,$58,$58,$57,$57,$56,$56,$55,$55,$54,$54,$53,$53,$53,$52,$51,$51,$51,$50,$4f,$4f,$4f
               2843   5F 5F 5E 5D
               2847   5D 5D 5C 5B
               284B   5B 5B 5A 5A
               284F   5A 59 59 58
               2853   58 57 57 56
               2857   56 55 55 54
               285B   54 53 53 53
               285F   52 51 51 51
               2863   50 4F 4F 4F
    227        2867   4E 4E 4D 4D          FCB $4e,$4e,$4d,$4d,$4c,$4c,$4c,$4b,$4b,$4a,$4a,$49,$49,$48,$48,$47,$47,$47,$46,$45,$7c,$7b,$7b,$7b,$7a,$7b,$7a,$79,$79,$79,$79,$79,$78,$78,$77,$77,$77,$77,$76,$77
               286B   4C 4C 4C 4B
               286F   4B 4A 4A 49
               2873   49 48 48 47
               2877   47 47 46 45
               287B   7C 7B 7B 7B
               287F   7A 7B 7A 79
               2883   79 79 79 79
               2887   78 78 77 77
               288B   77 77 76 77
    228        288F   76 75 75 75          FCB $76,$75,$75,$75,$74,$75,$74,$73,$73,$73,$73,$73,$72,$72,$71,$71,$71,$71,$70,$71,$70,$6f,$6f,$6f,$6e,$6f,$6e,$6d,$6d,$6d,$6d,$6d,$6c,$6b,$6b,$6b,$6b,$6b,$6a,$6b
               2893   74 75 74 73
               2897   73 73 73 73
               289B   72 72 71 71
               289F   71 71 70 71
               28A3   70 6F 6F 6F
               28A7   6E 6F 6E 6D
               28AB   6D 6D 6D 6D
               28AF   6C 6B 6B 6B
               28B3   6B 6B 6A 6B
    229        28B7   69 69 69 69          FCB $69,$69,$69,$69,$68,$69,$68,$67,$67,$67,$66,$67,$66,$65,$65,$65,$65,$65,$64,$64,$63,$63,$63,$63,$62,$63,$62,$61,$61,$61,$60,$61,$60,$5f,$5f,$5f,$5f,$5f,$5e,$5e
               28BB   68 69 68 67
               28BF   67 67 66 67
               28C3   66 65 65 65
               28C7   65 65 64 64
               28CB   63 63 63 63
               28CF   62 63 62 61
               28D3   61 61 60 61
               28D7   60 5F 5F 5F
               28DB   5F 5F 5E 5E
    230        28DF   82 81 81 81          FCB $82,$81,$81,$81,$81,$81,$81,$81,$80,$81,$80,$80,$80,$80,$7f,$7f,$7f,$7f,$7f,$7f,$7e,$7e,$7e,$7e,$7e,$7d,$7d,$7d,$7d,$7d,$7d,$7d,$7c,$7d,$7c,$7c,$7c,$7b,$7b,$7b
               28E3   81 81 81 81
               28E7   80 81 80 80
               28EB   80 80 7F 7F
               28EF   7F 7F 7F 7F
               28F3   7E 7E 7E 7E
               28F7   7E 7D 7D 7D
               28FB   7D 7D 7D 7D
               28FF   7C 7D 7C 7C
               2903   7C 7B 7B 7B
    231        2907   7B 7B 7B 7B          FCB $7b,$7b,$7b,$7b,$7a,$7a,$7a,$79,$7a,$79,$79,$79,$79,$79,$79,$79,$78,$78,$78,$78,$78,$77,$77,$77,$77,$77,$77,$77,$76,$77,$76,$76,$76,$75,$75,$75,$75,$75,$75,$75
               290B   7A 7A 7A 79
               290F   7A 79 79 79
               2913   79 79 79 79
               2917   78 78 78 78
               291B   78 77 77 77
               291F   77 77 77 77
               2923   76 77 76 76
               2927   76 75 75 75
               292B   75 75 75 75
    232        292F   74 74 74 73          FCB $74,$74,$74,$73,$74,$73,$73,$73,$73,$73,$73,$73,$72,$72,$72,$72,$72,$71,$71,$71,$90,$8f,$90,$8f,$90,$90,$90,$90,$90,$91,$91,$91,$91,$91,$91,$91,$91,$91,$91,$91
               2933   74 73 73 73
               2937   73 73 73 73
               293B   72 72 72 72
               293F   72 71 71 71
               2943   90 8F 90 8F
               2947   90 90 90 90
               294B   90 91 91 91
               294F   91 91 91 91
               2953   91 91 91 91
    233        2957   91 91 92 92          FCB $91,$91,$92,$92,$92,$92,$92,$92,$92,$92,$92,$92,$92,$93,$93,$93,$93,$93,$93,$93,$93,$93,$93,$93,$93,$93,$94,$94,$94,$94,$94,$94,$94,$95,$94,$95,$94,$95,$95,$95
               295B   92 92 92 92
               295F   92 92 92 92
               2963   92 93 93 93
               2967   93 93 93 93
               296B   93 93 93 93
               296F   93 93 94 94
               2973   94 94 94 94
               2977   94 95 94 95
               297B   94 95 95 95
    234        297F   95 95 95 95          FCB $95,$95,$95,$95,$95,$95,$95,$95,$96,$95,$96,$95,$96,$96,$96,$96,$96,$97,$96,$97,$97,$97,$97,$97,$97,$97,$97,$97,$97,$97,$97,$97,$98,$97,$98,$97,$98,$98,$98,$98
               2983   95 95 95 95
               2987   96 95 96 95
               298B   96 96 96 96
               298F   96 97 96 97
               2993   97 97 97 97
               2997   97 97 97 97
               299B   97 97 97 97
               299F   98 97 98 97
               29A3   98 98 98 98
    235        29A7   96 95 96 96          FCB $96,$95,$96,$96,$96,$97,$97,$97,$97,$97,$98,$97,$98,$98,$99,$99,$99,$99,$99,$99,$9a,$99,$9a,$9b,$9b,$9b,$9b,$9b,$9b,$9b,$9c,$9c,$9c,$9d,$9d,$9d,$9d,$9d,$9e,$9d
               29AB   96 97 97 97
               29AF   97 97 98 97
               29B3   98 98 99 99
               29B7   99 99 99 99
               29BB   9A 99 9A 9B
               29BF   9B 9B 9B 9B
               29C3   9B 9B 9C 9C
               29C7   9C 9D 9D 9D
               29CB   9D 9D 9E 9D
    236        29CF   9E 9E 9E 9F          FCB $9e,$9e,$9e,$9f,$9f,$9f,$9f,$9f,$a0,$9f,$a0,$a0,$a0,$a1,$a1,$a1,$a1,$a1,$a2,$a1,$a2,$a2,$a2,$a3,$a3,$a3,$a3,$a3,$a4,$a3,$a4,$a4,$a5,$a5,$a5,$a5,$a5,$a5,$a6,$a5
               29D3   9F 9F 9F 9F
               29D7   A0 9F A0 A0
               29DB   A0 A1 A1 A1
               29DF   A1 A1 A2 A1
               29E3   A2 A2 A2 A3
               29E7   A3 A3 A3 A3
               29EB   A4 A3 A4 A4
               29EF   A5 A5 A5 A5
               29F3   A5 A5 A6 A5
    237        29F7   A6 A7 A7 A7          FCB $a6,$a7,$a7,$a7,$a7,$a7,$a7,$a7,$a8,$a8,$a8,$a9,$a9,$a9,$a9,$a9,$aa,$a9,$aa,$aa,$9e,$9d,$9f,$9f,$9f,$9f,$a0,$a0,$a1,$a1,$a2,$a1,$a2,$a2,$a3,$a3,$a4,$a3,$a5,$a4
               29FB   A7 A7 A7 A7
               29FF   A8 A8 A8 A9
               2A03   A9 A9 A9 A9
               2A07   AA A9 AA AA
               2A0B   9E 9D 9F 9F
               2A0F   9F 9F A0 A0
               2A13   A1 A1 A2 A1
               2A17   A2 A2 A3 A3
               2A1B   A4 A3 A5 A4
    238        2A1F   A5 A5 A6 A5          FCB $a5,$a5,$a6,$a5,$a7,$a6,$a7,$a7,$a8,$a7,$a9,$a9,$aa,$a9,$aa,$a9,$ab,$ab,$ac,$ab,$ac,$ac,$ad,$ad,$ae,$ad,$af,$ae,$af,$af,$b0,$af,$b1,$b0,$b1,$b1,$b2,$b1,$b3,$b2
               2A23   A7 A6 A7 A7
               2A27   A8 A7 A9 A9
               2A2B   AA A9 AA A9
               2A2F   AB AB AC AB
               2A33   AC AC AD AD
               2A37   AE AD AF AE
               2A3B   AF AF B0 AF
               2A3F   B1 B0 B1 B1
               2A43   B2 B1 B3 B2
    239        2A47   B4 B3 B4 B4          FCB $b4,$b3,$b4,$b4,$b5,$b5,$b6,$b5,$b6,$b6,$b7,$b7,$b8,$b7,$b9,$b9,$b9,$b9,$ba,$b9,$bb,$bb,$bb,$bb,$bc,$bc,$bd,$bd,$be,$bd,$be,$be,$bf,$bf,$c0,$bf,$c0,$c0,$c1,$c1
               2A4B   B5 B5 B6 B5
               2A4F   B6 B6 B7 B7
               2A53   B8 B7 B9 B9
               2A57   B9 B9 BA B9
               2A5B   BB BB BB BB
               2A5F   BC BC BD BD
               2A63   BE BD BE BE
               2A67   BF BF C0 BF
               2A6B   C0 C0 C1 C1
    240        2A6F   A4 A4 A5 A5          FCB $a4,$a4,$a5,$a5,$a6,$a6,$a7,$a7,$a8,$a8,$a9,$a9,$aa,$aa,$ab,$ab,$ac,$ac,$ad,$ad,$ae,$ae,$af,$af,$b0,$b0,$b1,$b1,$b2,$b2,$b3,$b3,$b4,$b4,$b5,$b5,$b6,$b6,$b7,$b7
               2A73   A6 A6 A7 A7
               2A77   A8 A8 A9 A9
               2A7B   AA AA AB AB
               2A7F   AC AC AD AD
               2A83   AE AE AF AF
               2A87   B0 B0 B1 B1
               2A8B   B2 B2 B3 B3
               2A8F   B4 B4 B5 B5
               2A93   B6 B6 B7 B7
    241        2A97   B8 B8 B9 B9          FCB $b8,$b8,$b9,$b9,$ba,$bb,$bb,$bb,$bc,$bd,$bd,$bd,$bf,$bf,$c0,$bf,$c1,$c1,$c2,$c1,$c3,$c3,$c4,$c4,$c5,$c5,$c6,$c6,$c7,$c7,$c8,$c8,$c9,$c9,$ca,$ca,$cb,$cb,$cc,$cc
               2A9B   BA BB BB BB
               2A9F   BC BD BD BD
               2AA3   BF BF C0 BF
               2AA7   C1 C1 C2 C1
               2AAB   C3 C3 C4 C4
               2AAF   C5 C5 C6 C6
               2AB3   C7 C7 C8 C8
               2AB7   C9 C9 CA CA
               2ABB   CB CB CC CC
    242        2ABF   CD CD CE CE          FCB $cd,$cd,$ce,$ce,$cf,$cf,$d0,$d0,$d1,$d1,$d2,$d2,$d3,$d3,$d4,$d4,$d5,$d5,$d6,$d6,$a4,$a4,$a5,$a5,$a6,$a6,$a7,$a7,$a8,$a8,$a9,$a9,$aa,$aa,$ab,$ab,$ac,$ac,$ad,$ad
               2AC3   CF CF D0 D0
               2AC7   D1 D1 D2 D2
               2ACB   D3 D3 D4 D4
               2ACF   D5 D5 D6 D6
               2AD3   A4 A4 A5 A5
               2AD7   A6 A6 A7 A7
               2ADB   A8 A8 A9 A9
               2ADF   AA AA AB AB
               2AE3   AC AC AD AD
    243        2AE7   AE AE AF AF          FCB $ae,$ae,$af,$af,$b0,$b0,$b1,$b1,$b2,$b2,$b3,$b3,$b4,$b4,$b5,$b5,$b6,$b6,$b7,$b7,$b8,$b8,$b9,$b9,$ba,$bb,$bb,$bb,$bc,$bd,$bd,$bd,$bf,$bf,$c0,$bf,$c1,$c1,$c2,$c1
               2AEB   B0 B0 B1 B1
               2AEF   B2 B2 B3 B3
               2AF3   B4 B4 B5 B5
               2AF7   B6 B6 B7 B7
               2AFB   B8 B8 B9 B9
               2AFF   BA BB BB BB
               2B03   BC BD BD BD
               2B07   BF BF C0 BF
               2B0B   C1 C1 C2 C1
    244        2B0F   C3 C3 C4 C4          FCB $c3,$c3,$c4,$c4,$c5,$c5,$c6,$c6,$c7,$c7,$c8,$c8,$c9,$c9,$ca,$ca,$cb,$cb,$cc,$cc,$cd,$cd,$ce,$ce,$cf,$cf,$d0,$d0,$d1,$d1,$d2,$d2,$d3,$d3,$d4,$d4,$d5,$d5,$d6,$d6
               2B13   C5 C5 C6 C6
               2B17   C7 C7 C8 C8
               2B1B   C9 C9 CA CA
               2B1F   CB CB CC CC
               2B23   CD CD CE CE
               2B27   CF CF D0 D0
               2B2B   D1 D1 D2 D2
               2B2F   D3 D3 D4 D4
               2B33   D5 D5 D6 D6
    245        2B37   9E 9E 9E 9F          FCB $9e,$9e,$9e,$9f,$9f,$9f,$a0,$a0,$a1,$a1,$a1,$a1,$a2,$a2,$a3,$a3,$a3,$a3,$a4,$a5,$a5,$a5,$a6,$a6,$a6,$a7,$a7,$a7,$a8,$a8,$a8,$a9,$a9,$a9,$aa,$aa,$ab,$ab,$ab,$ab
               2B3B   9F 9F A0 A0
               2B3F   A1 A1 A1 A1
               2B43   A2 A2 A3 A3
               2B47   A3 A3 A4 A5
               2B4B   A5 A5 A6 A6
               2B4F   A6 A7 A7 A7
               2B53   A8 A8 A8 A9
               2B57   A9 A9 AA AA
               2B5B   AB AB AB AB
    246        2B5F   AC AC AD AD          FCB $ac,$ac,$ad,$ad,$ad,$ae,$ae,$af,$af,$af,$b0,$b0,$b0,$b1,$b1,$b1,$b2,$b3,$b2,$b3,$b3,$b3,$b4,$b5,$b5,$b5,$b5,$b6,$b6,$b7,$b7,$b7,$b7,$b8,$b8,$b9,$b9,$b9,$ba,$ba
               2B63   AD AE AE AF
               2B67   AF AF B0 B0
               2B6B   B0 B1 B1 B1
               2B6F   B2 B3 B2 B3
               2B73   B3 B3 B4 B5
               2B77   B5 B5 B5 B6
               2B7B   B6 B7 B7 B7
               2B7F   B7 B8 B8 B9
               2B83   B9 B9 BA BA
    247        2B87   BA BB BB BB          FCB $ba,$bb,$bb,$bb,$bc,$bc,$bc,$bd,$bd,$bd,$be,$bf,$bf,$bf,$bf,$bf,$c0,$c1,$c1,$c1,$96,$95,$96,$96,$96,$97,$97,$97,$97,$97,$98,$97,$98,$98,$99,$99,$99,$99,$99,$99
               2B8B   BC BC BC BD
               2B8F   BD BD BE BF
               2B93   BF BF BF BF
               2B97   C0 C1 C1 C1
               2B9B   96 95 96 96
               2B9F   96 97 97 97
               2BA3   97 97 98 97
               2BA7   98 98 99 99
               2BAB   99 99 99 99
    248        2BAF   9A 99 9A 9B          FCB $9a,$99,$9a,$9b,$9b,$9b,$9b,$9b,$9b,$9b,$9c,$9c,$9c,$9d,$9d,$9d,$9d,$9d,$9e,$9d,$9e,$9e,$9e,$9f,$9f,$9f,$9f,$9f,$a0,$9f,$a0,$a0,$a0,$a1,$a1,$a1,$a1,$a1,$a2,$a1
               2BB3   9B 9B 9B 9B
               2BB7   9B 9B 9C 9C
               2BBB   9C 9D 9D 9D
               2BBF   9D 9D 9E 9D
               2BC3   9E 9E 9E 9F
               2BC7   9F 9F 9F 9F
               2BCB   A0 9F A0 A0
               2BCF   A0 A1 A1 A1
               2BD3   A1 A1 A2 A1
    249        2BD7   A2 A2 A2 A3          FCB $a2,$a2,$a2,$a3,$a3,$a3,$a3,$a3,$a4,$a3,$a4,$a4,$a5,$a5,$a5,$a5,$a5,$a5,$a6,$a5,$a6,$a7,$a7,$a7,$a7,$a7,$a7,$a7,$a8,$a8,$a8,$a9,$a9,$a9,$a9,$a9,$aa,$a9,$aa,$aa
               2BDB   A3 A3 A3 A3
               2BDF   A4 A3 A4 A4
               2BE3   A5 A5 A5 A5
               2BE7   A5 A5 A6 A5
               2BEB   A6 A7 A7 A7
               2BEF   A7 A7 A7 A7
               2BF3   A8 A8 A8 A9
               2BF7   A9 A9 A9 A9
               2BFB   AA A9 AA AA
    250        2BFF   8F 8F 8F 8F          FCB $8f,$8f,$8f,$8f,$90,$8f,$90,$90,$90,$90,$90,$90,$90,$91,$91,$91,$91,$91,$91,$91,$91,$91,$91,$91,$91,$91,$92,$91,$92,$91,$92,$92,$92,$92,$92,$92,$93,$93,$93,$93
               2C03   90 8F 90 90
               2C07   90 90 90 90
               2C0B   90 91 91 91
               2C0F   91 91 91 91
               2C13   91 91 91 91
               2C17   91 91 92 91
               2C1B   92 91 92 92
               2C1F   92 92 92 92
               2C23   93 93 93 93
    251        2C27   93 93 93 93          FCB $93,$93,$93,$93,$93,$93,$93,$93,$94,$93,$94,$94,$94,$94,$94,$94,$94,$95,$95,$94,$95,$95,$95,$95,$95,$95,$95,$95,$95,$95,$96,$95,$96,$95,$96,$96,$96,$96,$96,$96
               2C2B   93 93 93 93
               2C2F   94 93 94 94
               2C33   94 94 94 94
               2C37   94 95 95 94
               2C3B   95 95 95 95
               2C3F   95 95 95 95
               2C43   95 95 96 95
               2C47   96 95 96 96
               2C4B   96 96 96 96
    252        2C4F   97 97 97 97          FCB $97,$97,$97,$97,$97,$97,$97,$97,$97,$97,$97,$97,$98,$97,$98,$98,$98,$98,$98,$98,$81,$81,$80,$81,$80,$80,$80,$7f,$7f,$7f,$7f,$7f,$7f,$7f,$7e,$7f,$7e,$7e,$7e,$7e
               2C53   97 97 97 97
               2C57   97 97 97 97
               2C5B   98 97 98 98
               2C5F   98 98 98 98
               2C63   81 81 80 81
               2C67   80 80 80 7F
               2C6B   7F 7F 7F 7F
               2C6F   7F 7F 7E 7F
               2C73   7E 7E 7E 7E
    253        2C77   7D 7D 7D 7D          FCB $7d,$7d,$7d,$7d,$7d,$7d,$7c,$7d,$7c,$7d,$7c,$7c,$7b,$7b,$7b,$7b,$7b,$7b,$7a,$7b,$7a,$7b,$7a,$79,$79,$79,$79,$79,$79,$79,$78,$79,$78,$78,$78,$78,$77,$77,$77,$77
               2C7B   7D 7D 7C 7D
               2C7F   7C 7D 7C 7C
               2C83   7B 7B 7B 7B
               2C87   7B 7B 7A 7B
               2C8B   7A 7B 7A 79
               2C8F   79 79 79 79
               2C93   79 79 78 79
               2C97   78 78 78 78
               2C9B   77 77 77 77
    254        2C9F   77 77 76 77          FCB $77,$77,$76,$77,$76,$77,$76,$76,$75,$75,$75,$75,$75,$75,$74,$75,$74,$75,$74,$74,$73,$74,$73,$73,$73,$73,$73,$73,$72,$72,$72,$72,$72,$71,$71,$71,$71,$71,$71,$71
               2CA3   76 77 76 76
               2CA7   75 75 75 75
               2CAB   75 75 74 75
               2CAF   74 75 74 74
               2CB3   73 74 73 73
               2CB7   73 73 73 73
               2CBB   72 72 72 72
               2CBF   72 71 71 71
               2CC3   71 71 71 71
    255        2CC7   7B 7B 7A 7A          FCB $7b,$7b,$7a,$7a,$79,$79,$79,$79,$78,$79,$78,$77,$77,$77,$76,$77,$76,$75,$75,$75,$75,$75,$74,$74,$73,$73,$73,$73,$72,$73,$72,$71,$71,$71,$70,$71,$70,$6f,$6f,$6f
               2CCB   79 79 79 79
               2CCF   78 79 78 77
               2CD3   77 77 76 77
               2CD7   76 75 75 75
               2CDB   75 75 74 74
               2CDF   73 73 73 73
               2CE3   72 73 72 71
               2CE7   71 71 70 71
               2CEB   70 6F 6F 6F
    256        2CEF   6F 6F 6E 6D          FCB $6f,$6f,$6e,$6d,$6d,$6d,$6d,$6d,$6c,$6d,$6b,$6b,$6b,$6b,$6a,$6b,$6a,$69,$69,$69,$68,$69,$68,$67,$67,$67,$67,$67,$66,$66,$65,$65,$65,$65,$64,$65,$64,$63,$63,$63
               2CF3   6D 6D 6D 6D
               2CF7   6C 6D 6B 6B
               2CFB   6B 6B 6A 6B
               2CFF   6A 69 69 69
               2D03   68 69 68 67
               2D07   67 67 67 67
               2D0B   66 66 65 65
               2D0F   65 65 64 65
               2D13   64 63 63 63
    257        2D17   62 63 62 61          FCB $62,$63,$62,$61,$61,$61,$61,$61,$60,$60,$5f,$5f,$5f,$5f,$5e,$5f,$5e,$5d,$5d,$5d,$72,$73,$72,$73,$71,$71,$70,$70,$6f,$6f,$6e,$6f,$6d,$6d,$6c,$6d,$6b,$6b,$6a,$6b
               2D1B   61 61 61 61
               2D1F   60 60 5F 5F
               2D23   5F 5F 5E 5F
               2D27   5E 5D 5D 5D
               2D2B   72 73 72 73
               2D2F   71 71 70 70
               2D33   6F 6F 6E 6F
               2D37   6D 6D 6C 6D
               2D3B   6B 6B 6A 6B
    258        2D3F   69 69 68 69          FCB $69,$69,$68,$69,$67,$68,$66,$67,$65,$66,$65,$65,$64,$65,$63,$63,$62,$62,$61,$61,$60,$61,$5f,$5f,$5e,$5f,$5d,$5d,$5c,$5d,$5b,$5c,$5a,$5b,$59,$5a,$58,$59,$57,$58
               2D43   67 68 66 67
               2D47   65 66 65 65
               2D4B   64 65 63 63
               2D4F   62 62 61 61
               2D53   60 61 5F 5F
               2D57   5E 5F 5D 5D
               2D5B   5C 5D 5B 5C
               2D5F   5A 5B 59 5A
               2D63   58 59 57 58
    259        2D67   57 57 56 56          FCB $57,$57,$56,$56,$55,$55,$54,$54,$53,$53,$52,$53,$51,$51,$50,$51,$4f,$4f,$4e,$4f,$4d,$4e,$4c,$4d,$4b,$4c,$4a,$4b,$49,$4b,$49,$49,$48,$48,$47,$47,$46,$47,$45,$45
               2D6B   55 55 54 54
               2D6F   53 53 52 53
               2D73   51 51 50 51
               2D77   4F 4F 4E 4F
               2D7B   4D 4E 4C 4D
               2D7F   4B 4C 4A 4B
               2D83   49 4B 49 49
               2D87   48 48 47 47
               2D8B   46 47 45 45
    260        2D8F   6D 6D 6C 6C          FCB $6d,$6d,$6c,$6c,$6a,$6a,$69,$69,$68,$68,$67,$67,$65,$65,$64,$64,$63,$63,$62,$62,$60,$60,$5f,$5f,$5e,$5e,$5d,$5d,$5b,$5b,$5a,$5a,$59,$59,$58,$58,$56,$56,$55,$55
               2D93   6A 6A 69 69
               2D97   68 68 67 67
               2D9B   65 65 64 64
               2D9F   63 63 62 62
               2DA3   60 60 5F 5F
               2DA7   5E 5E 5D 5D
               2DAB   5B 5B 5A 5A
               2DAF   59 59 58 58
               2DB3   56 56 55 55
    261        2DB7   54 54 53 53          FCB $54,$54,$53,$53,$51,$51,$50,$50,$4f,$4f,$4d,$4d,$4c,$4c,$4b,$4b,$4a,$4a,$48,$48,$47,$47,$46,$46,$45,$45,$43,$43,$42,$42,$41,$41,$40,$40,$3e,$3e,$3d,$3d,$3c,$3c
               2DBB   51 51 50 50
               2DBF   4F 4F 4D 4D
               2DC3   4C 4C 4B 4B
               2DC7   4A 4A 48 48
               2DCB   47 47 46 46
               2DCF   45 45 43 43
               2DD3   42 42 41 41
               2DD7   40 40 3E 3E
               2DDB   3D 3D 3C 3C
    262        2DDF   3B 3B 39 39          FCB $3b,$3b,$39,$39,$38,$38,$37,$37,$36,$36,$34,$34,$33,$33,$32,$32,$31,$31,$2f,$2f,$6d,$6d,$6c,$6c,$6a,$6a,$69,$69,$68,$68,$67,$67,$65,$65,$64,$64,$63,$63,$62,$62
               2DE3   38 38 37 37
               2DE7   36 36 34 34
               2DEB   33 33 32 32
               2DEF   31 31 2F 2F
               2DF3   6D 6D 6C 6C
               2DF7   6A 6A 69 69
               2DFB   68 68 67 67
               2DFF   65 65 64 64
               2E03   63 63 62 62
    263        2E07   60 60 5F 5F          FCB $60,$60,$5f,$5f,$5e,$5e,$5d,$5d,$5b,$5b,$5a,$5a,$59,$59,$58,$58,$56,$56,$55,$55,$54,$54,$53,$53,$51,$51,$50,$50,$4f,$4f,$4d,$4d,$4c,$4c,$4b,$4b,$4a,$4a,$48,$48
               2E0B   5E 5E 5D 5D
               2E0F   5B 5B 5A 5A
               2E13   59 59 58 58
               2E17   56 56 55 55
               2E1B   54 54 53 53
               2E1F   51 51 50 50
               2E23   4F 4F 4D 4D
               2E27   4C 4C 4B 4B
               2E2B   4A 4A 48 48
    264        2E2F   47 47 46 46          FCB $47,$47,$46,$46,$45,$45,$43,$43,$42,$42,$41,$41,$40,$40,$3e,$3e,$3d,$3d,$3c,$3c,$3b,$3b,$39,$39,$38,$38,$37,$37,$36,$36,$34,$34,$33,$33,$32,$32,$31,$31,$2f,$2f
               2E33   45 45 43 43
               2E37   42 42 41 41
               2E3B   40 40 3E 3E
               2E3F   3D 3D 3C 3C
               2E43   3B 3B 39 39
               2E47   38 38 37 37
               2E4B   36 36 34 34
               2E4F   33 33 32 32
               2E53   31 31 2F 2F
    265        2E57                    line_missile_y1
    266        2E57   7D 7D 7C 7D          FCB $7d,$7d,$7c,$7d,$7b,$7b,$7a,$7b,$7a,$79,$79,$79,$78,$77,$77,$77,$76,$76,$75,$75,$74,$74,$73,$73,$72,$72,$71,$71,$70,$71,$6f,$6f,$6e,$6f,$6d,$6d,$6d,$6d,$6c,$6b
               2E5B   7B 7B 7A 7B
               2E5F   7A 79 79 79
               2E63   78 77 77 77
               2E67   76 76 75 75
               2E6B   74 74 73 73
               2E6F   72 72 71 71
               2E73   70 71 6F 6F
               2E77   6E 6F 6D 6D
               2E7B   6D 6D 6C 6B
    267        2E7F   6B 6B 6A 69          FCB $6b,$6b,$6a,$69,$69,$69,$68,$68,$67,$67,$66,$66,$65,$65,$64,$64,$63,$63,$62,$63,$61,$61,$60,$61,$5f,$5f,$5f,$5f,$5e,$5d,$5d,$5d,$5c,$5b,$5b,$5b,$5a,$5a,$59,$59
               2E83   69 69 68 68
               2E87   67 67 66 66
               2E8B   65 65 64 64
               2E8F   63 63 62 63
               2E93   61 61 60 61
               2E97   5F 5F 5F 5F
               2E9B   5E 5D 5D 5D
               2E9F   5C 5B 5B 5B
               2EA3   5A 5A 59 59
    268        2EA7   58 58 57 57          FCB $58,$58,$57,$57,$56,$56,$55,$55,$54,$55,$53,$53,$52,$53,$52,$51,$51,$51,$50,$4f,$76,$76,$75,$75,$74,$73,$73,$73,$71,$71,$70,$70,$6f,$6f,$6e,$6d,$6d,$6d,$6c,$6b
               2EAB   56 56 55 55
               2EAF   54 55 53 53
               2EB3   52 53 52 51
               2EB7   51 51 50 4F
               2EBB   76 76 75 75
               2EBF   74 73 73 73
               2EC3   71 71 70 70
               2EC7   6F 6F 6E 6D
               2ECB   6D 6D 6C 6B
    269        2ECF   6A 6A 69 69          FCB $6a,$6a,$69,$69,$68,$67,$67,$67,$66,$66,$65,$65,$63,$63,$62,$63,$61,$61,$60,$60,$5f,$5f,$5e,$5d,$5d,$5d,$5b,$5b,$5a,$5a,$59,$59,$58,$57,$57,$57,$56,$55,$54,$55
               2ED3   68 67 67 67
               2ED7   66 66 65 65
               2EDB   63 63 62 63
               2EDF   61 61 60 60
               2EE3   5F 5F 5E 5D
               2EE7   5D 5D 5B 5B
               2EEB   5A 5A 59 59
               2EEF   58 57 57 57
               2EF3   56 55 54 55
    270        2EF7   53 53 52 52          FCB $53,$53,$52,$52,$51,$51,$50,$4f,$4f,$4f,$4e,$4d,$4c,$4c,$4b,$4b,$4a,$4a,$49,$49,$48,$47,$47,$46,$45,$45,$44,$45,$43,$43,$42,$42,$41,$41,$40,$3f,$3f,$3f,$3d,$3d
               2EFB   51 51 50 4F
               2EFF   4F 4F 4E 4D
               2F03   4C 4C 4B 4B
               2F07   4A 4A 49 49
               2F0B   48 47 47 46
               2F0F   45 45 44 45
               2F13   43 43 42 42
               2F17   41 41 40 3F
               2F1B   3F 3F 3D 3D
    271        2F1F   70 71 6F 6F          FCB $70,$71,$6f,$6f,$6e,$6d,$6c,$6d,$6b,$6b,$6a,$69,$68,$69,$67,$67,$65,$65,$64,$65,$63,$63,$61,$61,$60,$5f,$5f,$5f,$5d,$5d,$5c,$5b,$5a,$5b,$59,$59,$58,$57,$56,$57
               2F23   6E 6D 6C 6D
               2F27   6B 6B 6A 69
               2F2B   68 69 67 67
               2F2F   65 65 64 65
               2F33   63 63 61 61
               2F37   60 5F 5F 5F
               2F3B   5D 5D 5C 5B
               2F3F   5A 5B 59 59
               2F43   58 57 56 57
    272        2F47   55 55 54 53          FCB $55,$55,$54,$53,$52,$53,$51,$51,$4f,$4f,$4e,$4e,$4d,$4d,$4b,$4b,$4a,$49,$48,$49,$47,$47,$46,$45,$44,$45,$43,$43,$42,$41,$40,$41,$3f,$3f,$3d,$3d,$3c,$3d,$3b,$3b
               2F4B   52 53 51 51
               2F4F   4F 4F 4E 4E
               2F53   4D 4D 4B 4B
               2F57   4A 49 48 49
               2F5B   47 47 46 45
               2F5F   44 45 43 43
               2F63   42 41 40 41
               2F67   3F 3F 3D 3D
               2F6B   3C 3D 3B 3B
    273        2F6F   39 39 38 37          FCB $39,$39,$38,$37,$37,$37,$35,$35,$34,$33,$32,$33,$31,$31,$30,$2f,$2e,$2f,$2d,$2d,$70,$71,$6f,$6f,$6e,$6d,$6c,$6d,$6b,$6b,$6a,$69,$68,$69,$67,$67,$65,$65,$64,$65
               2F73   37 37 35 35
               2F77   34 33 32 33
               2F7B   31 31 30 2F
               2F7F   2E 2F 2D 2D
               2F83   70 71 6F 6F
               2F87   6E 6D 6C 6D
               2F8B   6B 6B 6A 69
               2F8F   68 69 67 67
               2F93   65 65 64 65
    274        2F97   63 63 61 61          FCB $63,$63,$61,$61,$60,$5f,$5f,$5f,$5d,$5d,$5c,$5b,$5a,$5b,$59,$59,$58,$57,$56,$57,$55,$55,$54,$53,$52,$53,$51,$51,$4f,$4f,$4e,$4e,$4d,$4d,$4b,$4b,$4a,$49,$48,$49
               2F9B   60 5F 5F 5F
               2F9F   5D 5D 5C 5B
               2FA3   5A 5B 59 59
               2FA7   58 57 56 57
               2FAB   55 55 54 53
               2FAF   52 53 51 51
               2FB3   4F 4F 4E 4E
               2FB7   4D 4D 4B 4B
               2FBB   4A 49 48 49
    275        2FBF   47 47 46 45          FCB $47,$47,$46,$45,$44,$45,$43,$43,$42,$41,$40,$41,$3f,$3f,$3d,$3d,$3c,$3d,$3b,$3b,$39,$39,$38,$37,$37,$37,$35,$35,$34,$33,$32,$33,$31,$31,$30,$2f,$2e,$2f,$2d,$2d
               2FC3   44 45 43 43
               2FC7   42 41 40 41
               2FCB   3F 3F 3D 3D
               2FCF   3C 3D 3B 3B
               2FD3   39 39 38 37
               2FD7   37 37 35 35
               2FDB   34 33 32 33
               2FDF   31 31 30 2F
               2FE3   2E 2F 2D 2D
    276        2FE7   77 77 76 76          FCB $77,$77,$76,$76,$74,$75,$73,$73,$72,$72,$71,$71,$70,$70,$6f,$6f,$6e,$6e,$6c,$6d,$6b,$6b,$6a,$6b,$69,$69,$68,$68,$67,$67,$65,$65,$64,$65,$63,$63,$62,$62,$61,$61
               2FEB   74 75 73 73
               2FEF   72 72 71 71
               2FF3   70 70 6F 6F
               2FF7   6E 6E 6C 6D
               2FFB   6B 6B 6A 6B
               2FFF   69 69 68 68
               3003   67 67 65 65
               3007   64 65 63 63
               300B   62 62 61 61
    277        300F   60 5F 5F 5F          FCB $60,$5f,$5f,$5f,$5d,$5e,$5c,$5d,$5b,$5b,$5a,$5a,$59,$59,$58,$58,$56,$57,$55,$55,$54,$55,$53,$53,$52,$52,$51,$51,$4f,$4f,$4e,$4f,$4d,$4d,$4c,$4d,$4b,$4b,$4a,$4a
               3013   5D 5E 5C 5D
               3017   5B 5B 5A 5A
               301B   59 59 58 58
               301F   56 57 55 55
               3023   54 55 53 53
               3027   52 52 51 51
               302B   4F 4F 4E 4F
               302F   4D 4D 4C 4D
               3033   4B 4B 4A 4A
    278        3037   49 49 47 47          FCB $49,$49,$47,$47,$46,$47,$45,$45,$44,$44,$43,$43,$42,$42,$40,$41,$3f,$3f,$3e,$3e,$7f,$7f,$7e,$7f,$7d,$7d,$7c,$7d,$7c,$7b,$7b,$7b,$7a,$79,$79,$79,$78,$78,$77,$77
               303B   46 47 45 45
               303F   44 44 43 43
               3043   42 42 40 41
               3047   3F 3F 3E 3E
               304B   7F 7F 7E 7F
               304F   7D 7D 7C 7D
               3053   7C 7B 7B 7B
               3057   7A 79 79 79
               305B   78 78 77 77
    279        305F   76 76 75 75          FCB $76,$76,$75,$75,$74,$74,$73,$73,$72,$73,$71,$71,$70,$71,$6f,$6f,$6f,$6f,$6e,$6d,$6d,$6d,$6c,$6b,$6b,$6b,$6a,$6a,$69,$69,$68,$68,$67,$67,$66,$66,$65,$65,$64,$65
               3063   74 74 73 73
               3067   72 73 71 71
               306B   70 71 6F 6F
               306F   6F 6F 6E 6D
               3073   6D 6D 6C 6B
               3077   6B 6B 6A 6A
               307B   69 69 68 68
               307F   67 67 66 66
               3083   65 65 64 65
    280        3087   63 63 62 63          FCB $63,$63,$62,$63,$61,$61,$61,$61,$60,$5f,$5f,$5f,$5e,$5d,$5d,$5d,$5c,$5c,$5b,$5b,$5a,$5a,$59,$59,$58,$58,$57,$57,$56,$57,$55,$55,$54,$55,$54,$53,$53,$53,$52,$51
               308B   61 61 61 61
               308F   60 5F 5F 5F
               3093   5E 5D 5D 5D
               3097   5C 5C 5B 5B
               309B   5A 5A 59 59
               309F   58 58 57 57
               30A3   56 57 55 55
               30A7   54 55 54 53
               30AB   53 53 52 51
    281        30AF   85 85 84 84          FCB $85,$85,$84,$84,$83,$83,$83,$83,$82,$82,$82,$81,$81,$81,$80,$80,$80,$7f,$7f,$7f,$7e,$7e,$7e,$7d,$7d,$7d,$7d,$7c,$7c,$7b,$7b,$7b,$7b,$7b,$7a,$79,$79,$79,$79,$79
               30B3   83 83 83 83
               30B7   82 82 82 81
               30BB   81 81 80 80
               30BF   80 7F 7F 7F
               30C3   7E 7E 7E 7D
               30C7   7D 7D 7D 7C
               30CB   7C 7B 7B 7B
               30CF   7B 7B 7A 79
               30D3   79 79 79 79
    282        30D7   78 77 77 77          FCB $78,$77,$77,$77,$77,$77,$76,$75,$76,$75,$75,$75,$74,$73,$74,$73,$73,$73,$72,$72,$72,$71,$71,$71,$71,$71,$70,$6f,$6f,$6f,$6f,$6f,$6e,$6d,$6d,$6d,$6d,$6d,$6c,$6b
               30DB   77 77 76 75
               30DF   76 75 75 75
               30E3   74 73 74 73
               30E7   73 73 72 72
               30EB   72 71 71 71
               30EF   71 71 70 6F
               30F3   6F 6F 6F 6F
               30F7   6E 6D 6D 6D
               30FB   6D 6D 6C 6B
    283        30FF   6C 6B 6B 6B          FCB $6c,$6b,$6b,$6b,$6a,$69,$6a,$69,$69,$69,$68,$68,$68,$67,$67,$67,$66,$66,$66,$65,$92,$91,$92,$91,$92,$91,$92,$91,$91,$91,$91,$91,$91,$91,$91,$91,$91,$91,$91,$91
               3103   6A 69 6A 69
               3107   69 69 68 68
               310B   68 67 67 67
               310F   66 66 66 65
               3113   92 91 92 91
               3117   92 91 92 91
               311B   91 91 91 91
               311F   91 91 91 91
               3123   91 91 91 91
    284        3127   91 91 91 91          FCB $91,$91,$91,$91,$91,$91,$91,$91,$91,$91,$91,$91,$91,$91,$91,$91,$91,$91,$91,$91,$91,$91,$91,$91,$91,$91,$91,$91,$91,$91,$91,$91,$91,$91,$91,$91,$91,$91,$91,$91
               312B   91 91 91 91
               312F   91 91 91 91
               3133   91 91 91 91
               3137   91 91 91 91
               313B   91 91 91 91
               313F   91 91 91 91
               3143   91 91 91 91
               3147   91 91 91 91
               314B   91 91 91 91
    285        314F   91 91 91 91          FCB $91,$91,$91,$91,$91,$91,$91,$91,$91,$90,$91,$91,$91,$91,$91,$90,$91,$90,$91,$91,$91,$90,$91,$90,$91,$91,$90,$90,$90,$90,$90,$90,$90,$90,$90,$90,$90,$90,$90,$90
               3153   91 91 91 91
               3157   91 90 91 91
               315B   91 91 91 90
               315F   91 90 91 91
               3163   91 90 91 90
               3167   91 91 90 90
               316B   90 90 90 90
               316F   90 90 90 90
               3173   90 90 90 90
    286        3177   97 97 97 97          FCB $97,$97,$97,$97,$98,$98,$98,$98,$98,$98,$98,$99,$99,$99,$99,$99,$99,$99,$9a,$99,$9a,$9a,$9a,$9a,$9a,$9b,$9b,$9b,$9b,$9b,$9b,$9b,$9c,$9b,$9c,$9c,$9c,$9c,$9c,$9c
               317B   98 98 98 98
               317F   98 98 98 99
               3183   99 99 99 99
               3187   99 99 9A 99
               318B   9A 9A 9A 9A
               318F   9A 9B 9B 9B
               3193   9B 9B 9B 9B
               3197   9C 9B 9C 9C
               319B   9C 9C 9C 9C
    287        319F   9D 9D 9D 9D          FCB $9d,$9d,$9d,$9d,$9d,$9d,$9d,$9d,$9e,$9e,$9e,$9e,$9e,$9e,$9f,$9f,$9f,$9f,$9f,$9f,$9f,$9f,$a0,$a0,$a0,$a0,$a0,$a0,$a0,$a1,$a1,$a1,$a1,$a1,$a1,$a1,$a2,$a1,$a2,$a2
               31A3   9D 9D 9D 9D
               31A7   9E 9E 9E 9E
               31AB   9E 9E 9F 9F
               31AF   9F 9F 9F 9F
               31B3   9F 9F A0 A0
               31B7   A0 A0 A0 A0
               31BB   A0 A1 A1 A1
               31BF   A1 A1 A1 A1
               31C3   A2 A1 A2 A2
    288        31C7   A2 A2 A2 A3          FCB $a2,$a2,$a2,$a3,$a3,$a3,$a3,$a3,$a3,$a3,$a4,$a3,$a4,$a4,$a4,$a4,$a4,$a4,$a5,$a5,$a0,$a1,$a1,$a1,$a1,$a1,$a2,$a2,$a3,$a3,$a3,$a3,$a4,$a3,$a4,$a4,$a5,$a5,$a5,$a5
               31CB   A3 A3 A3 A3
               31CF   A3 A3 A4 A3
               31D3   A4 A4 A4 A4
               31D7   A4 A4 A5 A5
               31DB   A0 A1 A1 A1
               31DF   A1 A1 A2 A2
               31E3   A3 A3 A3 A3
               31E7   A4 A3 A4 A4
               31EB   A5 A5 A5 A5
    289        31EF   A6 A5 A6 A6          FCB $a6,$a5,$a6,$a6,$a7,$a7,$a7,$a7,$a8,$a7,$a8,$a8,$a9,$a9,$a9,$a9,$aa,$a9,$aa,$aa,$ab,$ab,$ab,$ab,$ac,$ab,$ac,$ad,$ad,$ad,$ad,$ad,$ae,$ad,$ae,$af,$af,$af,$af,$af
               31F3   A7 A7 A7 A7
               31F7   A8 A7 A8 A8
               31FB   A9 A9 A9 A9
               31FF   AA A9 AA AA
               3203   AB AB AB AB
               3207   AC AB AC AD
               320B   AD AD AD AD
               320F   AE AD AE AF
               3213   AF AF AF AF
    290        3217   B0 AF B0 B1          FCB $b0,$af,$b0,$b1,$b1,$b1,$b1,$b1,$b2,$b2,$b2,$b3,$b3,$b3,$b3,$b3,$b4,$b4,$b4,$b5,$b5,$b5,$b5,$b5,$b6,$b6,$b6,$b7,$b7,$b7,$b7,$b7,$b8,$b8,$b8,$b9,$b9,$b9,$b9,$b9
               321B   B1 B1 B1 B1
               321F   B2 B2 B2 B3
               3223   B3 B3 B3 B3
               3227   B4 B4 B4 B5
               322B   B5 B5 B5 B5
               322F   B6 B6 B6 B7
               3233   B7 B7 B7 B7
               3237   B8 B8 B8 B9
               323B   B9 B9 B9 B9
    291        323F   A8 A8 A9 A9          FCB $a8,$a8,$a9,$a9,$a9,$a9,$aa,$aa,$ab,$ab,$ac,$ac,$ac,$ac,$ad,$ad,$ae,$ae,$af,$af,$af,$af,$b0,$b0,$b1,$b1,$b2,$b2,$b2,$b2,$b3,$b3,$b4,$b4,$b5,$b5,$b5,$b5,$b6,$b6
               3243   A9 A9 AA AA
               3247   AB AB AC AC
               324B   AC AC AD AD
               324F   AE AE AF AF
               3253   AF AF B0 B0
               3257   B1 B1 B2 B2
               325B   B2 B2 B3 B3
               325F   B4 B4 B5 B5
               3263   B5 B5 B6 B6
    292        3267   B7 B7 B8 B8          FCB $b7,$b7,$b8,$b8,$b8,$b8,$b9,$b9,$ba,$ba,$bb,$bb,$bb,$bb,$bc,$bc,$bd,$bd,$bd,$bd,$be,$be,$bf,$bf,$c0,$c0,$c0,$c0,$c1,$c1,$c2,$c2,$c3,$c3,$c3,$c3,$c4,$c4,$c5,$c5
               326B   B8 B8 B9 B9
               326F   BA BA BB BB
               3273   BB BB BC BC
               3277   BD BD BD BD
               327B   BE BE BF BF
               327F   C0 C0 C0 C0
               3283   C1 C1 C2 C2
               3287   C3 C3 C3 C3
               328B   C4 C4 C5 C5
    293        328F   C6 C6 C6 C6          FCB $c6,$c6,$c6,$c6,$c7,$c7,$c8,$c8,$c9,$c9,$c9,$c9,$ca,$ca,$cb,$cb,$cc,$cc,$cc,$cc,$a8,$a8,$a9,$a9,$a9,$a9,$aa,$aa,$ab,$ab,$ac,$ac,$ac,$ac,$ad,$ad,$ae,$ae,$af,$af
               3293   C7 C7 C8 C8
               3297   C9 C9 C9 C9
               329B   CA CA CB CB
               329F   CC CC CC CC
               32A3   A8 A8 A9 A9
               32A7   A9 A9 AA AA
               32AB   AB AB AC AC
               32AF   AC AC AD AD
               32B3   AE AE AF AF
    294        32B7   AF AF B0 B0          FCB $af,$af,$b0,$b0,$b1,$b1,$b2,$b2,$b2,$b2,$b3,$b3,$b4,$b4,$b5,$b5,$b5,$b5,$b6,$b6,$b7,$b7,$b8,$b8,$b8,$b8,$b9,$b9,$ba,$ba,$bb,$bb,$bb,$bb,$bc,$bc,$bd,$bd,$bd,$bd
               32BB   B1 B1 B2 B2
               32BF   B2 B2 B3 B3
               32C3   B4 B4 B5 B5
               32C7   B5 B5 B6 B6
               32CB   B7 B7 B8 B8
               32CF   B8 B8 B9 B9
               32D3   BA BA BB BB
               32D7   BB BB BC BC
               32DB   BD BD BD BD
    295        32DF   BE BE BF BF          FCB $be,$be,$bf,$bf,$c0,$c0,$c0,$c0,$c1,$c1,$c2,$c2,$c3,$c3,$c3,$c3,$c4,$c4,$c5,$c5,$c6,$c6,$c6,$c6,$c7,$c7,$c8,$c8,$c9,$c9,$c9,$c9,$ca,$ca,$cb,$cb,$cc,$cc,$cc,$cc
               32E3   C0 C0 C0 C0
               32E7   C1 C1 C2 C2
               32EB   C3 C3 C3 C3
               32EF   C4 C4 C5 C5
               32F3   C6 C6 C6 C6
               32F7   C7 C7 C8 C8
               32FB   C9 C9 C9 C9
               32FF   CA CA CB CB
               3303   CC CC CC CC
    296        3307   A0 A0 A1 A1          FCB $a0,$a0,$a1,$a1,$a1,$a1,$a2,$a1,$a2,$a2,$a3,$a3,$a3,$a3,$a4,$a3,$a4,$a4,$a5,$a5,$a5,$a5,$a6,$a5,$a6,$a7,$a7,$a7,$a7,$a7,$a8,$a7,$a8,$a9,$a9,$a9,$a9,$a9,$aa,$aa
               330B   A1 A1 A2 A1
               330F   A2 A2 A3 A3
               3313   A3 A3 A4 A3
               3317   A4 A4 A5 A5
               331B   A5 A5 A6 A5
               331F   A6 A7 A7 A7
               3323   A7 A7 A8 A7
               3327   A8 A9 A9 A9
               332B   A9 A9 AA AA
    297        332F   AB AB AB AB          FCB $ab,$ab,$ab,$ab,$ac,$ab,$ac,$ac,$ad,$ad,$ad,$ad,$ae,$ad,$ae,$ae,$af,$af,$af,$af,$b0,$af,$b0,$b0,$b1,$b1,$b1,$b1,$b2,$b1,$b2,$b2,$b3,$b3,$b3,$b3,$b4,$b3,$b4,$b4
               3333   AC AB AC AC
               3337   AD AD AD AD
               333B   AE AD AE AE
               333F   AF AF AF AF
               3343   B0 AF B0 B0
               3347   B1 B1 B1 B1
               334B   B2 B1 B2 B2
               334F   B3 B3 B3 B3
               3353   B4 B3 B4 B4
    298        3357   B5 B5 B5 B5          FCB $b5,$b5,$b5,$b5,$b6,$b5,$b6,$b7,$b7,$b7,$b7,$b7,$b8,$b7,$b8,$b9,$b9,$b9,$ba,$b9,$96,$96,$96,$97,$97,$97,$97,$97,$97,$97,$98,$97,$98,$98,$98,$98,$99,$99,$99,$99
               335B   B6 B5 B6 B7
               335F   B7 B7 B7 B7
               3363   B8 B7 B8 B9
               3367   B9 B9 BA B9
               336B   96 96 96 97
               336F   97 97 97 97
               3373   97 97 98 97
               3377   98 98 98 98
               337B   99 99 99 99
    299        337F   99 99 99 99          FCB $99,$99,$99,$99,$9a,$9a,$9a,$9a,$9a,$9a,$9b,$9b,$9b,$9b,$9b,$9b,$9b,$9b,$9c,$9c,$9c,$9c,$9c,$9c,$9d,$9d,$9d,$9d,$9d,$9d,$9d,$9d,$9e,$9e,$9e,$9e,$9e,$9f,$9f,$9f
               3383   9A 9A 9A 9A
               3387   9A 9A 9B 9B
               338B   9B 9B 9B 9B
               338F   9B 9B 9C 9C
               3393   9C 9C 9C 9C
               3397   9D 9D 9D 9D
               339B   9D 9D 9D 9D
               339F   9E 9E 9E 9E
               33A3   9E 9F 9F 9F
    300        33A7   9F 9F 9F 9F          FCB $9f,$9f,$9f,$9f,$a0,$9f,$a0,$a0,$a0,$a0,$a0,$a1,$a1,$a1,$a1,$a1,$a1,$a1,$a2,$a1,$a2,$a2,$a2,$a2,$a2,$a3,$a3,$a3,$a3,$a3,$a3,$a3,$a4,$a3,$a4,$a4,$a4,$a4,$a5,$a5
               33AB   A0 9F A0 A0
               33AF   A0 A0 A0 A1
               33B3   A1 A1 A1 A1
               33B7   A1 A1 A2 A1
               33BB   A2 A2 A2 A2
               33BF   A2 A3 A3 A3
               33C3   A3 A3 A3 A3
               33C7   A4 A3 A4 A4
               33CB   A4 A4 A5 A5
    301        33CF   91 91 91 91          FCB $91,$91,$91,$91,$91,$91,$91,$91,$91,$91,$91,$91,$91,$91,$91,$91,$91,$91,$91,$91,$92,$91,$92,$91,$92,$91,$92,$91,$92,$91,$92,$92,$92,$92,$92,$91,$92,$92,$92,$92
               33D3   91 91 91 91
               33D7   91 91 91 91
               33DB   91 91 91 91
               33DF   91 91 91 91
               33E3   92 91 92 91
               33E7   92 91 92 91
               33EB   92 91 92 92
               33EF   92 92 92 91
               33F3   92 92 92 92
    302        33F7   92 92 92 92          FCB $92,$92,$92,$92,$92,$93,$92,$92,$93,$92,$93,$93,$93,$93,$93,$93,$93,$93,$93,$93,$93,$93,$93,$93,$93,$93,$93,$93,$93,$93,$93,$93,$93,$93,$93,$93,$93,$93,$94,$93
               33FB   92 93 92 92
               33FF   93 92 93 93
               3403   93 93 93 93
               3407   93 93 93 93
               340B   93 93 93 93
               340F   93 93 93 93
               3413   93 93 93 93
               3417   93 93 93 93
               341B   93 93 94 93
    303        341F   94 93 94 93          FCB $94,$93,$94,$93,$94,$93,$94,$93,$94,$93,$94,$94,$94,$94,$94,$94,$94,$94,$94,$94,$83,$84,$82,$83,$82,$83,$81,$82,$81,$81,$80,$81,$80,$81,$7f,$80,$7e,$80,$7e,$7f
               3423   94 93 94 93
               3427   94 93 94 94
               342B   94 94 94 94
               342F   94 94 94 94
               3433   83 84 82 83
               3437   82 83 81 82
               343B   81 81 80 81
               343F   80 81 7F 80
               3443   7E 80 7E 7F
    304        3447   7D 7F 7D 7E          FCB $7d,$7f,$7d,$7e,$7c,$7d,$7c,$7d,$7b,$7d,$7b,$7b,$7a,$7b,$7a,$7b,$79,$7a,$78,$79,$78,$79,$77,$78,$77,$78,$76,$77,$76,$77,$75,$77,$75,$76,$74,$75,$74,$75,$73,$74
               344B   7C 7D 7C 7D
               344F   7B 7D 7B 7B
               3453   7A 7B 7A 7B
               3457   79 7A 78 79
               345B   78 79 77 78
               345F   77 78 76 77
               3463   76 77 75 77
               3467   75 76 74 75
               346B   74 75 73 74
    305        346F   72 73 72 73          FCB $72,$73,$72,$73,$71,$73,$71,$72,$70,$71,$70,$71,$6f,$70,$6f,$70,$6e,$6f,$6e,$6f,$6d,$6f,$6d,$6d,$6c,$6d,$6b,$6d,$6b,$6c,$6a,$6b,$6a,$6b,$69,$6a,$69,$69,$68,$69
               3473   71 73 71 72
               3477   70 71 70 71
               347B   6F 70 6F 70
               347F   6E 6F 6E 6F
               3483   6D 6F 6D 6D
               3487   6C 6D 6B 6D
               348B   6B 6C 6A 6B
               348F   6A 6B 69 6A
               3493   69 69 68 69
    306        3497                    line_missile_dx
    307        3497   03 09 04 0A          FCB $3,$9,$4,$a,$4,$a,$4,$a,$5,$a,$5,$b,$6,$b,$6,$c,$6,$b,$7,$c,$7,$c,$7,$d,$7,$d,$7,$d,$7,$e,$7,$d,$8,$e,$8,$d,$8,$f,$9,$e
               349B   04 0A 04 0A
               349F   05 0A 05 0B
               34A3   06 0B 06 0C
               34A7   06 0B 07 0C
               34AB   07 0C 07 0D
               34AF   07 0D 07 0D
               34B3   07 0E 07 0D
               34B7   08 0E 08 0D
               34BB   08 0F 09 0E
    308        34BF   09 10 0A 0F          FCB $9,$10,$a,$f,$a,$11,$a,$10,$b,$11,$b,$11,$b,$12,$c,$12,$b,$12,$c,$13,$c,$12,$c,$13,$c,$12,$d,$14,$e,$13,$e,$15,$e,$13,$f,$16,$f,$15,$10,$16
               34C3   0A 11 0A 10
               34C7   0B 11 0B 11
               34CB   0B 12 0C 12
               34CF   0B 12 0C 13
               34D3   0C 12 0C 13
               34D7   0C 12 0D 14
               34DB   0E 13 0E 15
               34DF   0E 13 0F 16
               34E3   0F 15 10 16
    309        34E7   10 16 10 17          FCB $10,$16,$10,$17,$11,$17,$f,$16,$10,$17,$10,$17,$10,$18,$12,$17,$12,$19,$13,$18,$3,$2,$2,$2,$2,$3,$3,$2,$2,$2,$3,$3,$2,$2,$2,$2,$3,$3,$2,$3
               34EB   11 17 0F 16
               34EF   10 17 10 17
               34F3   10 18 12 17
               34F7   12 19 13 18
               34FB   03 02 02 02
               34FF   02 03 03 02
               3503   02 02 03 03
               3507   02 02 02 02
               350B   03 03 02 03
    310        350F   03 02 02 02          FCB $3,$2,$2,$2,$2,$3,$3,$2,$2,$2,$3,$3,$2,$2,$2,$2,$3,$3,$2,$3,$3,$2,$2,$2,$2,$3,$3,$2,$2,$2,$3,$3,$3,$2,$2,$2,$3,$3,$2,$3
               3513   02 03 03 02
               3517   02 02 03 03
               351B   02 02 02 02
               351F   03 03 02 03
               3523   03 02 02 02
               3527   02 03 03 02
               352B   02 02 03 03
               352F   03 02 02 02
               3533   03 03 02 03
    311        3537   02 02 03 03          FCB $2,$2,$3,$3,$2,$3,$3,$2,$2,$2,$2,$3,$3,$2,$2,$2,$3,$3,$2,$2,$2,$2,$3,$3,$2,$3,$3,$2,$2,$2,$2,$3,$3,$2,$2,$2,$3,$3,$2,$2
               353B   02 03 03 02
               353F   02 02 02 03
               3543   03 02 02 02
               3547   03 03 02 02
               354B   02 02 03 03
               354F   02 03 03 02
               3553   02 02 02 03
               3557   03 02 02 02
               355B   03 03 02 02
    312        355F   05 08 06 08          FCB $5,$8,$6,$8,$6,$8,$6,$9,$7,$9,$7,$9,$7,$a,$8,$a,$8,$a,$8,$a,$9,$a,$9,$a,$9,$a,$a,$b,$9,$b,$9,$c,$9,$c,$9,$c,$a,$c,$a,$c
               3563   06 08 06 09
               3567   07 09 07 09
               356B   07 0A 08 0A
               356F   08 0A 08 0A
               3573   09 0A 09 0A
               3577   09 0A 0A 0B
               357B   09 0B 09 0C
               357F   09 0C 09 0C
               3583   0A 0C 0A 0C
    313        3587   0B 0D 0B 0D          FCB $b,$d,$b,$d,$b,$d,$c,$d,$b,$d,$c,$e,$d,$f,$c,$f,$d,$f,$c,$f,$c,$f,$e,$10,$d,$10,$e,$11,$e,$11,$e,$11,$f,$11,$f,$11,$f,$12,$10,$12
               358B   0B 0D 0C 0D
               358F   0B 0D 0C 0E
               3593   0D 0F 0C 0F
               3597   0D 0F 0C 0F
               359B   0C 0F 0E 10
               359F   0D 10 0E 11
               35A3   0E 11 0E 11
               35A7   0F 11 0F 11
               35AB   0F 12 10 12
    314        35AF   10 12 10 12          FCB $10,$12,$10,$12,$11,$12,$10,$13,$11,$13,$10,$14,$11,$14,$12,$14,$11,$14,$13,$14,$7,$6,$8,$6,$8,$7,$8,$7,$9,$8,$8,$8,$8,$8,$9,$8,$9,$8,$9,$8
               35B3   11 12 10 13
               35B7   11 13 10 14
               35BB   11 14 12 14
               35BF   11 14 13 14
               35C3   07 06 08 06
               35C7   08 07 08 07
               35CB   09 08 08 08
               35CF   08 08 09 08
               35D3   09 08 09 08
    315        35D7   0A 08 09 09          FCB $a,$8,$9,$9,$a,$9,$b,$9,$a,$9,$b,$9,$b,$b,$a,$a,$b,$a,$b,$b,$c,$b,$c,$a,$c,$b,$c,$c,$c,$b,$d,$c,$d,$d,$d,$c,$e,$c,$d,$d
               35DB   0A 09 0B 09
               35DF   0A 09 0B 09
               35E3   0B 0B 0A 0A
               35E7   0B 0A 0B 0B
               35EB   0C 0B 0C 0A
               35EF   0C 0B 0C 0C
               35F3   0C 0B 0D 0C
               35F7   0D 0D 0D 0C
               35FB   0E 0C 0D 0D
    316        35FF   0E 0D 0E 0D          FCB $e,$d,$e,$d,$f,$e,$f,$e,$e,$d,$f,$e,$f,$f,$10,$e,$10,$f,$10,$10,$10,$f,$10,$f,$11,$10,$11,$10,$12,$10,$12,$11,$11,$10,$12,$10,$12,$12,$13,$12
               3603   0F 0E 0F 0E
               3607   0E 0D 0F 0E
               360B   0F 0F 10 0E
               360F   10 0F 10 10
               3613   10 0F 10 0F
               3617   11 10 11 10
               361B   12 10 12 11
               361F   11 10 12 10
               3623   12 12 13 12
    317        3627   01 02 02 02          FCB $1,$2,$2,$2,$2,$1,$2,$2,$2,$2,$1,$2,$2,$2,$1,$1,$2,$2,$2,$2,$1,$2,$2,$1,$1,$1,$2,$2,$2,$2,$2,$2,$2,$1,$1,$1,$2,$2,$1,$2
               362B   02 01 02 02
               362F   02 02 01 02
               3633   02 02 01 01
               3637   02 02 02 02
               363B   01 02 02 01
               363F   01 01 02 02
               3643   02 02 02 02
               3647   02 01 01 01
               364B   02 02 01 02
    318        364F   02 02 02 01          FCB $2,$2,$2,$1,$1,$1,$2,$2,$1,$2,$2,$2,$2,$1,$1,$1,$2,$2,$1,$2,$2,$2,$2,$1,$2,$2,$2,$2,$1,$2,$2,$2,$1,$1,$2,$2,$2,$2,$1,$2
               3653   01 01 02 02
               3657   01 02 02 02
               365B   02 01 01 01
               365F   02 02 01 02
               3663   02 02 02 01
               3667   02 02 02 02
               366B   01 02 02 02
               366F   01 01 02 02
               3673   02 02 01 02
    319        3677   02 01 01 01          FCB $2,$1,$1,$1,$2,$2,$2,$2,$2,$2,$2,$1,$1,$1,$2,$2,$1,$2,$2,$2,$8,$4,$8,$5,$9,$5,$9,$5,$a,$5,$a,$6,$b,$5,$b,$7,$b,$6,$b,$7
               367B   02 02 02 02
               367F   02 02 02 01
               3683   01 01 02 02
               3687   01 02 02 02
               368B   08 04 08 05
               368F   09 05 09 05
               3693   0A 05 0A 06
               3697   0B 05 0B 07
               369B   0B 06 0B 07
    320        369F   0B 07 0C 07          FCB $b,$7,$c,$7,$c,$7,$c,$7,$c,$7,$c,$8,$c,$8,$d,$8,$d,$9,$d,$9,$e,$9,$e,$a,$f,$a,$f,$a,$10,$b,$10,$a,$10,$b,$11,$c,$11,$b,$10,$c
               36A3   0C 07 0C 07
               36A7   0C 07 0C 08
               36AB   0C 08 0D 08
               36AF   0D 09 0D 09
               36B3   0E 09 0E 0A
               36B7   0F 0A 0F 0A
               36BB   10 0B 10 0A
               36BF   10 0B 11 0C
               36C3   11 0B 10 0C
    321        36C7   10 0C 11 0D          FCB $10,$c,$11,$d,$11,$c,$12,$d,$13,$d,$13,$e,$13,$d,$13,$f,$14,$f,$14,$f,$14,$10,$15,$10,$15,$10,$15,$10,$15,$10,$16,$10,$16,$12,$16,$10,$17,$12,$17,$11
               36CB   11 0C 12 0D
               36CF   13 0D 13 0E
               36D3   13 0D 13 0F
               36D7   14 0F 14 0F
               36DB   14 10 15 10
               36DF   15 10 15 10
               36E3   15 10 16 10
               36E7   16 12 16 10
               36EB   17 12 17 11
    322        36EF   04 04 04 04          FCB $4,$4,$4,$4,$4,$4,$4,$4,$4,$4,$4,$4,$4,$4,$4,$4,$4,$4,$4,$4,$4,$4,$4,$4,$4,$4,$4,$4,$4,$4,$4,$4,$4,$4,$4,$4,$4,$4,$4,$4
               36F3   04 04 04 04
               36F7   04 04 04 04
               36FB   04 04 04 04
               36FF   04 04 04 04
               3703   04 04 04 04
               3707   04 04 04 04
               370B   04 04 04 04
               370F   04 04 04 04
               3713   04 04 04 04
    323        3717   04 04 04 04          FCB $4,$4,$4,$4,$5,$4,$5,$5,$5,$4,$5,$5,$4,$4,$4,$5,$4,$4,$4,$5,$4,$4,$4,$4,$4,$4,$4,$4,$4,$4,$4,$4,$4,$4,$4,$4,$4,$4,$4,$4
               371B   05 04 05 05
               371F   05 04 05 05
               3723   04 04 04 05
               3727   04 04 04 05
               372B   04 04 04 04
               372F   04 04 04 04
               3733   04 04 04 04
               3737   04 04 04 04
               373B   04 04 04 04
    324        373F   04 04 04 04          FCB $4,$4,$4,$4,$4,$4,$4,$4,$4,$4,$4,$4,$4,$4,$4,$4,$4,$4,$4,$4,$4,$4,$4,$4,$4,$4,$4,$4,$4,$4,$4,$4,$4,$4,$4,$4,$4,$4,$4,$4
               3743   04 04 04 04
               3747   04 04 04 04
               374B   04 04 04 04
               374F   04 04 04 04
               3753   04 04 04 04
               3757   04 04 04 04
               375B   04 04 04 04
               375F   04 04 04 04
               3763   04 04 04 04
    325        3767   04 04 04 04          FCB $4,$4,$4,$4,$4,$4,$4,$4,$4,$4,$4,$4,$4,$4,$4,$4,$4,$4,$4,$4,$4,$4,$4,$4,$5,$4,$5,$5,$5,$4,$5,$5,$4,$4,$4,$5,$4,$4,$4,$5
               376B   04 04 04 04
               376F   04 04 04 04
               3773   04 04 04 04
               3777   04 04 04 04
               377B   04 04 04 04
               377F   05 04 05 05
               3783   05 04 05 05
               3787   04 04 04 05
               378B   04 04 04 05
    326        378F   04 04 04 04          FCB $4,$4,$4,$4,$4,$4,$4,$4,$4,$4,$4,$4,$4,$4,$4,$4,$4,$4,$4,$4,$4,$4,$4,$4,$4,$4,$4,$4,$4,$4,$4,$4,$4,$4,$4,$4,$4,$4,$4,$4
               3793   04 04 04 04
               3797   04 04 04 04
               379B   04 04 04 04
               379F   04 04 04 04
               37A3   04 04 04 04
               37A7   04 04 04 04
               37AB   04 04 04 04
               37AF   04 04 04 04
               37B3   04 04 04 04
    327        37B7   03 05 03 06          FCB $3,$5,$3,$6,$3,$6,$3,$6,$4,$6,$5,$7,$4,$7,$4,$7,$4,$8,$4,$9,$5,$8,$5,$8,$6,$8,$5,$8,$6,$9,$5,$9,$6,$c,$6,$9,$6,$9,$7,$a
               37BB   03 06 03 06
               37BF   04 06 05 07
               37C3   04 07 04 07
               37C7   04 08 04 09
               37CB   05 08 05 08
               37CF   06 08 05 08
               37D3   06 09 05 09
               37D7   06 0C 06 09
               37DB   06 09 07 0A
    328        37DF   07 0A 07 0A          FCB $7,$a,$7,$a,$7,$b,$9,$d,$8,$c,$8,$c,$8,$c,$9,$d,$9,$c,$9,$d,$9,$e,$a,$d,$a,$e,$a,$e,$c,$e,$b,$f,$b,$f,$b,$f,$c,$12,$d,$10
               37E3   07 0B 09 0D
               37E7   08 0C 08 0C
               37EB   08 0C 09 0D
               37EF   09 0C 09 0D
               37F3   09 0E 0A 0D
               37F7   0A 0E 0A 0E
               37FB   0C 0E 0B 0F
               37FF   0B 0F 0B 0F
               3803   0C 12 0D 10
    329        3807   0C 10 0E 11          FCB $c,$10,$e,$11,$d,$11,$d,$11,$d,$12,$e,$14,$f,$12,$e,$13,$f,$13,$f,$13,$1,$2,$2,$2,$2,$1,$2,$2,$2,$2,$1,$2,$2,$2,$1,$1,$2,$2,$2,$2
               380B   0D 11 0D 11
               380F   0D 12 0E 14
               3813   0F 12 0E 13
               3817   0F 13 0F 13
               381B   01 02 02 02
               381F   02 01 02 02
               3823   02 02 01 02
               3827   02 02 01 01
               382B   02 02 02 02
    330        382F   01 02 02 01          FCB $1,$2,$2,$1,$1,$1,$2,$2,$2,$2,$2,$2,$2,$1,$1,$1,$2,$2,$1,$2,$2,$2,$2,$1,$1,$1,$2,$2,$1,$2,$2,$2,$2,$1,$1,$1,$2,$2,$1,$2
               3833   01 01 02 02
               3837   02 02 02 02
               383B   02 01 01 01
               383F   02 02 01 02
               3843   02 02 02 01
               3847   01 01 02 02
               384B   01 02 02 02
               384F   02 01 01 01
               3853   02 02 01 02
    331        3857   02 02 02 01          FCB $2,$2,$2,$1,$2,$2,$2,$2,$1,$2,$2,$2,$1,$1,$2,$2,$2,$2,$1,$2,$2,$1,$1,$1,$2,$2,$2,$2,$2,$2,$2,$1,$1,$1,$2,$2,$1,$2,$2,$2
               385B   02 02 02 02
               385F   01 02 02 02
               3863   01 01 02 02
               3867   02 02 01 02
               386B   02 01 01 01
               386F   02 02 02 02
               3873   02 02 02 01
               3877   01 01 02 02
               387B   01 02 02 02
    332        387F   05 07 05 08          FCB $5,$7,$5,$8,$7,$8,$7,$8,$7,$8,$7,$8,$7,$8,$8,$8,$8,$8,$8,$8,$8,$9,$8,$9,$8,$9,$9,$a,$9,$a,$9,$a,$9,$a,$9,$a,$a,$a,$a,$a
               3883   07 08 07 08
               3887   07 08 07 08
               388B   07 08 08 08
               388F   08 08 08 08
               3893   08 09 08 09
               3897   08 09 09 0A
               389B   09 0A 09 0A
               389F   09 0A 09 0A
               38A3   0A 0A 0A 0A
    333        38A7   0A 0B 0A 0B          FCB $a,$b,$a,$b,$a,$b,$a,$c,$b,$c,$a,$b,$b,$c,$b,$c,$b,$c,$c,$d,$c,$d,$c,$d,$c,$e,$c,$e,$d,$e,$d,$f,$d,$f,$d,$f,$e,$f,$e,$f
               38AB   0A 0B 0A 0C
               38AF   0B 0C 0A 0B
               38B3   0B 0C 0B 0C
               38B7   0B 0C 0C 0D
               38BB   0C 0D 0C 0D
               38BF   0C 0E 0C 0E
               38C3   0D 0E 0D 0F
               38C7   0D 0F 0D 0F
               38CB   0E 0F 0E 0F
    334        38CF   0E 0F 0F 0F          FCB $e,$f,$f,$f,$f,$10,$f,$10,$f,$11,$10,$11,$10,$11,$10,$11,$11,$11,$11,$12,$8,$5,$7,$5,$8,$5,$8,$6,$8,$6,$8,$6,$8,$6,$8,$6,$9,$7,$9,$7
               38D3   0F 10 0F 10
               38D7   0F 11 10 11
               38DB   10 11 10 11
               38DF   11 11 11 12
               38E3   08 05 07 05
               38E7   08 05 08 06
               38EB   08 06 08 06
               38EF   08 06 08 06
               38F3   09 07 09 07
    335        38F7   09 08 09 08          FCB $9,$8,$9,$8,$a,$8,$a,$8,$a,$8,$b,$9,$a,$9,$b,$a,$c,$a,$b,$a,$c,$a,$d,$a,$c,$a,$d,$a,$d,$b,$c,$a,$e,$b,$e,$b,$e,$c,$e,$c
               38FB   0A 08 0A 08
               38FF   0A 08 0B 09
               3903   0A 09 0B 0A
               3907   0C 0A 0B 0A
               390B   0C 0A 0D 0A
               390F   0C 0A 0D 0A
               3913   0D 0B 0C 0A
               3917   0E 0B 0E 0B
               391B   0E 0C 0E 0C
    336        391F   0F 0C 0F 0C          FCB $f,$c,$f,$c,$f,$c,$10,$d,$f,$e,$10,$e,$11,$e,$10,$e,$11,$e,$11,$f,$11,$f,$12,$f,$12,$f,$13,$f,$12,$10,$13,$10,$14,$11,$13,$11,$14,$11,$14,$11
               3923   0F 0C 10 0D
               3927   0F 0E 10 0E
               392B   11 0E 10 0E
               392F   11 0E 11 0F
               3933   11 0F 12 0F
               3937   12 0F 13 0F
               393B   12 10 13 10
               393F   14 11 13 11
               3943   14 11 14 11
    337        3947   03 03 02 02          FCB $3,$3,$2,$2,$2,$2,$3,$3,$2,$3,$3,$2,$2,$2,$2,$3,$3,$2,$2,$2,$3,$3,$2,$2,$2,$2,$3,$3,$2,$3,$3,$2,$2,$2,$2,$3,$3,$2,$2,$2
               394B   02 02 03 03
               394F   02 03 03 02
               3953   02 02 02 03
               3957   03 02 02 02
               395B   03 03 02 02
               395F   02 02 03 03
               3963   02 03 03 02
               3967   02 02 02 03
               396B   03 02 02 02
    338        396F   03 03 03 02          FCB $3,$3,$3,$2,$2,$2,$3,$3,$2,$3,$2,$2,$3,$3,$2,$3,$3,$2,$2,$2,$2,$3,$3,$2,$2,$2,$3,$3,$2,$2,$2,$2,$3,$3,$2,$3,$3,$2,$2,$2
               3973   02 02 03 03
               3977   02 03 02 02
               397B   03 03 02 03
               397F   03 02 02 02
               3983   02 03 03 02
               3987   02 02 03 03
               398B   02 02 02 02
               398F   03 03 02 03
               3993   03 02 02 02
    339        3997   02 03 03 02          FCB $2,$3,$3,$2,$2,$2,$3,$3,$2,$2,$2,$2,$3,$3,$2,$3,$3,$2,$2,$2,$5,$2,$8,$2,$7,$3,$7,$3,$9,$4,$7,$3,$7,$4,$7,$3,$8,$4,$8,$4
               399B   02 02 03 03
               399F   02 02 02 02
               39A3   03 03 02 03
               39A7   03 02 02 02
               39AB   05 02 08 02
               39AF   07 03 07 03
               39B3   09 04 07 03
               39B7   07 04 07 03
               39BB   08 04 08 04
    340        39BF   08 04 0B 06          FCB $8,$4,$b,$6,$8,$4,$8,$5,$9,$5,$a,$5,$a,$5,$a,$6,$d,$7,$b,$7,$b,$6,$b,$7,$c,$7,$c,$7,$c,$7,$f,$9,$d,$8,$d,$8,$f,$8,$e,$9
               39C3   08 04 08 05
               39C7   09 05 0A 05
               39CB   0A 05 0A 06
               39CF   0D 07 0B 07
               39D3   0B 06 0B 07
               39D7   0C 07 0C 07
               39DB   0C 07 0F 09
               39DF   0D 08 0D 08
               39E3   0F 08 0E 09
    341        39E7   0E 09 0E 09          FCB $e,$9,$e,$9,$f,$c,$f,$a,$f,$b,$12,$a,$10,$b,$10,$b,$11,$c,$11,$e,$11,$c,$12,$c,$14,$d,$12,$d,$12,$d,$16,$10,$14,$10,$14,$f,$14,$e,$15,$10
               39EB   0F 0C 0F 0A
               39EF   0F 0B 12 0A
               39F3   10 0B 10 0B
               39F7   11 0C 11 0E
               39FB   11 0C 12 0C
               39FF   14 0D 12 0D
               3A03   12 0D 16 10
               3A07   14 10 14 0F
               3A0B   14 0E 15 10
    342        3A0F   05 05 05 05          FCB $5,$5,$5,$5,$5,$5,$5,$5,$5,$5,$5,$5,$5,$5,$5,$5,$5,$5,$5,$5,$5,$5,$5,$5,$5,$5,$5,$5,$5,$5,$5,$5,$5,$5,$5,$5,$5,$5,$5,$5
               3A13   05 05 05 05
               3A17   05 05 05 05
               3A1B   05 05 05 05
               3A1F   05 05 05 05
               3A23   05 05 05 05
               3A27   05 05 05 05
               3A2B   05 05 05 05
               3A2F   05 05 05 05
               3A33   05 05 05 05
    343        3A37   05 05 06 06          FCB $5,$5,$6,$6,$5,$5,$5,$5,$5,$5,$5,$5,$5,$5,$5,$5,$5,$5,$5,$5,$5,$5,$5,$5,$5,$5,$5,$5,$5,$5,$5,$5,$5,$5,$5,$5,$5,$5,$5,$5
               3A3B   05 05 05 05
               3A3F   05 05 05 05
               3A43   05 05 05 05
               3A47   05 05 05 05
               3A4B   05 05 05 05
               3A4F   05 05 05 05
               3A53   05 05 05 05
               3A57   05 05 05 05
               3A5B   05 05 05 05
    344        3A5F   05 05 05 05          FCB $5,$5,$5,$5,$5,$5,$5,$5,$5,$5,$5,$5,$5,$5,$5,$5,$5,$5,$5,$5,$5,$5,$5,$5,$5,$5,$5,$5,$5,$5,$5,$5,$5,$5,$5,$5,$5,$5,$5,$5
               3A63   05 05 05 05
               3A67   05 05 05 05
               3A6B   05 05 05 05
               3A6F   05 05 05 05
               3A73   05 05 05 05
               3A77   05 05 05 05
               3A7B   05 05 05 05
               3A7F   05 05 05 05
               3A83   05 05 05 05
    345        3A87   05 05 05 05          FCB $5,$5,$5,$5,$5,$5,$5,$5,$5,$5,$5,$5,$5,$5,$5,$5,$5,$5,$5,$5,$5,$5,$6,$6,$5,$5,$5,$5,$5,$5,$5,$5,$5,$5,$5,$5,$5,$5,$5,$5
               3A8B   05 05 05 05
               3A8F   05 05 05 05
               3A93   05 05 05 05
               3A97   05 05 05 05
               3A9B   05 05 06 06
               3A9F   05 05 05 05
               3AA3   05 05 05 05
               3AA7   05 05 05 05
               3AAB   05 05 05 05
    346        3AAF   05 05 05 05          FCB $5,$5,$5,$5,$5,$5,$5,$5,$5,$5,$5,$5,$5,$5,$5,$5,$5,$5,$5,$5,$5,$5,$5,$5,$5,$5,$5,$5,$5,$5,$5,$5,$5,$5,$5,$5,$5,$5,$5,$5
               3AB3   05 05 05 05
               3AB7   05 05 05 05
               3ABB   05 05 05 05
               3ABF   05 05 05 05
               3AC3   05 05 05 05
               3AC7   05 05 05 05
               3ACB   05 05 05 05
               3ACF   05 05 05 05
               3AD3   05 05 05 05
    347        3AD7                    line_missile_dy
    348        3AD7   03 03 03 04          FCB $3,$3,$3,$4,$3,$3,$3,$4,$4,$3,$4,$4,$4,$3,$4,$4,$4,$4,$4,$4,$4,$4,$4,$4,$4,$4,$4,$4,$3,$4,$3,$3,$3,$4,$3,$3,$4,$4,$4,$3
               3ADB   03 03 03 04
               3ADF   04 03 04 04
               3AE3   04 03 04 04
               3AE7   04 04 04 04
               3AEB   04 04 04 04
               3AEF   04 04 04 04
               3AF3   03 04 03 03
               3AF7   03 04 03 03
               3AFB   04 04 04 03
    349        3AFF   04 04 04 03          FCB $4,$4,$4,$3,$4,$4,$4,$4,$4,$4,$4,$4,$4,$4,$4,$4,$4,$4,$3,$4,$3,$3,$3,$4,$3,$3,$4,$4,$4,$3,$4,$4,$4,$3,$4,$4,$4,$4,$4,$4
               3B03   04 04 04 04
               3B07   04 04 04 04
               3B0B   04 04 04 04
               3B0F   04 04 03 04
               3B13   03 03 03 04
               3B17   03 03 04 04
               3B1B   04 03 04 04
               3B1F   04 03 04 04
               3B23   04 04 04 04
    350        3B27   04 04 04 04          FCB $4,$4,$4,$4,$4,$4,$3,$3,$3,$4,$3,$3,$3,$4,$4,$3,$4,$4,$4,$3,$9,$2,$8,$2,$9,$3,$a,$2,$9,$3,$a,$3,$9,$3,$a,$3,$b,$3,$a,$4
               3B2B   04 04 03 03
               3B2F   03 04 03 03
               3B33   03 04 04 03
               3B37   04 04 04 03
               3B3B   09 02 08 02
               3B3F   09 03 0A 02
               3B43   09 03 0A 03
               3B47   09 03 0A 03
               3B4B   0B 03 0A 04
    351        3B4F   0B 03 0A 04          FCB $b,$3,$a,$4,$b,$5,$c,$4,$b,$4,$d,$5,$b,$5,$b,$4,$d,$6,$c,$6,$e,$5,$d,$6,$d,$6,$e,$6,$d,$6,$f,$6,$f,$7,$e,$6,$10,$7,$e,$7
               3B53   0B 05 0C 04
               3B57   0B 04 0D 05
               3B5B   0B 05 0B 04
               3B5F   0D 06 0C 06
               3B63   0E 05 0D 06
               3B67   0D 06 0E 06
               3B6B   0D 06 0F 06
               3B6F   0F 07 0E 06
               3B73   10 07 0E 07
    352        3B77   0E 08 10 08          FCB $e,$8,$10,$8,$f,$8,$11,$9,$10,$8,$10,$9,$11,$9,$10,$9,$11,$9,$11,$9,$11,$a,$13,$a,$11,$a,$12,$a,$12,$b,$12,$b,$13,$b,$13,$c,$14,$b,$13,$c
               3B7B   0F 08 11 09
               3B7F   10 08 10 09
               3B83   11 09 10 09
               3B87   11 09 11 09
               3B8B   11 0A 13 0A
               3B8F   11 0A 12 0A
               3B93   12 0B 12 0B
               3B97   13 0B 13 0C
               3B9B   14 0B 13 0C
    353        3B9F   05 06 05 05          FCB $5,$6,$5,$5,$6,$5,$5,$6,$6,$6,$6,$5,$5,$6,$6,$6,$5,$5,$5,$6,$6,$6,$5,$5,$6,$5,$6,$6,$5,$5,$6,$5,$5,$6,$5,$5,$6,$5,$5,$6
               3BA3   06 05 05 06
               3BA7   06 06 06 05
               3BAB   05 06 06 06
               3BAF   05 05 05 06
               3BB3   06 06 05 05
               3BB7   06 05 06 06
               3BBB   05 05 06 05
               3BBF   05 06 05 05
               3BC3   06 05 05 06
    354        3BC7   06 06 06 05          FCB $6,$6,$6,$5,$5,$6,$6,$6,$5,$5,$6,$6,$6,$6,$5,$5,$6,$5,$5,$6,$5,$5,$6,$5,$5,$6,$6,$6,$6,$5,$5,$6,$6,$6,$5,$5,$5,$6,$6,$6
               3BCB   05 06 06 06
               3BCF   05 05 06 06
               3BD3   06 06 05 05
               3BD7   06 05 05 06
               3BDB   05 05 06 05
               3BDF   05 06 06 06
               3BE3   06 05 05 06
               3BE7   06 06 05 05
               3BEB   05 06 06 06
    355        3BEF   05 05 06 05          FCB $5,$5,$6,$5,$6,$6,$5,$5,$6,$5,$5,$6,$5,$5,$6,$5,$5,$6,$6,$6,$5,$6,$5,$5,$6,$5,$5,$6,$6,$6,$6,$5,$5,$6,$6,$6,$5,$5,$5,$6
               3BF3   06 06 05 05
               3BF7   06 05 05 06
               3BFB   05 05 06 05
               3BFF   05 06 06 06
               3C03   05 06 05 05
               3C07   06 05 05 06
               3C0B   06 06 06 05
               3C0F   05 06 06 06
               3C13   05 05 05 06
    356        3C17   06 06 05 05          FCB $6,$6,$5,$5,$6,$5,$6,$6,$5,$5,$6,$5,$5,$6,$5,$5,$6,$5,$5,$6,$6,$6,$6,$5,$5,$6,$6,$6,$5,$5,$6,$6,$6,$6,$5,$5,$6,$5,$5,$6
               3C1B   06 05 06 06
               3C1F   05 05 06 05
               3C23   05 06 05 05
               3C27   06 05 05 06
               3C2B   06 06 06 05
               3C2F   05 06 06 06
               3C33   05 05 06 06
               3C37   06 06 05 05
               3C3B   06 05 05 06
    357        3C3F   05 05 06 05          FCB $5,$5,$6,$5,$5,$6,$6,$6,$6,$5,$5,$6,$6,$6,$5,$5,$5,$6,$6,$6,$5,$5,$6,$5,$6,$6,$5,$5,$6,$5,$5,$6,$5,$5,$6,$5,$5,$6,$6,$6
               3C43   05 06 06 06
               3C47   06 05 05 06
               3C4B   06 06 05 05
               3C4F   05 06 06 06
               3C53   05 05 06 05
               3C57   06 06 05 05
               3C5B   06 05 05 06
               3C5F   05 05 06 05
               3C63   05 06 06 06
    358        3C67   02 09 03 09          FCB $2,$9,$3,$9,$3,$7,$3,$9,$3,$a,$3,$a,$3,$a,$3,$8,$3,$a,$4,$a,$3,$b,$4,$9,$3,$9,$4,$b,$5,$b,$6,$b,$6,$a,$5,$9,$6,$c,$5,$c
               3C6B   03 07 03 09
               3C6F   03 0A 03 0A
               3C73   03 0A 03 08
               3C77   03 0A 04 0A
               3C7B   03 0B 04 09
               3C7F   03 09 04 0B
               3C83   05 0B 06 0B
               3C87   06 0A 05 09
               3C8B   06 0C 05 0C
    359        3C8F   06 0C 06 0B          FCB $6,$c,$6,$b,$5,$b,$7,$e,$6,$d,$7,$e,$7,$c,$6,$c,$8,$f,$7,$f,$8,$f,$8,$d,$9,$f,$9,$10,$8,$10,$9,$10,$8,$e,$9,$11,$a,$11,$8,$12
               3C93   05 0B 07 0E
               3C97   06 0D 07 0E
               3C9B   07 0C 06 0C
               3C9F   08 0F 07 0F
               3CA3   08 0F 08 0D
               3CA7   09 0F 09 10
               3CAB   08 10 09 10
               3CAF   08 0E 09 11
               3CB3   0A 11 08 12
    360        3CB7   0A 0F 09 10          FCB $a,$f,$9,$10,$a,$13,$b,$12,$b,$13,$b,$11,$a,$11,$c,$14,$b,$13,$c,$14,$3,$3,$3,$4,$3,$3,$3,$4,$4,$3,$4,$4,$4,$3,$4,$4,$4,$4,$4,$4
               3CBB   0A 13 0B 12
               3CBF   0B 13 0B 11
               3CC3   0A 11 0C 14
               3CC7   0B 13 0C 14
               3CCB   03 03 03 04
               3CCF   03 03 03 04
               3CD3   04 03 04 04
               3CD7   04 03 04 04
               3CDB   04 04 04 04
    361        3CDF   04 04 04 04          FCB $4,$4,$4,$4,$4,$4,$4,$4,$3,$4,$3,$3,$3,$4,$3,$3,$4,$4,$4,$3,$4,$4,$4,$3,$4,$4,$4,$4,$4,$4,$4,$4,$4,$4,$4,$4,$4,$4,$3,$4
               3CE3   04 04 04 04
               3CE7   03 04 03 03
               3CEB   03 04 03 03
               3CEF   04 04 04 03
               3CF3   04 04 04 03
               3CF7   04 04 04 04
               3CFB   04 04 04 04
               3CFF   04 04 04 04
               3D03   04 04 03 04
    362        3D07   03 03 03 04          FCB $3,$3,$3,$4,$3,$3,$4,$4,$4,$3,$4,$4,$4,$3,$4,$4,$4,$4,$4,$4,$4,$4,$4,$4,$4,$4,$3,$3,$3,$4,$3,$3,$3,$4,$4,$3,$4,$4,$4,$3
               3D0B   03 03 04 04
               3D0F   04 03 04 04
               3D13   04 03 04 04
               3D17   04 04 04 04
               3D1B   04 04 04 04
               3D1F   04 04 03 03
               3D23   03 04 03 03
               3D27   03 04 04 03
               3D2B   04 04 04 03
    363        3D2F   03 08 04 08          FCB $3,$8,$4,$8,$5,$8,$4,$9,$5,$9,$5,$9,$5,$a,$6,$a,$6,$a,$6,$b,$7,$b,$7,$b,$7,$c,$7,$c,$7,$b,$7,$c,$7,$c,$8,$c,$8,$d,$8,$d
               3D33   05 08 04 09
               3D37   05 09 05 09
               3D3B   05 0A 06 0A
               3D3F   06 0A 06 0B
               3D43   07 0B 07 0B
               3D47   07 0C 07 0C
               3D4B   07 0B 07 0C
               3D4F   07 0C 08 0C
               3D53   08 0D 08 0D
    364        3D57   09 0D 09 0D          FCB $9,$d,$9,$d,$a,$e,$a,$e,$a,$e,$a,$10,$b,$e,$b,$10,$b,$10,$c,$10,$c,$f,$c,$10,$c,$11,$d,$10,$d,$11,$d,$12,$e,$11,$e,$12,$e,$13,$f,$12
               3D5B   0A 0E 0A 0E
               3D5F   0A 0E 0A 10
               3D63   0B 0E 0B 10
               3D67   0B 10 0C 10
               3D6B   0C 0F 0C 10
               3D6F   0C 11 0D 10
               3D73   0D 11 0D 12
               3D77   0E 11 0E 12
               3D7B   0E 13 0F 12
    365        3D7F   0E 13 0F 14          FCB $e,$13,$f,$14,$10,$13,$f,$13,$10,$14,$11,$14,$10,$15,$11,$15,$12,$16,$11,$16,$6,$6,$6,$6,$6,$6,$6,$7,$7,$7,$8,$7,$8,$8,$8,$8,$8,$8,$9,$9
               3D83   10 13 0F 13
               3D87   10 14 11 14
               3D8B   10 15 11 15
               3D8F   12 16 11 16
               3D93   06 06 06 06
               3D97   06 06 06 07
               3D9B   07 07 08 07
               3D9F   08 08 08 08
               3DA3   08 08 09 09
    366        3DA7   09 09 09 09          FCB $9,$9,$9,$9,$a,$a,$a,$a,$a,$a,$a,$b,$b,$b,$b,$b,$b,$c,$b,$c,$c,$c,$c,$d,$c,$d,$d,$d,$d,$d,$d,$e,$d,$e,$e,$e,$e,$f,$e,$f
               3DAB   0A 0A 0A 0A
               3DAF   0A 0A 0A 0B
               3DB3   0B 0B 0B 0B
               3DB7   0B 0C 0B 0C
               3DBB   0C 0C 0C 0D
               3DBF   0C 0D 0D 0D
               3DC3   0D 0D 0D 0E
               3DC7   0D 0E 0E 0E
               3DCB   0E 0F 0E 0F
    367        3DCF   0E 0F 0F 10          FCB $e,$f,$f,$10,$f,$10,$f,$10,$10,$10,$10,$11,$10,$11,$10,$11,$11,$11,$11,$12,$11,$12,$12,$12,$12,$13,$13,$13,$13,$13,$14,$13,$14,$14,$14,$14,$14,$14,$15,$15
               3DD3   0F 10 0F 10
               3DD7   10 10 10 11
               3DDB   10 11 10 11
               3DDF   11 11 11 12
               3DE3   11 12 12 12
               3DE7   12 13 13 13
               3DEB   13 13 14 13
               3DEF   14 14 14 14
               3DF3   14 14 15 15
    368        3DF7   01 01 01 01          FCB $1,$1,$1,$1,$1,$1,$1,$1,$1,$1,$2,$1,$1,$1,$1,$1,$1,$1,$1,$2,$1,$1,$1,$1,$2,$1,$1,$1,$1,$1,$1,$1,$1,$2,$1,$1,$1,$1,$1,$1
               3DFB   01 01 01 01
               3DFF   01 01 02 01
               3E03   01 01 01 01
               3E07   01 01 01 02
               3E0B   01 01 01 01
               3E0F   02 01 01 01
               3E13   01 01 01 01
               3E17   01 02 01 01
               3E1B   01 01 01 01
    369        3E1F   01 01 01 01          FCB $1,$1,$1,$1,$1,$1,$2,$2,$1,$1,$1,$1,$1,$1,$1,$1,$1,$1,$1,$1,$1,$1,$1,$1,$1,$1,$1,$1,$2,$1,$1,$1,$1,$1,$1,$1,$1,$2,$1,$1
               3E23   01 01 02 02
               3E27   01 01 01 01
               3E2B   01 01 01 01
               3E2F   01 01 01 01
               3E33   01 01 01 01
               3E37   01 01 01 01
               3E3B   02 01 01 01
               3E3F   01 01 01 01
               3E43   01 02 01 01
    370        3E47   01 01 02 01          FCB $1,$1,$2,$1,$1,$1,$1,$1,$1,$1,$1,$2,$1,$1,$1,$1,$1,$1,$1,$1,$6,$5,$8,$5,$8,$4,$8,$5,$8,$6,$7,$5,$8,$5,$7,$5,$9,$7,$a,$6
               3E4B   01 01 01 01
               3E4F   01 01 01 02
               3E53   01 01 01 01
               3E57   01 01 01 01
               3E5B   06 05 08 05
               3E5F   08 04 08 05
               3E63   08 06 07 05
               3E67   08 05 07 05
               3E6B   09 07 0A 06
    371        3E6F   07 06 0A 06          FCB $7,$6,$a,$6,$8,$6,$b,$7,$a,$7,$b,$8,$b,$6,$9,$6,$b,$8,$a,$9,$c,$9,$d,$7,$a,$7,$d,$a,$b,$a,$d,$a,$d,$8,$b,$9,$e,$b,$c,$b
               3E73   08 06 0B 07
               3E77   0A 07 0B 08
               3E7B   0B 06 09 06
               3E7F   0B 08 0A 09
               3E83   0C 09 0D 07
               3E87   0A 07 0D 0A
               3E8B   0B 0A 0D 0A
               3E8F   0D 08 0B 09
               3E93   0E 0B 0C 0B
    372        3E97   0E 0B 0F 0A          FCB $e,$b,$f,$a,$f,$c,$f,$c,$d,$c,$10,$d,$e,$b,$10,$d,$10,$d,$f,$e,$11,$c,$f,$b,$11,$e,$12,$f,$12,$f,$12,$c,$10,$d,$13,$10,$11,$10,$13,$f
               3E9B   0F 0C 0F 0C
               3E9F   0D 0C 10 0D
               3EA3   0E 0B 10 0D
               3EA7   10 0D 0F 0E
               3EAB   11 0C 0F 0B
               3EAF   11 0E 12 0F
               3EB3   12 0F 12 0C
               3EB7   10 0D 13 10
               3EBB   11 10 13 0F
    373        3EBF   03 03 03 03          FCB $3,$3,$3,$3,$3,$3,$3,$3,$3,$3,$3,$3,$3,$3,$3,$3,$3,$3,$3,$3,$3,$3,$3,$3,$3,$3,$3,$3,$3,$3,$3,$3,$3,$3,$3,$3,$3,$3,$3,$3
               3EC3   03 03 03 03
               3EC7   03 03 03 03
               3ECB   03 03 03 03
               3ECF   03 03 03 03
               3ED3   03 03 03 03
               3ED7   03 03 03 03
               3EDB   03 03 03 03
               3EDF   03 03 03 03
               3EE3   03 03 03 03
    374        3EE7   03 03 03 03          FCB $3,$3,$3,$3,$3,$3,$3,$3,$3,$3,$2,$2,$3,$3,$3,$3,$3,$3,$3,$3,$3,$3,$3,$3,$3,$3,$3,$3,$3,$3,$3,$3,$3,$3,$3,$3,$3,$3,$3,$3
               3EEB   03 03 03 03
               3EEF   03 03 02 02
               3EF3   03 03 03 03
               3EF7   03 03 03 03
               3EFB   03 03 03 03
               3EFF   03 03 03 03
               3F03   03 03 03 03
               3F07   03 03 03 03
               3F0B   03 03 03 03
    375        3F0F   03 03 03 03          FCB $3,$3,$3,$3,$3,$3,$3,$3,$3,$3,$3,$3,$3,$3,$3,$3,$3,$3,$3,$3,$3,$3,$3,$3,$3,$3,$3,$3,$3,$3,$3,$3,$3,$3,$3,$3,$3,$3,$3,$3
               3F13   03 03 03 03
               3F17   03 03 03 03
               3F1B   03 03 03 03
               3F1F   03 03 03 03
               3F23   03 03 03 03
               3F27   03 03 03 03
               3F2B   03 03 03 03
               3F2F   03 03 03 03
               3F33   03 03 03 03
    376        3F37   03 03 03 03          FCB $3,$3,$3,$3,$3,$3,$3,$3,$3,$3,$3,$3,$3,$3,$3,$3,$3,$3,$3,$3,$3,$3,$3,$3,$3,$3,$3,$3,$3,$3,$2,$2,$3,$3,$3,$3,$3,$3,$3,$3
               3F3B   03 03 03 03
               3F3F   03 03 03 03
               3F43   03 03 03 03
               3F47   03 03 03 03
               3F4B   03 03 03 03
               3F4F   03 03 03 03
               3F53   03 03 02 02
               3F57   03 03 03 03
               3F5B   03 03 03 03
    377        3F5F   03 03 03 03          FCB $3,$3,$3,$3,$3,$3,$3,$3,$3,$3,$3,$3,$3,$3,$3,$3,$3,$3,$3,$3,$3,$3,$3,$3,$3,$3,$3,$3,$3,$3,$3,$3,$3,$3,$3,$3,$3,$3,$3,$3
               3F63   03 03 03 03
               3F67   03 03 03 03
               3F6B   03 03 03 03
               3F6F   03 03 03 03
               3F73   03 03 03 03
               3F77   03 03 03 03
               3F7B   03 03 03 03
               3F7F   03 03 03 03
               3F83   03 03 03 03
    378        3F87   06 09 05 08          FCB $6,$9,$5,$8,$5,$8,$7,$a,$5,$a,$7,$9,$6,$9,$7,$b,$7,$a,$7,$a,$8,$b,$7,$b,$7,$a,$9,$c,$8,$c,$9,$b,$8,$b,$9,$d,$9,$c,$9,$c
               3F8B   05 08 07 0A
               3F8F   05 0A 07 09
               3F93   06 09 07 0B
               3F97   07 0A 07 0A
               3F9B   08 0B 07 0B
               3F9F   07 0A 09 0C
               3FA3   08 0C 09 0B
               3FA7   08 0B 09 0D
               3FAB   09 0C 09 0C
    379        3FAF   0A 0D 0A 0D          FCB $a,$d,$a,$d,$a,$d,$a,$e,$a,$e,$a,$d,$b,$f,$b,$f,$b,$e,$b,$e,$b,$10,$c,$f,$c,$f,$c,$10,$c,$10,$c,$10,$d,$11,$d,$11,$e,$11,$d,$11
               3FB3   0A 0D 0A 0E
               3FB7   0A 0E 0A 0D
               3FBB   0B 0F 0B 0F
               3FBF   0B 0E 0B 0E
               3FC3   0B 10 0C 0F
               3FC7   0C 0F 0C 10
               3FCB   0C 10 0C 10
               3FCF   0D 11 0D 11
               3FD3   0E 11 0D 11
    380        3FD7   0E 12 0E 11          FCB $e,$12,$e,$11,$e,$12,$f,$12,$f,$12,$e,$12,$10,$14,$f,$13,$11,$13,$10,$13,$1,$1,$2,$1,$1,$1,$1,$1,$2,$2,$1,$2,$1,$1,$1,$1,$1,$1,$1,$1
               3FDB   0E 12 0F 12
               3FDF   0F 12 0E 12
               3FE3   10 14 0F 13
               3FE7   11 13 10 13
               3FEB   01 01 02 01
               3FEF   01 01 01 01
               3FF3   02 02 01 02
               3FF7   01 01 01 01
               3FFB   01 01 01 01
    381        3FFF   01 01 02 02          FCB $1,$1,$2,$2,$1,$1,$1,$1,$1,$1,$1,$1,$1,$1,$1,$1,$2,$2,$1,$1,$1,$1,$1,$1,$1,$1,$1,$1,$1,$1,$2,$2,$1,$1,$1,$1,$2,$1,$1,$1
               4003   01 01 01 01
               4007   01 01 01 01
               400B   01 01 01 01
               400F   02 02 01 01
               4013   01 01 01 01
               4017   01 01 01 01
               401B   01 01 02 02
               401F   01 01 01 01
               4023   02 01 01 01
    382        4027   01 01 01 01          FCB $1,$1,$1,$1,$1,$2,$1,$1,$1,$1,$2,$1,$1,$1,$1,$1,$1,$1,$1,$2,$1,$1,$1,$1,$2,$1,$1,$1,$1,$1,$2,$2,$1,$2,$1,$1,$1,$1,$1,$1
               402B   01 02 01 01
               402F   01 01 02 01
               4033   01 01 01 01
               4037   01 01 01 02
               403B   01 01 01 01
               403F   02 01 01 01
               4043   01 01 02 02
               4047   01 02 01 01
               404B   01 01 01 01
    383        404F   06 06 06 07          FCB $6,$6,$6,$7,$7,$7,$7,$7,$7,$8,$7,$8,$7,$8,$7,$8,$7,$8,$8,$8,$8,$8,$9,$9,$9,$9,$9,$9,$9,$9,$9,$9,$9,$9,$9,$a,$9,$a,$a,$a
               4053   07 07 07 07
               4057   07 08 07 08
               405B   07 08 07 08
               405F   07 08 08 08
               4063   08 08 09 09
               4067   09 09 09 09
               406B   09 09 09 09
               406F   09 09 09 0A
               4073   09 0A 0A 0A
    384        4077   0A 0A 0B 0B          FCB $a,$a,$b,$b,$a,$a,$a,$b,$b,$b,$b,$b,$b,$b,$b,$b,$c,$c,$c,$c,$c,$c,$c,$c,$c,$d,$c,$d,$d,$d,$d,$e,$d,$e,$d,$e,$d,$e,$e,$f
               407B   0A 0A 0A 0B
               407F   0B 0B 0B 0B
               4083   0B 0B 0B 0B
               4087   0C 0C 0C 0C
               408B   0C 0C 0C 0C
               408F   0C 0D 0C 0D
               4093   0D 0D 0D 0E
               4097   0D 0E 0D 0E
               409B   0D 0E 0E 0F
    385        409F   0E 0F 0F 0F          FCB $e,$f,$f,$f,$f,$10,$f,$10,$f,$10,$f,$10,$f,$10,$10,$10,$10,$10,$10,$11,$8,$5,$8,$6,$9,$5,$9,$6,$a,$7,$a,$7,$b,$7,$b,$8,$b,$8,$c,$8
               40A3   0F 10 0F 10
               40A7   0F 10 0F 10
               40AB   0F 10 10 10
               40AF   10 10 10 11
               40B3   08 05 08 06
               40B7   09 05 09 06
               40BB   0A 07 0A 07
               40BF   0B 07 0B 08
               40C3   0B 08 0C 08
    386        40C7   0C 08 0D 09          FCB $c,$8,$d,$9,$d,$9,$e,$9,$d,$9,$e,$a,$e,$a,$f,$a,$f,$b,$f,$c,$10,$c,$10,$c,$11,$c,$11,$d,$11,$d,$12,$d,$12,$e,$12,$f,$13,$e,$13,$f
               40CB   0D 09 0E 09
               40CF   0D 09 0E 0A
               40D3   0E 0A 0F 0A
               40D7   0F 0B 0F 0C
               40DB   10 0C 10 0C
               40DF   11 0C 11 0D
               40E3   11 0D 12 0D
               40E7   12 0E 12 0F
               40EB   13 0E 13 0F
    387        40EF   13 10 13 10          FCB $13,$10,$13,$10,$14,$10,$14,$11,$14,$11,$15,$11,$15,$12,$16,$12,$16,$13,$17,$13,$17,$13,$18,$14,$18,$14,$18,$14,$18,$15,$19,$16,$19,$16,$1a,$16,$1a,$17,$1b,$17
               40F3   14 10 14 11
               40F7   14 11 15 11
               40FB   15 12 16 12
               40FF   16 13 17 13
               4103   17 13 18 14
               4107   18 14 18 14
               410B   18 15 19 16
               410F   19 16 1A 16
               4113   1A 17 1B 17
    388        4117                    line_missile_cmd
    389        4117   15 17 15 17          FCB $15,$17,$15,$17,$15,$17,$15,$17,$15,$17,$15,$17,$15,$17,$15,$17,$15,$17,$15,$17,$15,$17,$15,$17,$15,$17,$15,$17,$15,$17,$15,$17,$15,$17,$15,$17,$15,$17,$15,$17
               411B   15 17 15 17
               411F   15 17 15 17
               4123   15 17 15 17
               4127   15 17 15 17
               412B   15 17 15 17
               412F   15 17 15 17
               4133   15 17 15 17
               4137   15 17 15 17
               413B   15 17 15 17
    390        413F   15 17 15 17          FCB $15,$17,$15,$17,$15,$17,$15,$17,$15,$17,$15,$17,$15,$17,$15,$17,$15,$17,$15,$17,$15,$17,$15,$17,$15,$17,$15,$17,$15,$17,$15,$17,$15,$17,$15,$17,$15,$17,$15,$17
               4143   15 17 15 17
               4147   15 17 15 17
               414B   15 17 15 17
               414F   15 17 15 17
               4153   15 17 15 17
               4157   15 17 15 17
               415B   15 17 15 17
               415F   15 17 15 17
               4163   15 17 15 17
    391        4167   15 17 15 17          FCB $15,$17,$15,$17,$15,$17,$15,$17,$15,$17,$15,$17,$15,$17,$15,$17,$15,$17,$15,$17,$17,$13,$17,$13,$17,$13,$17,$13,$17,$13,$17,$13,$17,$13,$17,$13,$17,$13,$17,$13
               416B   15 17 15 17
               416F   15 17 15 17
               4173   15 17 15 17
               4177   15 17 15 17
               417B   17 13 17 13
               417F   17 13 17 13
               4183   17 13 17 13
               4187   17 13 17 13
               418B   17 13 17 13
    392        418F   17 13 17 13          FCB $17,$13,$17,$13,$17,$13,$17,$13,$17,$13,$17,$13,$17,$13,$17,$13,$17,$13,$17,$13,$17,$13,$17,$13,$17,$13,$17,$13,$17,$13,$17,$13,$17,$13,$17,$13,$17,$13,$17,$13
               4193   17 13 17 13
               4197   17 13 17 13
               419B   17 13 17 13
               419F   17 13 17 13
               41A3   17 13 17 13
               41A7   17 13 17 13
               41AB   17 13 17 13
               41AF   17 13 17 13
               41B3   17 13 17 13
    393        41B7   17 13 17 13          FCB $17,$13,$17,$13,$17,$13,$17,$13,$17,$13,$17,$13,$17,$13,$17,$13,$17,$13,$17,$13,$17,$13,$17,$13,$17,$13,$17,$13,$17,$13,$17,$13,$17,$13,$17,$13,$17,$13,$17,$13
               41BB   17 13 17 13
               41BF   17 13 17 13
               41C3   17 13 17 13
               41C7   17 13 17 13
               41CB   17 13 17 13
               41CF   17 13 17 13
               41D3   17 13 17 13
               41D7   17 13 17 13
               41DB   17 13 17 13
    394        41DF   15 17 15 17          FCB $15,$17,$15,$17,$15,$17,$15,$17,$15,$17,$15,$17,$15,$17,$15,$17,$15,$17,$15,$17,$15,$17,$15,$17,$15,$17,$15,$17,$15,$17,$15,$17,$15,$17,$15,$17,$15,$17,$15,$17
               41E3   15 17 15 17
               41E7   15 17 15 17
               41EB   15 17 15 17
               41EF   15 17 15 17
               41F3   15 17 15 17
               41F7   15 17 15 17
               41FB   15 17 15 17
               41FF   15 17 15 17
               4203   15 17 15 17
    395        4207   15 17 15 17          FCB $15,$17,$15,$17,$15,$17,$15,$17,$15,$17,$15,$17,$15,$17,$15,$17,$15,$17,$15,$17,$15,$17,$15,$17,$15,$17,$15,$17,$15,$17,$15,$17,$15,$17,$15,$17,$15,$17,$15,$17
               420B   15 17 15 17
               420F   15 17 15 17
               4213   15 17 15 17
               4217   15 17 15 17
               421B   15 17 15 17
               421F   15 17 15 17
               4223   15 17 15 17
               4227   15 17 15 17
               422B   15 17 15 17
    396        422F   15 17 15 17          FCB $15,$17,$15,$17,$15,$17,$15,$17,$15,$17,$15,$17,$15,$17,$15,$17,$15,$17,$15,$17,$15,$17,$15,$17,$15,$17,$15,$17,$15,$17,$15,$17,$15,$17,$15,$17,$15,$17,$15,$17
               4233   15 17 15 17
               4237   15 17 15 17
               423B   15 17 15 17
               423F   15 17 15 17
               4243   15 17 15 17
               4247   15 17 15 17
               424B   15 17 15 17
               424F   15 17 15 17
               4253   15 17 15 17
    397        4257   15 17 15 17          FCB $15,$17,$15,$17,$15,$17,$15,$17,$15,$17,$15,$17,$15,$17,$15,$17,$15,$17,$15,$17,$15,$17,$15,$17,$15,$17,$15,$17,$15,$17,$15,$17,$15,$17,$15,$17,$15,$17,$15,$17
               425B   15 17 15 17
               425F   15 17 15 17
               4263   15 17 15 17
               4267   15 17 15 17
               426B   15 17 15 17
               426F   15 17 15 17
               4273   15 17 15 17
               4277   15 17 15 17
               427B   15 17 15 17
    398        427F   15 17 15 17          FCB $15,$17,$15,$17,$15,$17,$15,$17,$15,$17,$15,$17,$15,$17,$15,$17,$15,$17,$15,$17,$15,$17,$15,$17,$15,$17,$15,$17,$15,$17,$15,$17,$15,$17,$15,$17,$15,$17,$15,$17
               4283   15 17 15 17
               4287   15 17 15 17
               428B   15 17 15 17
               428F   15 17 15 17
               4293   15 17 15 17
               4297   15 17 15 17
               429B   15 17 15 17
               429F   15 17 15 17
               42A3   15 17 15 17
    399        42A7   11 15 11 15          FCB $11,$15,$11,$15,$11,$15,$11,$15,$11,$15,$11,$15,$11,$15,$11,$15,$11,$15,$11,$15,$11,$15,$11,$15,$11,$15,$11,$15,$11,$15,$11,$15,$11,$15,$11,$15,$11,$15,$11,$15
               42AB   11 15 11 15
               42AF   11 15 11 15
               42B3   11 15 11 15
               42B7   11 15 11 15
               42BB   11 15 11 15
               42BF   11 15 11 15
               42C3   11 15 11 15
               42C7   11 15 11 15
               42CB   11 15 11 15
    400        42CF   11 15 11 15          FCB $11,$15,$11,$15,$11,$15,$11,$15,$11,$15,$11,$15,$11,$15,$11,$15,$11,$15,$11,$15,$11,$15,$11,$15,$11,$15,$11,$15,$11,$15,$11,$15,$11,$15,$11,$15,$11,$15,$11,$15
               42D3   11 15 11 15
               42D7   11 15 11 15
               42DB   11 15 11 15
               42DF   11 15 11 15
               42E3   11 15 11 15
               42E7   11 15 11 15
               42EB   11 15 11 15
               42EF   11 15 11 15
               42F3   11 15 11 15
    401        42F7   11 15 11 15          FCB $11,$15,$11,$15,$11,$15,$11,$15,$11,$15,$11,$15,$11,$15,$11,$15,$11,$15,$11,$15,$15,$17,$15,$17,$15,$17,$15,$17,$15,$17,$15,$17,$15,$17,$15,$17,$15,$17,$15,$17
               42FB   11 15 11 15
               42FF   11 15 11 15
               4303   11 15 11 15
               4307   11 15 11 15
               430B   15 17 15 17
               430F   15 17 15 17
               4313   15 17 15 17
               4317   15 17 15 17
               431B   15 17 15 17
    402        431F   15 17 15 17          FCB $15,$17,$15,$17,$15,$17,$15,$17,$15,$17,$15,$17,$15,$17,$15,$17,$15,$17,$15,$17,$15,$17,$15,$17,$15,$17,$15,$17,$15,$17,$15,$17,$15,$17,$15,$17,$15,$17,$15,$17
               4323   15 17 15 17
               4327   15 17 15 17
               432B   15 17 15 17
               432F   15 17 15 17
               4333   15 17 15 17
               4337   15 17 15 17
               433B   15 17 15 17
               433F   15 17 15 17
               4343   15 17 15 17
    403        4347   15 17 15 17          FCB $15,$17,$15,$17,$15,$17,$15,$17,$15,$17,$15,$17,$15,$17,$15,$17,$15,$17,$15,$17,$15,$17,$15,$17,$15,$17,$15,$17,$15,$17,$15,$17,$15,$17,$15,$17,$15,$17,$15,$17
               434B   15 17 15 17
               434F   15 17 15 17
               4353   15 17 15 17
               4357   15 17 15 17
               435B   15 17 15 17
               435F   15 17 15 17
               4363   15 17 15 17
               4367   15 17 15 17
               436B   15 17 15 17
    404        436F   11 15 11 15          FCB $11,$15,$11,$15,$11,$15,$11,$15,$11,$15,$11,$15,$11,$15,$11,$15,$11,$15,$11,$15,$11,$15,$11,$15,$11,$15,$11,$15,$11,$15,$11,$15,$11,$15,$11,$15,$11,$15,$11,$15
               4373   11 15 11 15
               4377   11 15 11 15
               437B   11 15 11 15
               437F   11 15 11 15
               4383   11 15 11 15
               4387   11 15 11 15
               438B   11 15 11 15
               438F   11 15 11 15
               4393   11 15 11 15
    405        4397   11 15 11 15          FCB $11,$15,$11,$15,$11,$15,$11,$15,$11,$15,$11,$15,$11,$15,$11,$15,$11,$15,$11,$15,$11,$15,$11,$15,$11,$15,$11,$15,$11,$15,$11,$15,$11,$15,$11,$15,$11,$15,$11,$15
               439B   11 15 11 15
               439F   11 15 11 15
               43A3   11 15 11 15
               43A7   11 15 11 15
               43AB   11 15 11 15
               43AF   11 15 11 15
               43B3   11 15 11 15
               43B7   11 15 11 15
               43BB   11 15 11 15
    406        43BF   11 15 11 15          FCB $11,$15,$11,$15,$11,$15,$11,$15,$11,$15,$11,$15,$11,$15,$11,$15,$11,$15,$11,$15,$11,$15,$11,$15,$11,$15,$11,$15,$11,$15,$11,$15,$11,$15,$11,$15,$11,$15,$11,$15
               43C3   11 15 11 15
               43C7   11 15 11 15
               43CB   11 15 11 15
               43CF   11 15 11 15
               43D3   11 15 11 15
               43D7   11 15 11 15
               43DB   11 15 11 15
               43DF   11 15 11 15
               43E3   11 15 11 15
    407        43E7   11 15 11 15          FCB $11,$15,$11,$15,$11,$15,$11,$15,$11,$15,$11,$15,$11,$15,$11,$15,$11,$15,$11,$15,$11,$15,$11,$15,$11,$15,$11,$15,$11,$15,$11,$15,$11,$15,$11,$15,$11,$15,$11,$15
               43EB   11 15 11 15
               43EF   11 15 11 15
               43F3   11 15 11 15
               43F7   11 15 11 15
               43FB   11 15 11 15
               43FF   11 15 11 15
               4403   11 15 11 15
               4407   11 15 11 15
               440B   11 15 11 15
    408        440F   11 15 11 15          FCB $11,$15,$11,$15,$11,$15,$11,$15,$11,$15,$11,$15,$11,$15,$11,$15,$11,$15,$11,$15,$11,$15,$11,$15,$11,$15,$11,$15,$11,$15,$11,$15,$11,$15,$11,$15,$11,$15,$11,$15
               4413   11 15 11 15
               4417   11 15 11 15
               441B   11 15 11 15
               441F   11 15 11 15
               4423   11 15 11 15
               4427   11 15 11 15
               442B   11 15 11 15
               442F   11 15 11 15
               4433   11 15 11 15
    409        4437   13 11 13 11          FCB $13,$11,$13,$11,$13,$11,$13,$11,$13,$11,$13,$11,$13,$11,$13,$11,$13,$11,$13,$11,$13,$11,$13,$11,$13,$11,$13,$11,$13,$11,$13,$11,$13,$11,$13,$11,$13,$11,$13,$11
               443B   13 11 13 11
               443F   13 11 13 11
               4443   13 11 13 11
               4447   13 11 13 11
               444B   13 11 13 11
               444F   13 11 13 11
               4453   13 11 13 11
               4457   13 11 13 11
               445B   13 11 13 11
    410        445F   13 11 13 11          FCB $13,$11,$13,$11,$13,$11,$13,$11,$13,$11,$13,$11,$13,$11,$13,$11,$13,$11,$13,$11,$13,$11,$13,$11,$13,$11,$13,$11,$13,$11,$13,$11,$13,$11,$13,$11,$13,$11,$13,$11
               4463   13 11 13 11
               4467   13 11 13 11
               446B   13 11 13 11
               446F   13 11 13 11
               4473   13 11 13 11
               4477   13 11 13 11
               447B   13 11 13 11
               447F   13 11 13 11
               4483   13 11 13 11
    411        4487   13 11 13 11          FCB $13,$11,$13,$11,$13,$11,$13,$11,$13,$11,$13,$11,$13,$11,$13,$11,$13,$11,$13,$11,$11,$15,$11,$15,$11,$15,$11,$15,$11,$15,$11,$15,$11,$15,$11,$15,$11,$15,$11,$15
               448B   13 11 13 11
               448F   13 11 13 11
               4493   13 11 13 11
               4497   13 11 13 11
               449B   11 15 11 15
               449F   11 15 11 15
               44A3   11 15 11 15
               44A7   11 15 11 15
               44AB   11 15 11 15
    412        44AF   11 15 11 15          FCB $11,$15,$11,$15,$11,$15,$11,$15,$11,$15,$11,$15,$11,$15,$11,$15,$11,$15,$11,$15,$11,$15,$11,$15,$11,$15,$11,$15,$11,$15,$11,$15,$11,$15,$11,$15,$11,$15,$11,$15
               44B3   11 15 11 15
               44B7   11 15 11 15
               44BB   11 15 11 15
               44BF   11 15 11 15
               44C3   11 15 11 15
               44C7   11 15 11 15
               44CB   11 15 11 15
               44CF   11 15 11 15
               44D3   11 15 11 15
    413        44D7   11 15 11 15          FCB $11,$15,$11,$15,$11,$15,$11,$15,$11,$15,$11,$15,$11,$15,$11,$15,$11,$15,$11,$15,$11,$15,$11,$15,$11,$15,$11,$15,$11,$15,$11,$15,$11,$15,$11,$15,$11,$15,$11,$15
               44DB   11 15 11 15
               44DF   11 15 11 15
               44E3   11 15 11 15
               44E7   11 15 11 15
               44EB   11 15 11 15
               44EF   11 15 11 15
               44F3   11 15 11 15
               44F7   11 15 11 15
               44FB   11 15 11 15
    414        44FF   13 11 13 11          FCB $13,$11,$13,$11,$13,$11,$13,$11,$13,$11,$13,$11,$13,$11,$13,$11,$13,$11,$13,$11,$13,$11,$13,$11,$13,$11,$13,$11,$13,$11,$13,$11,$13,$11,$13,$11,$13,$11,$13,$11
               4503   13 11 13 11
               4507   13 11 13 11
               450B   13 11 13 11
               450F   13 11 13 11
               4513   13 11 13 11
               4517   13 11 13 11
               451B   13 11 13 11
               451F   13 11 13 11
               4523   13 11 13 11
    415        4527   13 11 13 11          FCB $13,$11,$13,$11,$13,$11,$13,$11,$13,$11,$13,$11,$13,$11,$13,$11,$13,$11,$13,$11,$13,$11,$13,$11,$13,$11,$13,$11,$13,$11,$13,$11,$13,$11,$13,$11,$13,$11,$13,$11
               452B   13 11 13 11
               452F   13 11 13 11
               4533   13 11 13 11
               4537   13 11 13 11
               453B   13 11 13 11
               453F   13 11 13 11
               4543   13 11 13 11
               4547   13 11 13 11
               454B   13 11 13 11
    416        454F   13 11 13 11          FCB $13,$11,$13,$11,$13,$11,$13,$11,$13,$11,$13,$11,$13,$11,$13,$11,$13,$11,$13,$11,$13,$11,$13,$11,$13,$11,$13,$11,$13,$11,$13,$11,$13,$11,$13,$11,$13,$11,$13,$11
               4553   13 11 13 11
               4557   13 11 13 11
               455B   13 11 13 11
               455F   13 11 13 11
               4563   13 11 13 11
               4567   13 11 13 11
               456B   13 11 13 11
               456F   13 11 13 11
               4573   13 11 13 11
    417        4577   13 11 13 11          FCB $13,$11,$13,$11,$13,$11,$13,$11,$13,$11,$13,$11,$13,$11,$13,$11,$13,$11,$13,$11,$13,$11,$13,$11,$13,$11,$13,$11,$13,$11,$13,$11,$13,$11,$13,$11,$13,$11,$13,$11
               457B   13 11 13 11
               457F   13 11 13 11
               4583   13 11 13 11
               4587   13 11 13 11
               458B   13 11 13 11
               458F   13 11 13 11
               4593   13 11 13 11
               4597   13 11 13 11
               459B   13 11 13 11
    418        459F   13 11 13 11          FCB $13,$11,$13,$11,$13,$11,$13,$11,$13,$11,$13,$11,$13,$11,$13,$11,$13,$11,$13,$11,$13,$11,$13,$11,$13,$11,$13,$11,$13,$11,$13,$11,$13,$11,$13,$11,$13,$11,$13,$11
               45A3   13 11 13 11
               45A7   13 11 13 11
               45AB   13 11 13 11
               45AF   13 11 13 11
               45B3   13 11 13 11
               45B7   13 11 13 11
               45BB   13 11 13 11
               45BF   13 11 13 11
               45C3   13 11 13 11
    419        45C7   17 13 17 13          FCB $17,$13,$17,$13,$17,$13,$17,$13,$17,$13,$17,$13,$17,$13,$17,$13,$17,$13,$17,$13,$17,$13,$17,$13,$17,$13,$17,$13,$17,$13,$17,$13,$17,$13,$17,$13,$17,$13,$17,$13
               45CB   17 13 17 13
               45CF   17 13 17 13
               45D3   17 13 17 13
               45D7   17 13 17 13
               45DB   17 13 17 13
               45DF   17 13 17 13
               45E3   17 13 17 13
               45E7   17 13 17 13
               45EB   17 13 17 13
    420        45EF   17 13 17 13          FCB $17,$13,$17,$13,$17,$13,$17,$13,$17,$13,$17,$13,$17,$13,$17,$13,$17,$13,$17,$13,$17,$13,$17,$13,$17,$13,$17,$13,$17,$13,$17,$13,$17,$13,$17,$13,$17,$13,$17,$13
               45F3   17 13 17 13
               45F7   17 13 17 13
               45FB   17 13 17 13
               45FF   17 13 17 13
               4603   17 13 17 13
               4607   17 13 17 13
               460B   17 13 17 13
               460F   17 13 17 13
               4613   17 13 17 13
    421        4617   17 13 17 13          FCB $17,$13,$17,$13,$17,$13,$17,$13,$17,$13,$17,$13,$17,$13,$17,$13,$17,$13,$17,$13,$13,$11,$13,$11,$13,$11,$13,$11,$13,$11,$13,$11,$13,$11,$13,$11,$13,$11,$13,$11
               461B   17 13 17 13
               461F   17 13 17 13
               4623   17 13 17 13
               4627   17 13 17 13
               462B   13 11 13 11
               462F   13 11 13 11
               4633   13 11 13 11
               4637   13 11 13 11
               463B   13 11 13 11
    422        463F   13 11 13 11          FCB $13,$11,$13,$11,$13,$11,$13,$11,$13,$11,$13,$11,$13,$11,$13,$11,$13,$11,$13,$11,$13,$11,$13,$11,$13,$11,$13,$11,$13,$11,$13,$11,$13,$11,$13,$11,$13,$11,$13,$11
               4643   13 11 13 11
               4647   13 11 13 11
               464B   13 11 13 11
               464F   13 11 13 11
               4653   13 11 13 11
               4657   13 11 13 11
               465B   13 11 13 11
               465F   13 11 13 11
               4663   13 11 13 11
    423        4667   13 11 13 11          FCB $13,$11,$13,$11,$13,$11,$13,$11,$13,$11,$13,$11,$13,$11,$13,$11,$13,$11,$13,$11,$13,$11,$13,$11,$13,$11,$13,$11,$13,$11,$13,$11,$13,$11,$13,$11,$13,$11,$13,$11
               466B   13 11 13 11
               466F   13 11 13 11
               4673   13 11 13 11
               4677   13 11 13 11
               467B   13 11 13 11
               467F   13 11 13 11
               4683   13 11 13 11
               4687   13 11 13 11
               468B   13 11 13 11
    424        468F   17 13 17 13          FCB $17,$13,$17,$13,$17,$13,$17,$13,$17,$13,$17,$13,$17,$13,$17,$13,$17,$13,$17,$13,$17,$13,$17,$13,$17,$13,$17,$13,$17,$13,$17,$13,$17,$13,$17,$13,$17,$13,$17,$13
               4693   17 13 17 13
               4697   17 13 17 13
               469B   17 13 17 13
               469F   17 13 17 13
               46A3   17 13 17 13
               46A7   17 13 17 13
               46AB   17 13 17 13
               46AF   17 13 17 13
               46B3   17 13 17 13
    425        46B7   17 13 17 13          FCB $17,$13,$17,$13,$17,$13,$17,$13,$17,$13,$17,$13,$17,$13,$17,$13,$17,$13,$17,$13,$17,$13,$17,$13,$17,$13,$17,$13,$17,$13,$17,$13,$17,$13,$17,$13,$17,$13,$17,$13
               46BB   17 13 17 13
               46BF   17 13 17 13
               46C3   17 13 17 13
               46C7   17 13 17 13
               46CB   17 13 17 13
               46CF   17 13 17 13
               46D3   17 13 17 13
               46D7   17 13 17 13
               46DB   17 13 17 13
    426        46DF   17 13 17 13          FCB $17,$13,$17,$13,$17,$13,$17,$13,$17,$13,$17,$13,$17,$13,$17,$13,$17,$13,$17,$13,$17,$13,$17,$13,$17,$13,$17,$13,$17,$13,$17,$13,$17,$13,$17,$13,$17,$13,$17,$13
               46E3   17 13 17 13
               46E7   17 13 17 13
               46EB   17 13 17 13
               46EF   17 13 17 13
               46F3   17 13 17 13
               46F7   17 13 17 13
               46FB   17 13 17 13
               46FF   17 13 17 13
               4703   17 13 17 13
    427        4707   17 13 17 13          FCB $17,$13,$17,$13,$17,$13,$17,$13,$17,$13,$17,$13,$17,$13,$17,$13,$17,$13,$17,$13,$17,$13,$17,$13,$17,$13,$17,$13,$17,$13,$17,$13,$17,$13,$17,$13,$17,$13,$17,$13
               470B   17 13 17 13
               470F   17 13 17 13
               4713   17 13 17 13
               4717   17 13 17 13
               471B   17 13 17 13
               471F   17 13 17 13
               4723   17 13 17 13
               4727   17 13 17 13
               472B   17 13 17 13
    428        472F   17 13 17 13          FCB $17,$13,$17,$13,$17,$13,$17,$13,$17,$13,$17,$13,$17,$13,$17,$13,$17,$13,$17,$13,$17,$13,$17,$13,$17,$13,$17,$13,$17,$13,$17,$13,$17,$13,$17,$13,$17,$13,$17,$13
               4733   17 13 17 13
               4737   17 13 17 13
               473B   17 13 17 13
               473F   17 13 17 13
               4743   17 13 17 13
               4747   17 13 17 13
               474B   17 13 17 13
               474F   17 13 17 13
               4753   17 13 17 13
    429        4757   0000 0064            FDB $0000,$0064,$00C8,$012C,$0190,$01F4,$0258,$02BC,$0320,$0384,$03E8,$044C,$04B0,$0514,$0578,$05DC
               475B   00C8 012C
               475F   0190 01F4
               4763   0258 02BC
               4767   0320 0384
               476B   03E8 044C
               476F   04B0 0514
               4773   0578 05DC
               ----------------------------------------------------------------

