Pass1
Pass2
      1                        F000    GPU_CMD     EQU $F000
      2                        F005    GPU_DX      EQU $F005
      3                        F007    GPU_DY      EQU $F007
      4                        F008    GPU_X_MSB   EQU $F008
      5                        F009    GPU_X_LSB   EQU $F009
      6                        F00A    GPU_Y_MSB   EQU $F00A
      7                        F00B    GPU_Y_LSB   EQU $F00B
      8                        F010    GPU_COLOR   EQU $F010
      9
     10                        0030    MAZE_NB_LINES   EQU 48
     11
     12        0000                        org $0000
     13                        F0          setdp $F0
     14
     15  2     0000    86 F0               lda #$F0
     16  8     0002    1E 8B               exg A,DP
     17
     18        0004                    WAIT_VIDEO_CHIP
     19  4     0004    96 00               lda GPU_CMD
     20  2     0006    84 04               anda #4
     21  3     0008    27 FA               beq WAIT_VIDEO_CHIP
     22
     23  6     000A    0F 10               clr GPU_COLOR
     24
     25        000C                    WAIT_VIDEO_CHIP2
     26  4     000C    96 00               lda GPU_CMD
     27  2     000E    84 04               anda #4
     28  3     0010    27 FA               beq WAIT_VIDEO_CHIP2
     29
     30                                ****************************
     31                                * INIT
     32                                ****************************
     33  4     0012  108E 0000             ldy #0
     34  7     0016  10BF 02A1             sty PLAYER_POS
     35                                *    ldy #MAZE_NB_LINES
     36  7     001A  10BF 02A3             sty ENEMY_POS
     37  4     001E  108E 0032             ldy #50
     38  7     0022  10BF 02A5             sty MISSILE_POS1
     39  4     0026  108E 00A0             ldy #160
     40  7     002A  10BF 02A7             sty MISSILE_POS2
     41  4     002E  108E 012C             ldy #300
     42  7     0032  10BF 02A9             sty MISSILE_POS3
     43  4     0036  108E 01EA             ldy #490
     44  7     003A  10BF 02AB             sty MISSILE_POS4
     45  4     003E  108E 02C6             ldy #710
     46  7     0042  10BF 02AD             sty MISSILE_POS5
     47
     48                                ****************************
     49                                * MAIN LOOP
     50                                ****************************
     51        0046                    MAIN_LOOP
     52  8     0046    BD 021D             jsr VBLANK
     53  8     0049    BD 020F             jsr CLEAR_SCREEN
     54
     55  3     004C    8E 0030             LDX #MAZE_NB_LINES
     56        004F                    LINE_LOOP
     57  4+1   004F    30 1F               leax -1,X
     58  8     0051    BD 022A             jsr DRAW_LINE
     59  4     0054    8C 0000             cmpx #0
     60  3     0057    26 F6               bne LINE_LOOP
     61                                ****************** DRAW ENEMY
     62  7     0059  10BE 02A3             ldy ENEMY_POS           * Draw enemy
     63  8     005D    BD 0253             jsr DRAW_ENEMY_LINE
     64  4+1   0060    31 21               leay 1,Y
     65  8     0062    BD 0253             jsr DRAW_ENEMY_LINE
     66  5     0065  108C 063F             cmpy #1599                * If enemy ptr is 73
     67  3     0069    27 08               beq RESET_ENEMY
     68  4+1   006B    31 21               leay 1,Y
     69  7     006D  10BF 02A3             sty ENEMY_POS
     70  3     0071    20 08               bra DRAW_MISSILE
     71        0073                    RESET_ENEMY
     72  4     0073  108E 0000             ldy #0
     73  7     0077  10BF 02A3             sty ENEMY_POS
     74
     75        007B                    DRAW_MISSILE
     76                                ****************** DRAW MISSILE
     77  7     007B  10BE 02A5             ldy MISSILE_POS1           * Draw enemy
     78  8     007F    BD 027A             jsr DRAW_MISSILE_LINE
     79  4+1   0082    31 21               leay 1,Y
     80  8     0084    BD 027A             jsr DRAW_MISSILE_LINE
     81  5     0087  108C 063F             cmpy #1599                * If enemy ptr is 73
     82  3     008B    27 08               beq RESET_MISSILE1
     83  4+1   008D    31 21               leay 1,Y
     84  7     008F  10BF 02A5             sty MISSILE_POS1
     85  3     0093    20 08               bra DRAW_MISSILE2
     86        0095                    RESET_MISSILE1
     87  4     0095  108E 0000             ldy #0
     88  7     0099  10BF 02A5             sty MISSILE_POS1
     89
     90        009D                    DRAW_MISSILE2
     91  7     009D  10BE 02A7             ldy MISSILE_POS2           * Draw enemy
     92  8     00A1    BD 027A             jsr DRAW_MISSILE_LINE
     93  4+1   00A4    31 21               leay 1,Y
     94  8     00A6    BD 027A             jsr DRAW_MISSILE_LINE
     95  5     00A9  108C 063F             cmpy #1599                * If enemy ptr is 73
     96  3     00AD    27 08               beq RESET_MISSILE2
     97  4+1   00AF    31 21               leay 1,Y
     98  7     00B1  10BF 02A7             sty MISSILE_POS2
     99  3     00B5    20 08               bra DRAW_MISSILE3
    100        00B7                    RESET_MISSILE2
    101  4     00B7  108E 0000             ldy #0
    102  7     00BB  10BF 02A7             sty MISSILE_POS2
    103
    104        00BF                    DRAW_MISSILE3
    105  7     00BF  10BE 02A9             ldy MISSILE_POS3           * Draw enemy
    106  8     00C3    BD 027A             jsr DRAW_MISSILE_LINE
    107  4+1   00C6    31 21               leay 1,Y
    108  8     00C8    BD 027A             jsr DRAW_MISSILE_LINE
    109  5     00CB  108C 063F             cmpy #1599                * If enemy ptr is 73
    110  3     00CF    27 08               beq RESET_MISSILE3
    111  4+1   00D1    31 21               leay 1,Y
    112  7     00D3  10BF 02A9             sty MISSILE_POS3
    113  3     00D7    20 08               bra DRAW_MISSILE4
    114        00D9                    RESET_MISSILE3
    115  4     00D9  108E 0000             ldy #0
    116  7     00DD  10BF 02A9             sty MISSILE_POS3
    117
    118        00E1                    DRAW_MISSILE4
    119  7     00E1  10BE 02AB             ldy MISSILE_POS4           * Draw enemy
    120  8     00E5    BD 027A             jsr DRAW_MISSILE_LINE
    121  4+1   00E8    31 21               leay 1,Y
    122  8     00EA    BD 027A             jsr DRAW_MISSILE_LINE
    123  5     00ED  108C 063F             cmpy #1599                * If enemy ptr is 73
    124  3     00F1    27 08               beq RESET_MISSILE4
    125  4+1   00F3    31 21               leay 1,Y
    126  7     00F5  10BF 02AB             sty MISSILE_POS4
    127  3     00F9    20 08               bra DRAW_MISSILE5
    128        00FB                    RESET_MISSILE4
    129  4     00FB  108E 0000             ldy #0
    130  7     00FF  10BF 02AB             sty MISSILE_POS4
    131
    132        0103                    DRAW_MISSILE5
    133  7     0103  10BE 02AD             ldy MISSILE_POS5           * Draw enemy
    134  8     0107    BD 027A             jsr DRAW_MISSILE_LINE
    135  4+1   010A    31 21               leay 1,Y
    136  8     010C    BD 027A             jsr DRAW_MISSILE_LINE
    137  5     010F  108C 063F             cmpy #1599                * If enemy ptr is 73
    138  3     0113    27 08               beq RESET_MISSILE5
    139  4+1   0115    31 21               leay 1,Y
    140  7     0117  10BF 02AD             sty MISSILE_POS5
    141  3     011B    20 08               bra CHECK_KEYBOARD
    142        011D                    RESET_MISSILE5
    143  4     011D  108E 0000             ldy #0
    144  7     0121  10BF 02AD             sty MISSILE_POS5
    145
    146                                ****************************
    147
    148        0125                    CHECK_KEYBOARD
    149  4     0125    96 46               lda $F046
    150  2     0127    81 FF               cmpa #$FF
    151  6     0129  1027 FF19             lbeq MAIN_LOOP
    152  7     012D  10BE 02A1             ldy PLAYER_POS
    153
    154  2     0131    81 FE               cmpa #$FE
    155  6     0133  1027 00D0             lbeq KEYBOARD_UP
    156  2     0137    81 7F               cmpa #$7F
    157  6     0139  1027 00CD             lbeq KEYBOARD_DOWN
    158  2     013D    81 DF               cmpa #$DF
    159  6     013F  1027 0067             lbeq KEYBOARD_LEFT
    160  2     0143    81 BF               cmpa #$BF
    161  6     0145  1027 0003             lbeq KEYBOARD_RIGHT
    162  4     0149    7E 0046             jmp MAIN_LOOP
    163
    164                                ****************************
    165                                * END OF MAIN LOOP
    166                                ****************************
    167
    168        014C                    KEYBOARD_RIGHT
    169  5     014C  108C 002D             cmpy #45
    170  3     0150    27 31               beq RIGHT_RESET
    171  2     0152    86 06               lda #6
    172  4+4   0154    A7 A9 039F          sta LINE_COLOR,Y
    173  4+4   0158    A7 A9 03A0          sta LINE_COLOR+1,Y
    174  4+4   015C    A7 A9 03A1          sta LINE_COLOR+2,Y
    175  2     0160    86 01               lda #1
    176  4+4   0162    A7 A9 03A3          sta LINE_COLOR+4,Y
    177  4+4   0166    A7 A9 03A4          sta LINE_COLOR+5,Y
    178  5     016A  108C 002A             cmpy #42
    179  3     016E    27 06               beq KEYBOARD_RIGHT_DRAW_FIRST_VECTOR
    180  4+4   0170    A7 A9 03A5          sta LINE_COLOR+6,Y
    181  3     0174    20 04               bra MOVE_PLAYER_RIGHT
    182        0176                    KEYBOARD_RIGHT_DRAW_FIRST_VECTOR
    183  4+4   0176    A7 A9 0375          sta LINE_COLOR-42,Y
    184        017A                    MOVE_PLAYER_RIGHT
    185  4+1   017A    31 23               leay 3,Y
    186  7     017C  10BF 02A1             sty PLAYER_POS
    187  4     0180    7E 0046             jmp MAIN_LOOP
    188        0183                    RIGHT_RESET
    189  2     0183    86 06               lda #6
    190  4+4   0185    A7 A9 039F          sta LINE_COLOR,Y
    191  4+4   0189    A7 A9 03A0          sta LINE_COLOR+1,Y
    192  4+4   018D    A7 A9 03A1          sta LINE_COLOR+2,Y
    193  4     0191  108E 0000             ldy #0
    194  7     0195  10BF 02A1             sty PLAYER_POS
    195  2     0199    86 01               lda #1
    196  4+4   019B    A7 A9 03A0          sta LINE_COLOR+1,Y
    197  4+4   019F    A7 A9 03A1          sta LINE_COLOR+2,Y
    198  4+4   01A3    A7 A9 03A2          sta LINE_COLOR+3,Y
    199  4     01A7    7E 0046             jmp MAIN_LOOP
    200
    201        01AA                    KEYBOARD_LEFT
    202  5     01AA  108C 0000             cmpy #0
    203  3     01AE    27 30               beq LEFT_RESET
    204  2     01B0    86 06               lda #6
    205  4+4   01B2    A7 A9 03A0          sta LINE_COLOR+1,Y
    206  4+4   01B6    A7 A9 03A1          sta LINE_COLOR+2,Y
    207  5     01BA  108C 002D             cmpy #45
    208  3     01BE    27 06               beq KEYBOARD_LEFT_ERASE_FIRST_VECTOR
    209  4+4   01C0    A7 A9 03A2          sta LINE_COLOR+3,Y
    210  3     01C4    20 03               bra MOVE_PLAYER_LEFT
    211        01C6                    KEYBOARD_LEFT_ERASE_FIRST_VECTOR
    212  5     01C6    B7 039F             sta LINE_COLOR
    213        01C9                    MOVE_PLAYER_LEFT
    214  2     01C9    86 01               lda #1
    215  4+4   01CB    A7 A9 039E          sta LINE_COLOR-1,Y
    216  4+4   01CF    A7 A9 039D          sta LINE_COLOR-2,Y
    217  4+4   01D3    A7 A9 039C          sta LINE_COLOR-3,Y
    218  4+1   01D7    31 3D               leay -3,Y
    219  7     01D9  10BF 02A1             sty PLAYER_POS
    220  4     01DD    7E 0046             jmp MAIN_LOOP
    221        01E0                    LEFT_RESET
    222  2     01E0    86 06               lda #6
    223  4+4   01E2    A7 A9 03A0          sta LINE_COLOR+1,Y
    224  4+4   01E6    A7 A9 03A1          sta LINE_COLOR+2,Y
    225  4+4   01EA    A7 A9 03A2          sta LINE_COLOR+3,Y
    226  4     01EE  108E 002D             ldy #45
    227  7     01F2  10BF 02A1             sty PLAYER_POS
    228  2     01F6    86 01               lda #1
    229  4+4   01F8    A7 A9 039F          sta LINE_COLOR,Y
    230  4+4   01FC    A7 A9 03A0          sta LINE_COLOR+1,Y
    231  4+4   0200    A7 A9 03A1          sta LINE_COLOR+2,Y
    232  4     0204    7E 0046             jmp MAIN_LOOP
    233
    234        0207                    KEYBOARD_UP
    235  4     0207    7E 0046             jmp MAIN_LOOP
    236        020A                    KEYBOARD_DOWN
    237  4     020A    7E 0046             jmp MAIN_LOOP
    238
    239        020D                    END_PRG
    240  3     020D    20 FE               bra END_PRG
    241
    242                                ********************************************************************************
    243
    244        020F                    CLEAR_SCREEN
    245        020F                    WAIT_VIDEO_CHIP_CS                  * WAIT_EF9365_READY();
    246  4     020F    96 00               lda GPU_CMD
    247  2     0211    84 04               anda #4
    248  3     0213    27 FA               beq WAIT_VIDEO_CHIP_CS
    249
    250  2     0215    C6 04               ldb #$4
    251  3     0217    8E F000             ldx #GPU_CMD
    252  4+0   021A    E7 84           	stb ,X
    253  5     021C    39                  rts
    254
    255                                ********************************************************************************
    256
    257        021D                    VBLANK
    258        021D                    WAIT_FOR_VSYNC
    259  4     021D    96 00               lda GPU_CMD
    260  2     021F    84 02               anda #$02
    261  3     0221    27 FA               beq WAIT_FOR_VSYNC
    262        0223                    WAIT_FOR_VBLANK
    263  4     0223    96 00               lda GPU_CMD
    264  2     0225    84 02               anda #$02
    265  3     0227    26 FA               bne WAIT_FOR_VBLANK
    266  5     0229    39                  rts
    267
    268                                ********************************************************************************
    269
    270        022A                    DRAW_LINE
    271        022A                    WAIT_VIDEO_CHIP_DL                  * WAIT_EF9365_READY();
    272                                *    lda GPU_CMD
    273                                *    anda #4
    274                                *    beq WAIT_VIDEO_CHIP_DL
    275
    276  4+4   022A    A6 89 02AF          lda LINE_X1,X
    277  4     022E    97 09               sta GPU_X_LSB   * X = X_staRT
    278  6     0230    0F 08               clr GPU_X_MSB   * ? = 0
    279  6     0232    0F 0A               clr GPU_Y_MSB   * ? = 0
    280  4+4   0234    A6 89 02DF          lda LINE_Y1,X
    281  4     0238    97 0B               sta GPU_Y_LSB   * Y = B
    282  4+4   023A    A6 89 030F          lda LINE_DX,X
    283  4     023E    97 05               sta GPU_DX   * dX
    284  4+4   0240    A6 89 039F          lda LINE_COLOR,X
    285  4     0244    97 10               sta GPU_COLOR   * color
    286  4+4   0246    A6 89 033F          lda LINE_DY,X
    287  4     024A    97 07               sta GPU_DY   * dY
    288  4+4   024C    A6 89 036F          lda LINE_CMD,X
    289  4     0250    97 00               sta GPU_CMD   * CMD = draw_line
    290  5     0252    39                  rts
    291
    292                                ********************************************************************************
    293
    294        0253                    DRAW_ENEMY_LINE
    295                                *WAIT_VIDEO_CHIP_DEL                  * WAIT_EF9365_READY();
    296                                *    lda GPU_CMD
    297                                *    anda #4
    298                                *    beq WAIT_VIDEO_CHIP_DEL
    299
    300  4+4   0253    A6 A9 03CF          lda LINE_ENEMY_X1,Y
    301  4     0257    97 09               sta GPU_X_LSB   * X = X_staRT
    302  6     0259    0F 08               clr GPU_X_MSB   * ? = 0
    303  6     025B    0F 0A               clr GPU_Y_MSB   * ? = 0
    304  4+4   025D    A6 A9 0A0F          lda LINE_ENEMY_Y1,Y
    305  4     0261    97 0B               sta GPU_Y_LSB   * Y = B
    306  4+4   0263    A6 A9 104F          lda LINE_ENEMY_DX,Y
    307  4     0267    97 05               sta GPU_DX   * dX
    308  2     0269    86 03               lda #3
    309  4     026B    97 10               sta GPU_COLOR   * color
    310  4+4   026D    A6 A9 168F          lda LINE_ENEMY_DY,Y
    311  4     0271    97 07               sta GPU_DY   * dY
    312  4+4   0273    A6 A9 1CCF          lda LINE_ENEMY_CMD,Y
    313  4     0277    97 00               sta GPU_CMD   * CMD = draw_line
    314  5     0279    39                  rts
    315
    316                                ********************************************************************************
    317
    318        027A                    DRAW_MISSILE_LINE
    319                                *WAIT_VIDEO_CHIP_DEL                  * WAIT_EF9365_READY();
    320                                *    lda GPU_CMD
    321                                *    anda #4
    322                                *    beq WAIT_VIDEO_CHIP_DEL
    323
    324  4+4   027A    A6 A9 230F          lda LINE_MISSILE_X1,Y
    325  4     027E    97 09               sta GPU_X_LSB   * X = X_staRT
    326  6     0280    0F 08               clr GPU_X_MSB   * ? = 0
    327  6     0282    0F 0A               clr GPU_Y_MSB   * ? = 0
    328  4+4   0284    A6 A9 294F          lda LINE_MISSILE_Y1,Y
    329  4     0288    97 0B               sta GPU_Y_LSB   * Y = B
    330  4+4   028A    A6 A9 2F8F          lda LINE_MISSILE_DX,Y
    331  4     028E    97 05               sta GPU_DX   * dX
    332  2     0290    86 05               lda #5
    333  4     0292    97 10               sta GPU_COLOR   * color
    334  4+4   0294    A6 A9 35CF          lda LINE_MISSILE_DY,Y
    335  4     0298    97 07               sta GPU_DY   * dY
    336  4+4   029A    A6 A9 3C0F          lda LINE_MISSILE_CMD,Y
    337  4     029E    97 00               sta GPU_CMD   * CMD = draw_line
    338  5     02A0    39                  rts
    339
    340                                ********************************************************************************
    341
    342        02A1   0000             PLAYER_POS      FDB $0000
    343        02A3   0000             ENEMY_POS       FDB $0000
    344        02A5   5804             MISSILE_POS1    FDB $5804
    345        02A7   5806             MISSILE_POS2    FDB $5806
    346        02A9   5808             MISSILE_POS3    FDB $5808
    347        02AB   580A             MISSILE_POS4    FDB $580A
    348        02AD   580C             MISSILE_POS5    FDB $580C
    349
    350

               ----------------------------------------------------------------
    351                                    INCLUD "temps_pourri/temps_pourri_vectors.asm"
      1        02AF                    LINE_X1
      2        02AF   71 28 71 7D          FCB $71,$28,$71,$7d,$5a,$7d,$7d,$5a,$7d,$89,$85,$89,$95,$ad,$95,$95,$ad,$95,$a1,$dc,$a1,$a1,$dc,$a1,$a1,$dc,$a1,$95,$ad,$95,$95,$ad,$95,$88,$85,$88,$7c,$59,$7c,$7c
               02B3   5A 7D 7D 5A
               02B7   7D 89 85 89
               02BB   95 AD 95 95
               02BF   AD 95 A1 DC
               02C3   A1 A1 DC A1
               02C7   A1 DC A1 95
               02CB   AD 95 95 AD
               02CF   95 88 85 88
               02D3   7C 59 7C 7C
      3        02D7   7C 59 71 71          FCB $7c,$59,$71,$71,$28,$71,$28,$71
               02DB   28 71 28 71
      4        02DF                    LINE_Y1
      5        02DF   80 4A 80 80          FCB $80,$4a,$80,$80,$4a,$80,$75,$25,$75,$75,$25,$75,$75,$25,$75,$82,$4c,$82,$82,$4c,$82,$8c,$79,$8c,$97,$a7,$97,$97,$a7,$97,$a6,$d1,$a6,$a6,$d1,$a6,$a6,$d1,$a6,$96
               02E3   4A 80 75 25
               02E7   75 75 25 75
               02EB   75 25 75 82
               02EF   4C 82 82 4C
               02F3   82 8C 79 8C
               02F7   97 A7 97 97
               02FB   A7 97 A6 D1
               02FF   A6 A6 D1 A6
               0303   A6 D1 A6 96
      6        0307   96 A7 96 96          FCB $96,$a7,$96,$96,$a7,$8b,$82,$8b
               030B   A7 8B 82 8B
      7        030F                    LINE_DX
      8        030F   49 32 0C 23          FCB $49,$32,$c,$23,$0,$0,$23,$2c,$c,$4,$28,$c,$18,$0,$0,$18,$2f,$c,$3b,$0,$0,$3b,$0,$0,$3b,$30,$c,$18,$0,$0,$18,$28,$d,$3,$2c,$c,$23,$0,$0,$23
               0313   00 00 23 2C
               0317   0C 04 28 0C
               031B   18 00 00 18
               031F   2F 0C 3B 00
               0323   00 3B 00 00
               0327   3B 30 0C 18
               032B   00 00 18 28
               032F   0D 03 2C 0C
               0333   23 00 00 23
      9        0337   0B 31 49 00          FCB $b,$31,$49,$0,$0,$49,$0,$0
               033B   00 49 00 00
     10        033F                    LINE_DY
     11        033F   36 00 00 36          FCB $36,$0,$0,$36,$25,$b,$50,$0,$0,$50,$0,$0,$50,$28,$d,$36,$0,$0,$36,$2e,$a,$13,$2e,$b,$10,$0,$0,$10,$2a,$f,$2b,$0,$0,$2b,$0,$0,$2b,$2a,$10,$11
               0343   25 0B 50 00
               0347   00 50 00 00
               034B   50 28 0D 36
               034F   00 00 36 2E
               0353   0A 13 2E 0B
               0357   10 00 00 10
               035B   2A 0F 2B 00
               035F   00 2B 00 00
               0363   2B 2A 10 11
     12        0367   00 00 11 0B          FCB $0,$0,$11,$b,$25,$9,$38,$b
               036B   25 09 38 0B
     13        036F                    LINE_CMD
     14        036F   17 11 11 17          FCB $17,$11,$11,$17,$15,$15,$17,$11,$11,$17,$11,$11,$15,$11,$11,$15,$11,$11,$15,$11,$11,$15,$11,$11,$11,$13,$13,$11,$11,$11,$11,$13,$13,$13,$13,$13,$13,$15,$15,$13
               0373   15 15 17 11
               0377   11 17 11 11
               037B   15 11 11 15
               037F   11 11 15 11
               0383   11 15 11 11
               0387   11 13 13 11
               038B   11 11 11 13
               038F   13 13 13 13
               0393   13 15 15 13
     15        0397   13 13 13 15          FCB $13,$13,$13,$15,$15,$17,$15,$15
               039B   15 17 15 15
     16        039F                    LINE_COLOR
     17        039F   01 01 01 01          FCB $1,$1,$1,$1,$6,$6,$6,$6,$6,$6,$6,$6,$6,$6,$6,$6,$6,$6,$6,$6,$6,$6,$6,$6,$6,$6,$6,$6,$6,$6,$6,$6,$6,$6,$6,$6,$6,$6,$6,$6
               03A3   06 06 06 06
               03A7   06 06 06 06
               03AB   06 06 06 06
               03AF   06 06 06 06
               03B3   06 06 06 06
               03B7   06 06 06 06
               03BB   06 06 06 06
               03BF   06 06 06 06
               03C3   06 06 06 06
     18        03C7   06 06 06 06          FCB $6,$6,$6,$6,$6,$6,$6,$6
               03CB   06 06 06 06
     19        03CF                    LINE_ENEMY_X1
     20        03CF   71 7D 70 7C          FCB $71,$7d,$70,$7c,$6e,$7c,$6d,$7b,$6c,$7b,$6b,$7a,$69,$79,$68,$79,$67,$78,$66,$78,$64,$77,$63,$76,$62,$76,$61,$75,$5f,$75,$5e,$74,$5d,$73,$5c,$73,$5a,$72,$59,$72
               03D3   6E 7C 6D 7B
               03D7   6C 7B 6B 7A
               03DB   69 79 68 79
               03DF   67 78 66 78
               03E3   64 77 63 76
               03E7   62 76 61 75
               03EB   5F 75 5E 74
               03EF   5D 73 5C 73
               03F3   5A 72 59 72
     21        03F7   58 71 57 70          FCB $58,$71,$57,$70,$55,$70,$54,$6f,$53,$6f,$52,$6e,$50,$6d,$4f,$6d,$4e,$6c,$4c,$6c,$4b,$6b,$4a,$6a,$49,$6a,$47,$69,$46,$68,$45,$68,$44,$67,$42,$67,$41,$66,$40,$65
               03FB   55 70 54 6F
               03FF   53 6F 52 6E
               0403   50 6D 4F 6D
               0407   4E 6C 4C 6C
               040B   4B 6B 4A 6A
               040F   49 6A 47 69
               0413   46 68 45 68
               0417   44 67 42 67
               041B   41 66 40 65
     22        041F   3F 65 3D 64          FCB $3f,$65,$3d,$64,$3c,$64,$3b,$63,$3a,$62,$38,$62,$37,$61,$36,$61,$35,$60,$33,$5f,$7d,$7d,$7c,$7c,$7c,$7c,$7b,$7b,$7b,$7b,$7a,$7a,$79,$79,$79,$79,$78,$78,$78,$78
               0423   3C 64 3B 63
               0427   3A 62 38 62
               042B   37 61 36 61
               042F   35 60 33 5F
               0433   7D 7D 7C 7C
               0437   7C 7C 7B 7B
               043B   7B 7B 7A 7A
               043F   79 79 79 79
               0443   78 78 78 78
     23        0447   77 77 76 76          FCB $77,$77,$76,$76,$76,$76,$75,$75,$75,$75,$74,$74,$73,$73,$73,$73,$72,$72,$72,$72,$71,$71,$70,$70,$70,$70,$6f,$6f,$6f,$6f,$6e,$6e,$6d,$6d,$6d,$6d,$6c,$6c,$6c,$6c
               044B   76 76 75 75
               044F   75 75 74 74
               0453   73 73 73 73
               0457   72 72 72 72
               045B   71 71 70 70
               045F   70 70 6F 6F
               0463   6F 6F 6E 6E
               0467   6D 6D 6D 6D
               046B   6C 6C 6C 6C
     24        046F   6B 6B 6A 6A          FCB $6b,$6b,$6a,$6a,$6a,$6a,$69,$69,$68,$68,$68,$68,$67,$67,$67,$67,$66,$66,$65,$65,$65,$65,$64,$64,$64,$64,$63,$63,$62,$62,$62,$62,$61,$61,$61,$61,$60,$60,$5f,$5f
               0473   6A 6A 69 69
               0477   68 68 68 68
               047B   67 67 67 67
               047F   66 66 65 65
               0483   65 65 64 64
               0487   64 64 63 63
               048B   62 62 62 62
               048F   61 61 61 61
               0493   60 60 5F 5F
     25        0497   7D 89 7C 89          FCB $7d,$89,$7c,$89,$7c,$89,$7b,$89,$7b,$89,$7a,$89,$79,$89,$79,$89,$78,$88,$78,$88,$77,$88,$76,$88,$76,$88,$75,$88,$75,$88,$74,$88,$73,$88,$73,$88,$72,$88,$72,$88
               049B   7C 89 7B 89
               049F   7B 89 7A 89
               04A3   79 89 79 89
               04A7   78 88 78 88
               04AB   77 88 76 88
               04AF   76 88 75 88
               04B3   75 88 74 88
               04B7   73 88 73 88
               04BB   72 88 72 88
     26        04BF   71 88 70 88          FCB $71,$88,$70,$88,$70,$87,$6f,$87,$6f,$87,$6e,$87,$6d,$87,$6d,$87,$6c,$87,$6c,$87,$6b,$87,$6a,$87,$6a,$87,$69,$87,$68,$87,$68,$87,$67,$87,$67,$86,$66,$86,$65,$86
               04C3   70 87 6F 87
               04C7   6F 87 6E 87
               04CB   6D 87 6D 87
               04CF   6C 87 6C 87
               04D3   6B 87 6A 87
               04D7   6A 87 69 87
               04DB   68 87 68 87
               04DF   67 87 67 86
               04E3   66 86 65 86
     27        04E7   65 86 64 86          FCB $65,$86,$64,$86,$64,$86,$63,$86,$62,$86,$62,$86,$61,$86,$61,$86,$60,$86,$5f,$86,$89,$95,$89,$95,$89,$96,$89,$96,$89,$97,$89,$97,$89,$97,$89,$98,$88,$98,$88,$99
               04EB   64 86 63 86
               04EF   62 86 62 86
               04F3   61 86 61 86
               04F7   60 86 5F 86
               04FB   89 95 89 95
               04FF   89 96 89 96
               0503   89 97 89 97
               0507   89 97 89 98
               050B   88 98 88 99
     28        050F   88 99 88 9A          FCB $88,$99,$88,$9a,$88,$9a,$88,$9a,$88,$9b,$88,$9b,$88,$9c,$88,$9c,$88,$9c,$88,$9d,$88,$9d,$88,$9e,$87,$9e,$87,$9f,$87,$9f,$87,$9f,$87,$a0,$87,$a0,$87,$a1,$87,$a1
               0513   88 9A 88 9A
               0517   88 9B 88 9B
               051B   88 9C 88 9C
               051F   88 9C 88 9D
               0523   88 9D 88 9E
               0527   87 9E 87 9F
               052B   87 9F 87 9F
               052F   87 A0 87 A0
               0533   87 A1 87 A1
     29        0537   87 A1 87 A2          FCB $87,$a1,$87,$a2,$87,$a2,$87,$a3,$87,$a3,$87,$a3,$87,$a4,$86,$a4,$86,$a5,$86,$a5,$86,$a6,$86,$a6,$86,$a6,$86,$a7,$86,$a7,$86,$a8,$86,$a8,$86,$a8,$86,$a9,$86,$a9
               053B   87 A2 87 A3
               053F   87 A3 87 A3
               0543   87 A4 86 A4
               0547   86 A5 86 A5
               054B   86 A6 86 A6
               054F   86 A6 86 A7
               0553   86 A7 86 A8
               0557   86 A8 86 A8
               055B   86 A9 86 A9
     30        055F   95 95 95 95          FCB $95,$95,$95,$95,$96,$96,$96,$96,$97,$97,$97,$97,$97,$97,$98,$98,$98,$98,$99,$99,$99,$99,$9a,$9a,$9a,$9a,$9a,$9a,$9b,$9b,$9b,$9b,$9c,$9c,$9c,$9c,$9c,$9c,$9d,$9d
               0563   96 96 96 96
               0567   97 97 97 97
               056B   97 97 98 98
               056F   98 98 99 99
               0573   99 99 9A 9A
               0577   9A 9A 9A 9A
               057B   9B 9B 9B 9B
               057F   9C 9C 9C 9C
               0583   9C 9C 9D 9D
     31        0587   9D 9D 9E 9E          FCB $9d,$9d,$9e,$9e,$9e,$9e,$9f,$9f,$9f,$9f,$9f,$9f,$a0,$a0,$a0,$a0,$a1,$a1,$a1,$a1,$a1,$a1,$a2,$a2,$a2,$a2,$a3,$a3,$a3,$a3,$a3,$a3,$a4,$a4,$a4,$a4,$a5,$a5,$a5,$a5
               058B   9E 9E 9F 9F
               058F   9F 9F 9F 9F
               0593   A0 A0 A0 A0
               0597   A1 A1 A1 A1
               059B   A1 A1 A2 A2
               059F   A2 A2 A3 A3
               05A3   A3 A3 A3 A3
               05A7   A4 A4 A4 A4
               05AB   A5 A5 A5 A5
     32        05AF   A6 A6 A6 A6          FCB $a6,$a6,$a6,$a6,$a6,$a6,$a7,$a7,$a7,$a7,$a8,$a8,$a8,$a8,$a8,$a8,$a9,$a9,$a9,$a9,$95,$a1,$95,$a2,$96,$a3,$96,$a4,$97,$a5,$97,$a6,$97,$a7,$98,$a8,$98,$a9,$99,$aa
               05B3   A6 A6 A7 A7
               05B7   A7 A7 A8 A8
               05BB   A8 A8 A8 A8
               05BF   A9 A9 A9 A9
               05C3   95 A1 95 A2
               05C7   96 A3 96 A4
               05CB   97 A5 97 A6
               05CF   97 A7 98 A8
               05D3   98 A9 99 AA
     33        05D7   99 AB 9A AC          FCB $99,$ab,$9a,$ac,$9a,$ad,$9a,$ae,$9b,$af,$9b,$b0,$9c,$b1,$9c,$b2,$9c,$b3,$9d,$b4,$9d,$b5,$9e,$b6,$9e,$b7,$9f,$b8,$9f,$b9,$9f,$ba,$a0,$bb,$a0,$bc,$a1,$bd,$a1,$be
               05DB   9A AD 9A AE
               05DF   9B AF 9B B0
               05E3   9C B1 9C B2
               05E7   9C B3 9D B4
               05EB   9D B5 9E B6
               05EF   9E B7 9F B8
               05F3   9F B9 9F BA
               05F7   A0 BB A0 BC
               05FB   A1 BD A1 BE
     34        05FF   A1 C0 A2 C1          FCB $a1,$c0,$a2,$c1,$a2,$c2,$a3,$c3,$a3,$c4,$a3,$c5,$a4,$c6,$a4,$c7,$a5,$c8,$a5,$c9,$a6,$ca,$a6,$cb,$a6,$cc,$a7,$cd,$a7,$ce,$a8,$cf,$a8,$d0,$a8,$d1,$a9,$d2,$a9,$d3
               0603   A2 C2 A3 C3
               0607   A3 C4 A3 C5
               060B   A4 C6 A4 C7
               060F   A5 C8 A5 C9
               0613   A6 CA A6 CB
               0617   A6 CC A7 CD
               061B   A7 CE A8 CF
               061F   A8 D0 A8 D1
               0623   A9 D2 A9 D3
     35        0627   A1 A1 A2 A2          FCB $a1,$a1,$a2,$a2,$a3,$a3,$a4,$a4,$a5,$a5,$a6,$a6,$a7,$a7,$a8,$a8,$a9,$a9,$aa,$aa,$ab,$ab,$ac,$ac,$ad,$ad,$ae,$ae,$af,$af,$b0,$b0,$b1,$b1,$b2,$b2,$b3,$b3,$b4,$b4
               062B   A3 A3 A4 A4
               062F   A5 A5 A6 A6
               0633   A7 A7 A8 A8
               0637   A9 A9 AA AA
               063B   AB AB AC AC
               063F   AD AD AE AE
               0643   AF AF B0 B0
               0647   B1 B1 B2 B2
               064B   B3 B3 B4 B4
     36        064F   B5 B5 B6 B6          FCB $b5,$b5,$b6,$b6,$b7,$b7,$b8,$b8,$b9,$b9,$ba,$ba,$bb,$bb,$bc,$bc,$bd,$bd,$be,$be,$c0,$c0,$c1,$c1,$c2,$c2,$c3,$c3,$c4,$c4,$c5,$c5,$c6,$c6,$c7,$c7,$c8,$c8,$c9,$c9
               0653   B7 B7 B8 B8
               0657   B9 B9 BA BA
               065B   BB BB BC BC
               065F   BD BD BE BE
               0663   C0 C0 C1 C1
               0667   C2 C2 C3 C3
               066B   C4 C4 C5 C5
               066F   C6 C6 C7 C7
               0673   C8 C8 C9 C9
     37        0677   CA CA CB CB          FCB $ca,$ca,$cb,$cb,$cc,$cc,$cd,$cd,$ce,$ce,$cf,$cf,$d0,$d0,$d1,$d1,$d2,$d2,$d3,$d3,$a1,$a1,$a2,$a2,$a3,$a3,$a4,$a4,$a5,$a5,$a6,$a6,$a7,$a7,$a8,$a8,$a9,$a9,$aa,$aa
               067B   CC CC CD CD
               067F   CE CE CF CF
               0683   D0 D0 D1 D1
               0687   D2 D2 D3 D3
               068B   A1 A1 A2 A2
               068F   A3 A3 A4 A4
               0693   A5 A5 A6 A6
               0697   A7 A7 A8 A8
               069B   A9 A9 AA AA
     38        069F   AB AB AC AC          FCB $ab,$ab,$ac,$ac,$ad,$ad,$ae,$ae,$af,$af,$b0,$b0,$b1,$b1,$b2,$b2,$b3,$b3,$b4,$b4,$b5,$b5,$b6,$b6,$b7,$b7,$b8,$b8,$b9,$b9,$ba,$ba,$bb,$bb,$bc,$bc,$bd,$bd,$be,$be
               06A3   AD AD AE AE
               06A7   AF AF B0 B0
               06AB   B1 B1 B2 B2
               06AF   B3 B3 B4 B4
               06B3   B5 B5 B6 B6
               06B7   B7 B7 B8 B8
               06BB   B9 B9 BA BA
               06BF   BB BB BC BC
               06C3   BD BD BE BE
     39        06C7   C0 C0 C1 C1          FCB $c0,$c0,$c1,$c1,$c2,$c2,$c3,$c3,$c4,$c4,$c5,$c5,$c6,$c6,$c7,$c7,$c8,$c8,$c9,$c9,$ca,$ca,$cb,$cb,$cc,$cc,$cd,$cd,$ce,$ce,$cf,$cf,$d0,$d0,$d1,$d1,$d2,$d2,$d3,$d3
               06CB   C2 C2 C3 C3
               06CF   C4 C4 C5 C5
               06D3   C6 C6 C7 C7
               06D7   C8 C8 C9 C9
               06DB   CA CA CB CB
               06DF   CC CC CD CD
               06E3   CE CE CF CF
               06E7   D0 D0 D1 D1
               06EB   D2 D2 D3 D3
     40        06EF   A1 95 A2 95          FCB $a1,$95,$a2,$95,$a3,$96,$a4,$96,$a5,$97,$a6,$97,$a7,$97,$a8,$98,$a9,$98,$aa,$99,$ab,$99,$ac,$9a,$ad,$9a,$ae,$9a,$af,$9b,$b0,$9b,$b1,$9c,$b2,$9c,$b3,$9c,$b4,$9d
               06F3   A3 96 A4 96
               06F7   A5 97 A6 97
               06FB   A7 97 A8 98
               06FF   A9 98 AA 99
               0703   AB 99 AC 9A
               0707   AD 9A AE 9A
               070B   AF 9B B0 9B
               070F   B1 9C B2 9C
               0713   B3 9C B4 9D
     41        0717   B5 9D B6 9E          FCB $b5,$9d,$b6,$9e,$b7,$9e,$b8,$9f,$b9,$9f,$ba,$9f,$bb,$a0,$bc,$a0,$bd,$a1,$be,$a1,$c0,$a1,$c1,$a2,$c2,$a2,$c3,$a3,$c4,$a3,$c5,$a3,$c6,$a4,$c7,$a4,$c8,$a5,$c9,$a5
               071B   B7 9E B8 9F
               071F   B9 9F BA 9F
               0723   BB A0 BC A0
               0727   BD A1 BE A1
               072B   C0 A1 C1 A2
               072F   C2 A2 C3 A3
               0733   C4 A3 C5 A3
               0737   C6 A4 C7 A4
               073B   C8 A5 C9 A5
     42        073F   CA A6 CB A6          FCB $ca,$a6,$cb,$a6,$cc,$a6,$cd,$a7,$ce,$a7,$cf,$a8,$d0,$a8,$d1,$a8,$d2,$a9,$d3,$a9,$95,$95,$95,$95,$96,$96,$96,$96,$97,$97,$97,$97,$97,$97,$98,$98,$98,$98,$99,$99
               0743   CC A6 CD A7
               0747   CE A7 CF A8
               074B   D0 A8 D1 A8
               074F   D2 A9 D3 A9
               0753   95 95 95 95
               0757   96 96 96 96
               075B   97 97 97 97
               075F   97 97 98 98
               0763   98 98 99 99
     43        0767   99 99 9A 9A          FCB $99,$99,$9a,$9a,$9a,$9a,$9a,$9a,$9b,$9b,$9b,$9b,$9c,$9c,$9c,$9c,$9c,$9c,$9d,$9d,$9d,$9d,$9e,$9e,$9e,$9e,$9f,$9f,$9f,$9f,$9f,$9f,$a0,$a0,$a0,$a0,$a1,$a1,$a1,$a1
               076B   9A 9A 9A 9A
               076F   9B 9B 9B 9B
               0773   9C 9C 9C 9C
               0777   9C 9C 9D 9D
               077B   9D 9D 9E 9E
               077F   9E 9E 9F 9F
               0783   9F 9F 9F 9F
               0787   A0 A0 A0 A0
               078B   A1 A1 A1 A1
     44        078F   A1 A1 A2 A2          FCB $a1,$a1,$a2,$a2,$a2,$a2,$a3,$a3,$a3,$a3,$a3,$a3,$a4,$a4,$a4,$a4,$a5,$a5,$a5,$a5,$a6,$a6,$a6,$a6,$a6,$a6,$a7,$a7,$a7,$a7,$a8,$a8,$a8,$a8,$a8,$a8,$a9,$a9,$a9,$a9
               0793   A2 A2 A3 A3
               0797   A3 A3 A3 A3
               079B   A4 A4 A4 A4
               079F   A5 A5 A5 A5
               07A3   A6 A6 A6 A6
               07A7   A6 A6 A7 A7
               07AB   A7 A7 A8 A8
               07AF   A8 A8 A8 A8
               07B3   A9 A9 A9 A9
     45        07B7   95 88 95 88          FCB $95,$88,$95,$88,$96,$88,$96,$88,$97,$88,$97,$88,$97,$88,$98,$88,$98,$88,$99,$88,$99,$87,$9a,$87,$9a,$87,$9a,$87,$9b,$87,$9b,$87,$9c,$87,$9c,$87,$9c,$87,$9d,$87
               07BB   96 88 96 88
               07BF   97 88 97 88
               07C3   97 88 98 88
               07C7   98 88 99 88
               07CB   99 87 9A 87
               07CF   9A 87 9A 87
               07D3   9B 87 9B 87
               07D7   9C 87 9C 87
               07DB   9C 87 9D 87
     46        07DF   9D 87 9E 87          FCB $9d,$87,$9e,$87,$9e,$87,$9f,$87,$9f,$87,$9f,$87,$a0,$87,$a0,$87,$a1,$87,$a1,$86,$a1,$86,$a2,$86,$a2,$86,$a3,$86,$a3,$86,$a3,$86,$a4,$86,$a4,$86,$a5,$86,$a5,$86
               07E3   9E 87 9F 87
               07E7   9F 87 9F 87
               07EB   A0 87 A0 87
               07EF   A1 87 A1 86
               07F3   A1 86 A2 86
               07F7   A2 86 A3 86
               07FB   A3 86 A3 86
               07FF   A4 86 A4 86
               0803   A5 86 A5 86
     47        0807   A6 86 A6 86          FCB $a6,$86,$a6,$86,$a6,$86,$a7,$86,$a7,$86,$a8,$86,$a8,$86,$a8,$86,$a9,$86,$a9,$85,$88,$7c,$88,$7b,$88,$7b,$88,$7a,$88,$7a,$88,$79,$88,$78,$88,$78,$88,$77,$88,$77
               080B   A6 86 A7 86
               080F   A7 86 A8 86
               0813   A8 86 A8 86
               0817   A9 86 A9 85
               081B   88 7C 88 7B
               081F   88 7B 88 7A
               0823   88 7A 88 79
               0827   88 78 88 78
               082B   88 77 88 77
     48        082F   87 76 87 75          FCB $87,$76,$87,$75,$87,$75,$87,$74,$87,$74,$87,$73,$87,$72,$87,$72,$87,$71,$87,$71,$87,$70,$87,$6f,$87,$6f,$87,$6e,$87,$6e,$87,$6d,$87,$6c,$87,$6c,$87,$6b,$86,$6a
               0833   87 75 87 74
               0837   87 74 87 73
               083B   87 72 87 72
               083F   87 71 87 71
               0843   87 70 87 6F
               0847   87 6F 87 6E
               084B   87 6E 87 6D
               084F   87 6C 87 6C
               0853   87 6B 86 6A
     49        0857   86 6A 86 69          FCB $86,$6a,$86,$69,$86,$69,$86,$68,$86,$67,$86,$67,$86,$66,$86,$66,$86,$65,$86,$64,$86,$64,$86,$63,$86,$63,$86,$62,$86,$61,$86,$61,$86,$60,$86,$60,$86,$5f,$85,$5e
               085B   86 69 86 68
               085F   86 67 86 67
               0863   86 66 86 66
               0867   86 65 86 64
               086B   86 64 86 63
               086F   86 63 86 62
               0873   86 61 86 61
               0877   86 60 86 60
               087B   86 5F 85 5E
     50        087F   7C 7C 7B 7B          FCB $7c,$7c,$7b,$7b,$7b,$7b,$7a,$7a,$7a,$7a,$79,$79,$78,$78,$78,$78,$77,$77,$77,$77,$76,$76,$75,$75,$75,$75,$74,$74,$74,$74,$73,$73,$72,$72,$72,$72,$71,$71,$71,$71
               0883   7B 7B 7A 7A
               0887   7A 7A 79 79
               088B   78 78 78 78
               088F   77 77 77 77
               0893   76 76 75 75
               0897   75 75 74 74
               089B   74 74 73 73
               089F   72 72 72 72
               08A3   71 71 71 71
     51        08A7   70 70 6F 6F          FCB $70,$70,$6f,$6f,$6f,$6f,$6e,$6e,$6e,$6e,$6d,$6d,$6c,$6c,$6c,$6c,$6b,$6b,$6a,$6a,$6a,$6a,$69,$69,$69,$69,$68,$68,$67,$67,$67,$67,$66,$66,$66,$66,$65,$65,$64,$64
               08AB   6F 6F 6E 6E
               08AF   6E 6E 6D 6D
               08B3   6C 6C 6C 6C
               08B7   6B 6B 6A 6A
               08BB   6A 6A 69 69
               08BF   69 69 68 68
               08C3   67 67 67 67
               08C7   66 66 66 66
               08CB   65 65 64 64
     52        08CF   64 64 63 63          FCB $64,$64,$63,$63,$63,$63,$62,$62,$61,$61,$61,$61,$60,$60,$60,$60,$5f,$5f,$5e,$5e,$7c,$71,$7b,$70,$7b,$6e,$7a,$6d,$7a,$6c,$79,$6b,$78,$69,$78,$68,$77,$67,$77,$66
               08D3   63 63 62 62
               08D7   61 61 61 61
               08DB   60 60 60 60
               08DF   5F 5F 5E 5E
               08E3   7C 71 7B 70
               08E7   7B 6E 7A 6D
               08EB   7A 6C 79 6B
               08EF   78 69 78 68
               08F3   77 67 77 66
     53        08F7   76 64 75 63          FCB $76,$64,$75,$63,$75,$62,$74,$61,$74,$5f,$73,$5e,$72,$5d,$72,$5c,$71,$5a,$71,$59,$70,$58,$6f,$57,$6f,$55,$6e,$54,$6e,$53,$6d,$52,$6c,$50,$6c,$4f,$6b,$4e,$6a,$4c
               08FB   75 62 74 61
               08FF   74 5F 73 5E
               0903   72 5D 72 5C
               0907   71 5A 71 59
               090B   70 58 6F 57
               090F   6F 55 6E 54
               0913   6E 53 6D 52
               0917   6C 50 6C 4F
               091B   6B 4E 6A 4C
     54        091F   6A 4B 69 4A          FCB $6a,$4b,$69,$4a,$69,$49,$68,$47,$67,$46,$67,$45,$66,$44,$66,$42,$65,$41,$64,$40,$64,$3f,$63,$3d,$63,$3c,$62,$3b,$61,$3a,$61,$38,$60,$37,$60,$36,$5f,$35,$5e,$33
               0923   69 49 68 47
               0927   67 46 67 45
               092B   66 44 66 42
               092F   65 41 64 40
               0933   64 3F 63 3D
               0937   63 3C 62 3B
               093B   61 3A 61 38
               093F   60 37 60 36
               0943   5F 35 5E 33
     55        0947   71 71 70 70          FCB $71,$71,$70,$70,$6e,$6e,$6d,$6d,$6c,$6c,$6b,$6b,$69,$69,$68,$68,$67,$67,$66,$66,$64,$64,$63,$63,$62,$62,$61,$61,$5f,$5f,$5e,$5e,$5d,$5d,$5c,$5c,$5a,$5a,$59,$59
               094B   6E 6E 6D 6D
               094F   6C 6C 6B 6B
               0953   69 69 68 68
               0957   67 67 66 66
               095B   64 64 63 63
               095F   62 62 61 61
               0963   5F 5F 5E 5E
               0967   5D 5D 5C 5C
               096B   5A 5A 59 59
     56        096F   58 58 57 57          FCB $58,$58,$57,$57,$55,$55,$54,$54,$53,$53,$52,$52,$50,$50,$4f,$4f,$4e,$4e,$4c,$4c,$4b,$4b,$4a,$4a,$49,$49,$47,$47,$46,$46,$45,$45,$44,$44,$42,$42,$41,$41,$40,$40
               0973   55 55 54 54
               0977   53 53 52 52
               097B   50 50 4F 4F
               097F   4E 4E 4C 4C
               0983   4B 4B 4A 4A
               0987   49 49 47 47
               098B   46 46 45 45
               098F   44 44 42 42
               0993   41 41 40 40
     57        0997   3F 3F 3D 3D          FCB $3f,$3f,$3d,$3d,$3c,$3c,$3b,$3b,$3a,$3a,$38,$38,$37,$37,$36,$36,$35,$35,$33,$33,$71,$71,$70,$70,$6e,$6e,$6d,$6d,$6c,$6c,$6b,$6b,$69,$69,$68,$68,$67,$67,$66,$66
               099B   3C 3C 3B 3B
               099F   3A 3A 38 38
               09A3   37 37 36 36
               09A7   35 35 33 33
               09AB   71 71 70 70
               09AF   6E 6E 6D 6D
               09B3   6C 6C 6B 6B
               09B7   69 69 68 68
               09BB   67 67 66 66
     58        09BF   64 64 63 63          FCB $64,$64,$63,$63,$62,$62,$61,$61,$5f,$5f,$5e,$5e,$5d,$5d,$5c,$5c,$5a,$5a,$59,$59,$58,$58,$57,$57,$55,$55,$54,$54,$53,$53,$52,$52,$50,$50,$4f,$4f,$4e,$4e,$4c,$4c
               09C3   62 62 61 61
               09C7   5F 5F 5E 5E
               09CB   5D 5D 5C 5C
               09CF   5A 5A 59 59
               09D3   58 58 57 57
               09D7   55 55 54 54
               09DB   53 53 52 52
               09DF   50 50 4F 4F
               09E3   4E 4E 4C 4C
     59        09E7   4B 4B 4A 4A          FCB $4b,$4b,$4a,$4a,$49,$49,$47,$47,$46,$46,$45,$45,$44,$44,$42,$42,$41,$41,$40,$40,$3f,$3f,$3d,$3d,$3c,$3c,$3b,$3b,$3a,$3a,$38,$38,$37,$37,$36,$36,$35,$35,$33,$33
               09EB   49 49 47 47
               09EF   46 46 45 45
               09F3   44 44 42 42
               09F7   41 41 40 40
               09FB   3F 3F 3D 3D
               09FF   3C 3C 3B 3B
               0A03   3A 3A 38 38
               0A07   37 37 36 36
               0A0B   35 35 33 33
     60        0A0F                    LINE_ENEMY_Y1
     61        0A0F   80 80 7F 7F          FCB $80,$80,$7f,$7f,$7e,$7e,$7d,$7d,$7c,$7c,$7b,$7b,$7a,$7a,$79,$79,$79,$79,$78,$78,$77,$77,$76,$76,$75,$75,$74,$74,$73,$73,$72,$72,$71,$71,$70,$70,$6f,$6f,$6e,$6e
               0A13   7E 7E 7D 7D
               0A17   7C 7C 7B 7B
               0A1B   7A 7A 79 79
               0A1F   79 79 78 78
               0A23   77 77 76 76
               0A27   75 75 74 74
               0A2B   73 73 72 72
               0A2F   71 71 70 70
               0A33   6F 6F 6E 6E
     62        0A37   6D 6D 6C 6C          FCB $6d,$6d,$6c,$6c,$6c,$6c,$6b,$6b,$6a,$6a,$69,$69,$68,$68,$67,$67,$66,$66,$65,$65,$64,$64,$63,$63,$62,$62,$61,$61,$60,$60,$5f,$5f,$5e,$5e,$5e,$5e,$5d,$5d,$5c,$5c
               0A3B   6C 6C 6B 6B
               0A3F   6A 6A 69 69
               0A43   68 68 67 67
               0A47   66 66 65 65
               0A4B   64 64 63 63
               0A4F   62 62 61 61
               0A53   60 60 5F 5F
               0A57   5E 5E 5E 5E
               0A5B   5D 5D 5C 5C
     63        0A5F   5B 5B 5A 5A          FCB $5b,$5b,$5a,$5a,$59,$59,$58,$58,$57,$57,$56,$56,$55,$55,$54,$54,$53,$53,$52,$52,$80,$75,$7f,$74,$7e,$72,$7d,$71,$7c,$6f,$7b,$6e,$7a,$6d,$79,$6b,$79,$6a,$78,$69
               0A63   59 59 58 58
               0A67   57 57 56 56
               0A6B   55 55 54 54
               0A6F   53 53 52 52
               0A73   80 75 7F 74
               0A77   7E 72 7D 71
               0A7B   7C 6F 7B 6E
               0A7F   7A 6D 79 6B
               0A83   79 6A 78 69
     64        0A87   77 67 76 66          FCB $77,$67,$76,$66,$75,$64,$74,$63,$73,$62,$72,$60,$71,$5f,$70,$5e,$6f,$5c,$6e,$5b,$6d,$59,$6c,$58,$6c,$57,$6b,$55,$6a,$54,$69,$53,$68,$51,$67,$50,$66,$4e,$65,$4d
               0A8B   75 64 74 63
               0A8F   73 62 72 60
               0A93   71 5F 70 5E
               0A97   6F 5C 6E 5B
               0A9B   6D 59 6C 58
               0A9F   6C 57 6B 55
               0AA3   6A 54 69 53
               0AA7   68 51 67 50
               0AAB   66 4E 65 4D
     65        0AAF   64 4C 63 4A          FCB $64,$4c,$63,$4a,$62,$49,$61,$47,$60,$46,$5f,$45,$5e,$43,$5e,$42,$5d,$41,$5c,$3f,$5b,$3e,$5a,$3c,$59,$3b,$58,$3a,$57,$38,$56,$37,$55,$36,$54,$34,$53,$33,$52,$31
               0AB3   62 49 61 47
               0AB7   60 46 5F 45
               0ABB   5E 43 5E 42
               0ABF   5D 41 5C 3F
               0AC3   5B 3E 5A 3C
               0AC7   59 3B 58 3A
               0ACB   57 38 56 37
               0ACF   55 36 54 34
               0AD3   53 33 52 31
     66        0AD7   75 75 74 74          FCB $75,$75,$74,$74,$72,$72,$71,$71,$6f,$6f,$6e,$6e,$6d,$6d,$6b,$6b,$6a,$6a,$69,$69,$67,$67,$66,$66,$64,$64,$63,$63,$62,$62,$60,$60,$5f,$5f,$5e,$5e,$5c,$5c,$5b,$5b
               0ADB   72 72 71 71
               0ADF   6F 6F 6E 6E
               0AE3   6D 6D 6B 6B
               0AE7   6A 6A 69 69
               0AEB   67 67 66 66
               0AEF   64 64 63 63
               0AF3   62 62 60 60
               0AF7   5F 5F 5E 5E
               0AFB   5C 5C 5B 5B
     67        0AFF   59 59 58 58          FCB $59,$59,$58,$58,$57,$57,$55,$55,$54,$54,$53,$53,$51,$51,$50,$50,$4e,$4e,$4d,$4d,$4c,$4c,$4a,$4a,$49,$49,$47,$47,$46,$46,$45,$45,$43,$43,$42,$42,$41,$41,$3f,$3f
               0B03   57 57 55 55
               0B07   54 54 53 53
               0B0B   51 51 50 50
               0B0F   4E 4E 4D 4D
               0B13   4C 4C 4A 4A
               0B17   49 49 47 47
               0B1B   46 46 45 45
               0B1F   43 43 42 42
               0B23   41 41 3F 3F
     68        0B27   3E 3E 3C 3C          FCB $3e,$3e,$3c,$3c,$3b,$3b,$3a,$3a,$38,$38,$37,$37,$36,$36,$34,$34,$33,$33,$31,$31,$75,$75,$74,$74,$72,$72,$71,$71,$6f,$6f,$6e,$6e,$6d,$6d,$6b,$6b,$6a,$6a,$69,$69
               0B2B   3B 3B 3A 3A
               0B2F   38 38 37 37
               0B33   36 36 34 34
               0B37   33 33 31 31
               0B3B   75 75 74 74
               0B3F   72 72 71 71
               0B43   6F 6F 6E 6E
               0B47   6D 6D 6B 6B
               0B4B   6A 6A 69 69
     69        0B4F   67 67 66 66          FCB $67,$67,$66,$66,$64,$64,$63,$63,$62,$62,$60,$60,$5f,$5f,$5e,$5e,$5c,$5c,$5b,$5b,$59,$59,$58,$58,$57,$57,$55,$55,$54,$54,$53,$53,$51,$51,$50,$50,$4e,$4e,$4d,$4d
               0B53   64 64 63 63
               0B57   62 62 60 60
               0B5B   5F 5F 5E 5E
               0B5F   5C 5C 5B 5B
               0B63   59 59 58 58
               0B67   57 57 55 55
               0B6B   54 54 53 53
               0B6F   51 51 50 50
               0B73   4E 4E 4D 4D
     70        0B77   4C 4C 4A 4A          FCB $4c,$4c,$4a,$4a,$49,$49,$47,$47,$46,$46,$45,$45,$43,$43,$42,$42,$41,$41,$3f,$3f,$3e,$3e,$3c,$3c,$3b,$3b,$3a,$3a,$38,$38,$37,$37,$36,$36,$34,$34,$33,$33,$31,$31
               0B7B   49 49 47 47
               0B7F   46 46 45 45
               0B83   43 43 42 42
               0B87   41 41 3F 3F
               0B8B   3E 3E 3C 3C
               0B8F   3B 3B 3A 3A
               0B93   38 38 37 37
               0B97   36 36 34 34
               0B9B   33 33 31 31
     71        0B9F   75 82 74 81          FCB $75,$82,$74,$81,$72,$80,$71,$7f,$6f,$7e,$6e,$7d,$6d,$7c,$6b,$7b,$6a,$7b,$69,$7a,$67,$79,$66,$78,$64,$77,$63,$76,$62,$75,$60,$74,$5f,$73,$5e,$72,$5c,$71,$5b,$70
               0BA3   72 80 71 7F
               0BA7   6F 7E 6E 7D
               0BAB   6D 7C 6B 7B
               0BAF   6A 7B 69 7A
               0BB3   67 79 66 78
               0BB7   64 77 63 76
               0BBB   62 75 60 74
               0BBF   5F 73 5E 72
               0BC3   5C 71 5B 70
     72        0BC7   59 6F 58 6E          FCB $59,$6f,$58,$6e,$57,$6e,$55,$6d,$54,$6c,$53,$6b,$51,$6a,$50,$69,$4e,$68,$4d,$67,$4c,$66,$4a,$65,$49,$64,$47,$63,$46,$62,$45,$61,$43,$60,$42,$60,$41,$5f,$3f,$5e
               0BCB   57 6E 55 6D
               0BCF   54 6C 53 6B
               0BD3   51 6A 50 69
               0BD7   4E 68 4D 67
               0BDB   4C 66 4A 65
               0BDF   49 64 47 63
               0BE3   46 62 45 61
               0BE7   43 60 42 60
               0BEB   41 5F 3F 5E
     73        0BEF   3E 5D 3C 5C          FCB $3e,$5d,$3c,$5c,$3b,$5b,$3a,$5a,$38,$59,$37,$58,$36,$57,$34,$56,$33,$55,$31,$54,$82,$82,$81,$81,$80,$80,$7f,$7f,$7e,$7e,$7d,$7d,$7c,$7c,$7b,$7b,$7b,$7b,$7a,$7a
               0BF3   3B 5B 3A 5A
               0BF7   38 59 37 58
               0BFB   36 57 34 56
               0BFF   33 55 31 54
               0C03   82 82 81 81
               0C07   80 80 7F 7F
               0C0B   7E 7E 7D 7D
               0C0F   7C 7C 7B 7B
               0C13   7B 7B 7A 7A
     74        0C17   79 79 78 78          FCB $79,$79,$78,$78,$77,$77,$76,$76,$75,$75,$74,$74,$73,$73,$72,$72,$71,$71,$70,$70,$6f,$6f,$6e,$6e,$6e,$6e,$6d,$6d,$6c,$6c,$6b,$6b,$6a,$6a,$69,$69,$68,$68,$67,$67
               0C1B   77 77 76 76
               0C1F   75 75 74 74
               0C23   73 73 72 72
               0C27   71 71 70 70
               0C2B   6F 6F 6E 6E
               0C2F   6E 6E 6D 6D
               0C33   6C 6C 6B 6B
               0C37   6A 6A 69 69
               0C3B   68 68 67 67
     75        0C3F   66 66 65 65          FCB $66,$66,$65,$65,$64,$64,$63,$63,$62,$62,$61,$61,$60,$60,$60,$60,$5f,$5f,$5e,$5e,$5d,$5d,$5c,$5c,$5b,$5b,$5a,$5a,$59,$59,$58,$58,$57,$57,$56,$56,$55,$55,$54,$54
               0C43   64 64 63 63
               0C47   62 62 61 61
               0C4B   60 60 60 60
               0C4F   5F 5F 5E 5E
               0C53   5D 5D 5C 5C
               0C57   5B 5B 5A 5A
               0C5B   59 59 58 58
               0C5F   57 57 56 56
               0C63   55 55 54 54
     76        0C67   82 8C 81 8C          FCB $82,$8c,$81,$8c,$80,$8b,$7f,$8b,$7e,$8b,$7d,$8a,$7c,$8a,$7b,$8a,$7b,$89,$7a,$89,$79,$89,$78,$88,$77,$88,$76,$88,$75,$87,$74,$87,$73,$87,$72,$86,$71,$86,$70,$86
               0C6B   80 8B 7F 8B
               0C6F   7E 8B 7D 8A
               0C73   7C 8A 7B 8A
               0C77   7B 89 7A 89
               0C7B   79 89 78 88
               0C7F   77 88 76 88
               0C83   75 87 74 87
               0C87   73 87 72 86
               0C8B   71 86 70 86
     77        0C8F   6F 85 6E 85          FCB $6f,$85,$6e,$85,$6e,$85,$6d,$84,$6c,$84,$6b,$84,$6a,$83,$69,$83,$68,$83,$67,$82,$66,$82,$65,$82,$64,$82,$63,$81,$62,$81,$61,$81,$60,$80,$60,$80,$5f,$80,$5e,$7f
               0C93   6E 85 6D 84
               0C97   6C 84 6B 84
               0C9B   6A 83 69 83
               0C9F   68 83 67 82
               0CA3   66 82 65 82
               0CA7   64 82 63 81
               0CAB   62 81 61 81
               0CAF   60 80 60 80
               0CB3   5F 80 5E 7F
     78        0CB7   5D 7F 5C 7F          FCB $5d,$7f,$5c,$7f,$5b,$7e,$5a,$7e,$59,$7e,$58,$7d,$57,$7d,$56,$7d,$55,$7c,$54,$7c,$8c,$97,$8c,$97,$8b,$98,$8b,$98,$8b,$98,$8a,$98,$8a,$99,$8a,$99,$89,$99,$89,$99
               0CBB   5B 7E 5A 7E
               0CBF   59 7E 58 7D
               0CC3   57 7D 56 7D
               0CC7   55 7C 54 7C
               0CCB   8C 97 8C 97
               0CCF   8B 98 8B 98
               0CD3   8B 98 8A 98
               0CD7   8A 99 8A 99
               0CDB   89 99 89 99
     79        0CDF   89 9A 88 9A          FCB $89,$9a,$88,$9a,$88,$9a,$88,$9b,$87,$9b,$87,$9b,$87,$9b,$86,$9c,$86,$9c,$86,$9c,$85,$9d,$85,$9d,$85,$9d,$84,$9d,$84,$9e,$84,$9e,$83,$9e,$83,$9e,$83,$9f,$82,$9f
               0CE3   88 9A 88 9B
               0CE7   87 9B 87 9B
               0CEB   87 9B 86 9C
               0CEF   86 9C 86 9C
               0CF3   85 9D 85 9D
               0CF7   85 9D 84 9D
               0CFB   84 9E 84 9E
               0CFF   83 9E 83 9E
               0D03   83 9F 82 9F
     80        0D07   82 9F 82 A0          FCB $82,$9f,$82,$a0,$82,$a0,$81,$a0,$81,$a0,$81,$a1,$80,$a1,$80,$a1,$80,$a1,$7f,$a2,$7f,$a2,$7f,$a2,$7e,$a3,$7e,$a3,$7e,$a3,$7d,$a3,$7d,$a4,$7d,$a4,$7c,$a4,$7c,$a5
               0D0B   82 A0 81 A0
               0D0F   81 A0 81 A1
               0D13   80 A1 80 A1
               0D17   80 A1 7F A2
               0D1B   7F A2 7F A2
               0D1F   7E A3 7E A3
               0D23   7E A3 7D A3
               0D27   7D A4 7D A4
               0D2B   7C A4 7C A5
     81        0D2F   97 97 97 97          FCB $97,$97,$97,$97,$98,$98,$98,$98,$98,$98,$98,$98,$99,$99,$99,$99,$99,$99,$99,$99,$9a,$9a,$9a,$9a,$9a,$9a,$9b,$9b,$9b,$9b,$9b,$9b,$9b,$9b,$9c,$9c,$9c,$9c,$9c,$9c
               0D33   98 98 98 98
               0D37   98 98 98 98
               0D3B   99 99 99 99
               0D3F   99 99 99 99
               0D43   9A 9A 9A 9A
               0D47   9A 9A 9B 9B
               0D4B   9B 9B 9B 9B
               0D4F   9B 9B 9C 9C
               0D53   9C 9C 9C 9C
     82        0D57   9D 9D 9D 9D          FCB $9d,$9d,$9d,$9d,$9d,$9d,$9d,$9d,$9e,$9e,$9e,$9e,$9e,$9e,$9e,$9e,$9f,$9f,$9f,$9f,$9f,$9f,$a0,$a0,$a0,$a0,$a0,$a0,$a0,$a0,$a1,$a1,$a1,$a1,$a1,$a1,$a1,$a1,$a2,$a2
               0D5B   9D 9D 9D 9D
               0D5F   9E 9E 9E 9E
               0D63   9E 9E 9E 9E
               0D67   9F 9F 9F 9F
               0D6B   9F 9F A0 A0
               0D6F   A0 A0 A0 A0
               0D73   A0 A0 A1 A1
               0D77   A1 A1 A1 A1
               0D7B   A1 A1 A2 A2
     83        0D7F   A2 A2 A2 A2          FCB $a2,$a2,$a2,$a2,$a3,$a3,$a3,$a3,$a3,$a3,$a3,$a3,$a4,$a4,$a4,$a4,$a4,$a4,$a5,$a5,$97,$a6,$97,$a7,$98,$a7,$98,$a8,$98,$a9,$98,$aa,$99,$aa,$99,$ab,$99,$ac,$99,$ad
               0D83   A3 A3 A3 A3
               0D87   A3 A3 A3 A3
               0D8B   A4 A4 A4 A4
               0D8F   A4 A4 A5 A5
               0D93   97 A6 97 A7
               0D97   98 A7 98 A8
               0D9B   98 A9 98 AA
               0D9F   99 AA 99 AB
               0DA3   99 AC 99 AD
     84        0DA7   9A AD 9A AE          FCB $9a,$ad,$9a,$ae,$9a,$af,$9b,$b0,$9b,$b0,$9b,$b1,$9b,$b2,$9c,$b3,$9c,$b3,$9c,$b4,$9d,$b5,$9d,$b6,$9d,$b6,$9d,$b7,$9e,$b8,$9e,$b9,$9e,$b9,$9e,$ba,$9f,$bb,$9f,$bc
               0DAB   9A AF 9B B0
               0DAF   9B B0 9B B1
               0DB3   9B B2 9C B3
               0DB7   9C B3 9C B4
               0DBB   9D B5 9D B6
               0DBF   9D B6 9D B7
               0DC3   9E B8 9E B9
               0DC7   9E B9 9E BA
               0DCB   9F BB 9F BC
     85        0DCF   9F BC A0 BD          FCB $9f,$bc,$a0,$bd,$a0,$be,$a0,$be,$a0,$bf,$a1,$c0,$a1,$c1,$a1,$c1,$a1,$c2,$a2,$c3,$a2,$c4,$a2,$c4,$a3,$c5,$a3,$c6,$a3,$c7,$a3,$c7,$a4,$c8,$a4,$c9,$a4,$ca,$a5,$ca
               0DD3   A0 BE A0 BE
               0DD7   A0 BF A1 C0
               0DDB   A1 C1 A1 C1
               0DDF   A1 C2 A2 C3
               0DE3   A2 C4 A2 C4
               0DE7   A3 C5 A3 C6
               0DEB   A3 C7 A3 C7
               0DEF   A4 C8 A4 C9
               0DF3   A4 CA A5 CA
     86        0DF7   A6 A6 A7 A7          FCB $a6,$a6,$a7,$a7,$a7,$a7,$a8,$a8,$a9,$a9,$aa,$aa,$aa,$aa,$ab,$ab,$ac,$ac,$ad,$ad,$ad,$ad,$ae,$ae,$af,$af,$b0,$b0,$b0,$b0,$b1,$b1,$b2,$b2,$b3,$b3,$b3,$b3,$b4,$b4
               0DFB   A7 A7 A8 A8
               0DFF   A9 A9 AA AA
               0E03   AA AA AB AB
               0E07   AC AC AD AD
               0E0B   AD AD AE AE
               0E0F   AF AF B0 B0
               0E13   B0 B0 B1 B1
               0E17   B2 B2 B3 B3
               0E1B   B3 B3 B4 B4
     87        0E1F   B5 B5 B6 B6          FCB $b5,$b5,$b6,$b6,$b6,$b6,$b7,$b7,$b8,$b8,$b9,$b9,$b9,$b9,$ba,$ba,$bb,$bb,$bc,$bc,$bc,$bc,$bd,$bd,$be,$be,$be,$be,$bf,$bf,$c0,$c0,$c1,$c1,$c1,$c1,$c2,$c2,$c3,$c3
               0E23   B6 B6 B7 B7
               0E27   B8 B8 B9 B9
               0E2B   B9 B9 BA BA
               0E2F   BB BB BC BC
               0E33   BC BC BD BD
               0E37   BE BE BE BE
               0E3B   BF BF C0 C0
               0E3F   C1 C1 C1 C1
               0E43   C2 C2 C3 C3
     88        0E47   C4 C4 C4 C4          FCB $c4,$c4,$c4,$c4,$c5,$c5,$c6,$c6,$c7,$c7,$c7,$c7,$c8,$c8,$c9,$c9,$ca,$ca,$ca,$ca,$a6,$a6,$a7,$a7,$a7,$a7,$a8,$a8,$a9,$a9,$aa,$aa,$aa,$aa,$ab,$ab,$ac,$ac,$ad,$ad
               0E4B   C5 C5 C6 C6
               0E4F   C7 C7 C7 C7
               0E53   C8 C8 C9 C9
               0E57   CA CA CA CA
               0E5B   A6 A6 A7 A7
               0E5F   A7 A7 A8 A8
               0E63   A9 A9 AA AA
               0E67   AA AA AB AB
               0E6B   AC AC AD AD
     89        0E6F   AD AD AE AE          FCB $ad,$ad,$ae,$ae,$af,$af,$b0,$b0,$b0,$b0,$b1,$b1,$b2,$b2,$b3,$b3,$b3,$b3,$b4,$b4,$b5,$b5,$b6,$b6,$b6,$b6,$b7,$b7,$b8,$b8,$b9,$b9,$b9,$b9,$ba,$ba,$bb,$bb,$bc,$bc
               0E73   AF AF B0 B0
               0E77   B0 B0 B1 B1
               0E7B   B2 B2 B3 B3
               0E7F   B3 B3 B4 B4
               0E83   B5 B5 B6 B6
               0E87   B6 B6 B7 B7
               0E8B   B8 B8 B9 B9
               0E8F   B9 B9 BA BA
               0E93   BB BB BC BC
     90        0E97   BC BC BD BD          FCB $bc,$bc,$bd,$bd,$be,$be,$be,$be,$bf,$bf,$c0,$c0,$c1,$c1,$c1,$c1,$c2,$c2,$c3,$c3,$c4,$c4,$c4,$c4,$c5,$c5,$c6,$c6,$c7,$c7,$c7,$c7,$c8,$c8,$c9,$c9,$ca,$ca,$ca,$ca
               0E9B   BE BE BE BE
               0E9F   BF BF C0 C0
               0EA3   C1 C1 C1 C1
               0EA7   C2 C2 C3 C3
               0EAB   C4 C4 C4 C4
               0EAF   C5 C5 C6 C6
               0EB3   C7 C7 C7 C7
               0EB7   C8 C8 C9 C9
               0EBB   CA CA CA CA
     91        0EBF   A6 96 A7 96          FCB $a6,$96,$a7,$96,$a7,$97,$a8,$97,$a9,$97,$aa,$97,$aa,$98,$ab,$98,$ac,$98,$ad,$99,$ad,$99,$ae,$99,$af,$9a,$b0,$9a,$b0,$9a,$b1,$9a,$b2,$9b,$b3,$9b,$b3,$9b,$b4,$9c
               0EC3   A7 97 A8 97
               0EC7   A9 97 AA 97
               0ECB   AA 98 AB 98
               0ECF   AC 98 AD 99
               0ED3   AD 99 AE 99
               0ED7   AF 9A B0 9A
               0EDB   B0 9A B1 9A
               0EDF   B2 9B B3 9B
               0EE3   B3 9B B4 9C
     92        0EE7   B5 9C B6 9C          FCB $b5,$9c,$b6,$9c,$b6,$9c,$b7,$9d,$b8,$9d,$b9,$9d,$b9,$9e,$ba,$9e,$bb,$9e,$bc,$9e,$bc,$9f,$bd,$9f,$be,$9f,$be,$a0,$bf,$a0,$c0,$a0,$c1,$a1,$c1,$a1,$c2,$a1,$c3,$a1
               0EEB   B6 9C B7 9D
               0EEF   B8 9D B9 9D
               0EF3   B9 9E BA 9E
               0EF7   BB 9E BC 9E
               0EFB   BC 9F BD 9F
               0EFF   BE 9F BE A0
               0F03   BF A0 C0 A0
               0F07   C1 A1 C1 A1
               0F0B   C2 A1 C3 A1
     93        0F0F   C4 A2 C4 A2          FCB $c4,$a2,$c4,$a2,$c5,$a2,$c6,$a3,$c7,$a3,$c7,$a3,$c8,$a3,$c9,$a4,$ca,$a4,$ca,$a4,$96,$96,$96,$96,$97,$97,$97,$97,$97,$97,$97,$97,$98,$98,$98,$98,$98,$98,$99,$99
               0F13   C5 A2 C6 A3
               0F17   C7 A3 C7 A3
               0F1B   C8 A3 C9 A4
               0F1F   CA A4 CA A4
               0F23   96 96 96 96
               0F27   97 97 97 97
               0F2B   97 97 97 97
               0F2F   98 98 98 98
               0F33   98 98 99 99
     94        0F37   99 99 99 99          FCB $99,$99,$99,$99,$9a,$9a,$9a,$9a,$9a,$9a,$9a,$9a,$9b,$9b,$9b,$9b,$9b,$9b,$9c,$9c,$9c,$9c,$9c,$9c,$9c,$9c,$9d,$9d,$9d,$9d,$9d,$9d,$9e,$9e,$9e,$9e,$9e,$9e,$9e,$9e
               0F3B   9A 9A 9A 9A
               0F3F   9A 9A 9A 9A
               0F43   9B 9B 9B 9B
               0F47   9B 9B 9C 9C
               0F4B   9C 9C 9C 9C
               0F4F   9C 9C 9D 9D
               0F53   9D 9D 9D 9D
               0F57   9E 9E 9E 9E
               0F5B   9E 9E 9E 9E
     95        0F5F   9F 9F 9F 9F          FCB $9f,$9f,$9f,$9f,$9f,$9f,$a0,$a0,$a0,$a0,$a0,$a0,$a1,$a1,$a1,$a1,$a1,$a1,$a1,$a1,$a2,$a2,$a2,$a2,$a2,$a2,$a3,$a3,$a3,$a3,$a3,$a3,$a3,$a3,$a4,$a4,$a4,$a4,$a4,$a4
               0F63   9F 9F A0 A0
               0F67   A0 A0 A0 A0
               0F6B   A1 A1 A1 A1
               0F6F   A1 A1 A1 A1
               0F73   A2 A2 A2 A2
               0F77   A2 A2 A3 A3
               0F7B   A3 A3 A3 A3
               0F7F   A3 A3 A4 A4
               0F83   A4 A4 A4 A4
     96        0F87   96 8B 96 8B          FCB $96,$8b,$96,$8b,$97,$8b,$97,$8b,$97,$8a,$97,$8a,$98,$8a,$98,$8a,$98,$8a,$99,$8a,$99,$89,$99,$89,$9a,$89,$9a,$89,$9a,$89,$9a,$89,$9b,$89,$9b,$88,$9b,$88,$9c,$88
               0F8B   97 8B 97 8B
               0F8F   97 8A 97 8A
               0F93   98 8A 98 8A
               0F97   98 8A 99 8A
               0F9B   99 89 99 89
               0F9F   9A 89 9A 89
               0FA3   9A 89 9A 89
               0FA7   9B 89 9B 88
               0FAB   9B 88 9C 88
     97        0FAF   9C 88 9C 88          FCB $9c,$88,$9c,$88,$9c,$88,$9d,$87,$9d,$87,$9d,$87,$9e,$87,$9e,$87,$9e,$87,$9e,$86,$9f,$86,$9f,$86,$9f,$86,$a0,$86,$a0,$86,$a0,$86,$a1,$85,$a1,$85,$a1,$85,$a1,$85
               0FB3   9C 88 9D 87
               0FB7   9D 87 9D 87
               0FBB   9E 87 9E 87
               0FBF   9E 87 9E 86
               0FC3   9F 86 9F 86
               0FC7   9F 86 A0 86
               0FCB   A0 86 A0 86
               0FCF   A1 85 A1 85
               0FD3   A1 85 A1 85
     98        0FD7   A2 85 A2 85          FCB $a2,$85,$a2,$85,$a2,$84,$a3,$84,$a3,$84,$a3,$84,$a3,$84,$a4,$84,$a4,$84,$a4,$83,$8b,$80,$8b,$7f,$8b,$7e,$8b,$7d,$8a,$7c,$8a,$7b,$8a,$7a,$8a,$79,$8a,$79,$8a,$78
               0FDB   A2 84 A3 84
               0FDF   A3 84 A3 84
               0FE3   A3 84 A4 84
               0FE7   A4 84 A4 83
               0FEB   8B 80 8B 7F
               0FEF   8B 7E 8B 7D
               0FF3   8A 7C 8A 7B
               0FF7   8A 7A 8A 79
               0FFB   8A 79 8A 78
     99        0FFF   89 77 89 76          FCB $89,$77,$89,$76,$89,$75,$89,$74,$89,$73,$89,$72,$89,$71,$88,$70,$88,$6f,$88,$6e,$88,$6d,$88,$6c,$88,$6c,$87,$6b,$87,$6a,$87,$69,$87,$68,$87,$67,$87,$66,$86,$65
               1003   89 75 89 74
               1007   89 73 89 72
               100B   89 71 88 70
               100F   88 6F 88 6E
               1013   88 6D 88 6C
               1017   88 6C 87 6B
               101B   87 6A 87 69
               101F   87 68 87 67
               1023   87 66 86 65
    100        1027   86 64 86 63          FCB $86,$64,$86,$63,$86,$62,$86,$61,$86,$60,$86,$5f,$85,$5e,$85,$5e,$85,$5d,$85,$5c,$85,$5b,$85,$5a,$84,$59,$84,$58,$84,$57,$84,$56,$84,$55,$84,$54,$84,$53,$83,$52
               102B   86 62 86 61
               102F   86 60 86 5F
               1033   85 5E 85 5E
               1037   85 5D 85 5C
               103B   85 5B 85 5A
               103F   84 59 84 58
               1043   84 57 84 56
               1047   84 55 84 54
               104B   84 53 83 52
    101        104F                    LINE_ENEMY_DX
    102        104F   07 16 08 16          FCB $7,$16,$8,$16,$9,$18,$9,$18,$a,$19,$a,$19,$c,$1a,$c,$1b,$c,$1b,$d,$1c,$e,$1d,$f,$1d,$f,$1e,$f,$1e,$11,$20,$11,$20,$12,$20,$12,$21,$13,$22,$14,$23
               1053   09 18 09 18
               1057   0A 19 0A 19
               105B   0C 1A 0C 1B
               105F   0C 1B 0D 1C
               1063   0E 1D 0F 1D
               1067   0F 1E 0F 1E
               106B   11 20 11 20
               106F   12 20 12 21
               1073   13 22 14 23
    103        1077   14 23 15 24          FCB $14,$23,$15,$24,$16,$25,$16,$25,$17,$26,$17,$27,$18,$27,$19,$28,$19,$28,$1b,$2a,$1b,$2a,$1b,$2a,$1c,$2b,$1d,$2c,$1e,$2c,$1e,$2d,$1e,$2d,$20,$2f,$20,$2f,$21,$2f
               107B   16 25 16 25
               107F   17 26 17 27
               1083   18 27 19 28
               1087   19 28 1B 2A
               108B   1B 2A 1B 2A
               108F   1C 2B 1D 2C
               1093   1E 2C 1E 2D
               1097   1E 2D 20 2F
               109B   20 2F 21 2F
    104        109F   21 30 22 31          FCB $21,$30,$22,$31,$23,$32,$23,$32,$24,$32,$25,$34,$25,$34,$26,$35,$26,$35,$28,$36,$5,$5,$4,$4,$5,$5,$5,$5,$5,$5,$5,$5,$4,$4,$5,$5,$5,$5,$5,$5
               10A3   23 32 23 32
               10A7   24 32 25 34
               10AB   25 34 26 35
               10AF   26 35 28 36
               10B3   05 05 04 04
               10B7   05 05 05 05
               10BB   05 05 05 05
               10BF   04 04 05 05
               10C3   05 05 05 05
    105        10C7   05 05 04 04          FCB $5,$5,$4,$4,$5,$5,$5,$5,$5,$5,$5,$5,$4,$4,$5,$5,$5,$5,$5,$5,$5,$5,$4,$4,$5,$5,$5,$5,$5,$5,$5,$5,$5,$5,$5,$5,$5,$5,$5,$5
               10CB   05 05 05 05
               10CF   05 05 05 05
               10D3   04 04 05 05
               10D7   05 05 05 05
               10DB   05 05 04 04
               10DF   05 05 05 05
               10E3   05 05 05 05
               10E7   05 05 05 05
               10EB   05 05 05 05
    106        10EF   05 05 05 05          FCB $5,$5,$5,$5,$5,$5,$5,$5,$4,$4,$5,$5,$5,$5,$5,$5,$5,$5,$4,$4,$5,$5,$5,$5,$5,$5,$5,$5,$4,$4,$5,$5,$5,$5,$5,$5,$5,$5,$4,$4
               10F3   05 05 05 05
               10F7   04 04 05 05
               10FB   05 05 05 05
               10FF   05 05 04 04
               1103   05 05 05 05
               1107   05 05 05 05
               110B   04 04 05 05
               110F   05 05 05 05
               1113   05 05 04 04
    107        1117   0B 11 0C 11          FCB $b,$11,$c,$11,$c,$12,$d,$13,$d,$13,$e,$14,$f,$14,$f,$15,$10,$15,$10,$15,$11,$16,$12,$16,$12,$17,$13,$18,$12,$18,$13,$19,$14,$19,$14,$1a,$15,$1b,$15,$1b
               111B   0C 12 0D 13
               111F   0D 13 0E 14
               1123   0F 14 0F 15
               1127   10 15 10 15
               112B   11 16 12 16
               112F   12 17 13 18
               1133   12 18 13 19
               1137   14 19 14 1A
               113B   15 1B 15 1B
    108        113F   16 1C 17 1C          FCB $16,$1c,$17,$1c,$17,$1c,$18,$1d,$18,$1d,$19,$1e,$1a,$1f,$1a,$1f,$1b,$20,$1a,$20,$1b,$21,$1c,$22,$1c,$22,$1d,$23,$1e,$23,$1e,$24,$1f,$25,$1f,$24,$20,$25,$21,$25
               1143   17 1C 18 1D
               1147   18 1D 19 1E
               114B   1A 1F 1A 1F
               114F   1B 20 1A 20
               1153   1B 21 1C 22
               1157   1C 22 1D 23
               115B   1E 23 1E 24
               115F   1F 25 1F 24
               1163   20 25 21 25
    109        1167   21 26 22 27          FCB $21,$26,$22,$27,$22,$27,$22,$28,$23,$28,$23,$29,$24,$2a,$24,$2a,$25,$2b,$26,$2b,$f,$d,$10,$d,$10,$e,$11,$e,$11,$f,$11,$f,$12,$f,$12,$10,$14,$10,$14,$11
               116B   22 27 22 28
               116F   23 28 23 29
               1173   24 2A 24 2A
               1177   25 2B 26 2B
               117B   0F 0D 10 0D
               117F   10 0E 11 0E
               1183   11 0F 11 0F
               1187   12 0F 12 10
               118B   14 10 14 11
    110        118F   14 11 15 12          FCB $14,$11,$15,$12,$15,$12,$16,$12,$16,$14,$17,$14,$17,$15,$17,$15,$18,$15,$18,$16,$19,$16,$19,$17,$1a,$17,$1b,$18,$1b,$18,$1c,$18,$1c,$19,$1c,$19,$1d,$1a,$1d,$1b
               1193   15 12 16 12
               1197   16 14 17 14
               119B   17 15 17 15
               119F   18 15 18 16
               11A3   19 16 19 17
               11A7   1A 17 1B 18
               11AB   1B 18 1C 18
               11AF   1C 19 1C 19
               11B3   1D 1A 1D 1B
    111        11B7   1E 1B 1E 1C          FCB $1e,$1b,$1e,$1c,$1f,$1c,$1f,$1d,$1f,$1d,$20,$1d,$20,$1e,$22,$1e,$22,$1f,$22,$1f,$23,$20,$23,$20,$24,$20,$24,$22,$25,$22,$25,$23,$25,$23,$26,$23,$26,$24,$27,$24
               11BB   1F 1C 1F 1D
               11BF   1F 1D 20 1D
               11C3   20 1E 22 1E
               11C7   22 1F 22 1F
               11CB   23 20 23 20
               11CF   24 20 24 22
               11D3   25 22 25 23
               11D7   25 23 26 23
               11DB   26 24 27 24
    112        11DF   03 03 04 04          FCB $3,$3,$4,$4,$3,$3,$4,$4,$3,$3,$3,$3,$4,$4,$3,$3,$4,$4,$3,$3,$3,$3,$3,$3,$3,$3,$4,$4,$3,$3,$4,$4,$3,$3,$3,$3,$4,$4,$3,$3
               11E3   03 03 04 04
               11E7   03 03 03 03
               11EB   04 04 03 03
               11EF   04 04 03 03
               11F3   03 03 03 03
               11F7   03 03 04 04
               11FB   03 03 04 04
               11FF   03 03 03 03
               1203   04 04 03 03
    113        1207   04 04 03 03          FCB $4,$4,$3,$3,$3,$3,$3,$3,$3,$3,$4,$4,$3,$3,$3,$3,$3,$3,$3,$3,$4,$4,$3,$3,$4,$4,$3,$3,$3,$3,$4,$4,$3,$3,$4,$4,$3,$3,$3,$3
               120B   03 03 03 03
               120F   03 03 04 04
               1213   03 03 03 03
               1217   03 03 03 03
               121B   04 04 03 03
               121F   04 04 03 03
               1223   03 03 04 04
               1227   03 03 04 04
               122B   03 03 03 03
    114        122F   03 03 03 03          FCB $3,$3,$3,$3,$4,$4,$3,$3,$4,$4,$3,$3,$3,$3,$4,$4,$3,$3,$4,$4,$14,$9,$15,$9,$15,$a,$16,$a,$16,$b,$17,$c,$18,$c,$18,$d,$19,$d,$19,$e
               1233   04 04 03 03
               1237   04 04 03 03
               123B   03 03 04 04
               123F   03 03 04 04
               1243   14 09 15 09
               1247   15 0A 16 0A
               124B   16 0B 17 0C
               124F   18 0C 18 0D
               1253   19 0D 19 0E
    115        1257   1A 0F 1A 0F          FCB $1a,$f,$1a,$f,$1b,$10,$1c,$10,$1c,$11,$1d,$11,$1d,$12,$1e,$13,$1f,$13,$1f,$14,$20,$14,$20,$15,$22,$16,$22,$16,$23,$17,$24,$17,$24,$18,$25,$19,$25,$19,$26,$1a
               125B   1B 10 1C 10
               125F   1C 11 1D 11
               1263   1D 12 1E 13
               1267   1F 13 1F 14
               126B   20 14 20 15
               126F   22 16 22 16
               1273   23 17 24 17
               1277   24 18 25 19
               127B   25 19 26 1A
    116        127F   27 1B 27 1C          FCB $27,$1b,$27,$1c,$28,$1c,$28,$1d,$29,$1e,$2a,$1e,$2a,$1f,$2b,$1f,$2b,$20,$2c,$21,$2c,$21,$2d,$22,$2e,$22,$2e,$23,$2f,$23,$2f,$24,$30,$25,$31,$25,$31,$26,$32,$26
               1283   28 1C 28 1D
               1287   29 1E 2A 1E
               128B   2A 1F 2B 1F
               128F   2B 20 2C 21
               1293   2C 21 2D 22
               1297   2E 22 2E 23
               129B   2F 23 2F 24
               129F   30 25 31 25
               12A3   31 26 32 26
    117        12A7   08 08 08 08          FCB $8,$8,$8,$8,$8,$8,$8,$8,$8,$8,$8,$8,$8,$8,$8,$8,$8,$8,$8,$8,$8,$8,$8,$8,$8,$8,$8,$8,$8,$8,$8,$8,$8,$8,$8,$8,$8,$8,$8,$8
               12AB   08 08 08 08
               12AF   08 08 08 08
               12B3   08 08 08 08
               12B7   08 08 08 08
               12BB   08 08 08 08
               12BF   08 08 08 08
               12C3   08 08 08 08
               12C7   08 08 08 08
               12CB   08 08 08 08
    118        12CF   08 08 08 08          FCB $8,$8,$8,$8,$9,$9,$9,$9,$9,$9,$9,$9,$9,$9,$9,$9,$9,$9,$9,$9,$8,$8,$8,$8,$8,$8,$8,$8,$8,$8,$8,$8,$8,$8,$8,$8,$8,$8,$8,$8
               12D3   09 09 09 09
               12D7   09 09 09 09
               12DB   09 09 09 09
               12DF   09 09 09 09
               12E3   08 08 08 08
               12E7   08 08 08 08
               12EB   08 08 08 08
               12EF   08 08 08 08
               12F3   08 08 08 08
    119        12F7   08 08 08 08          FCB $8,$8,$8,$8,$8,$8,$8,$8,$8,$8,$8,$8,$8,$8,$8,$8,$8,$8,$8,$8,$8,$8,$8,$8,$8,$8,$8,$8,$8,$8,$8,$8,$8,$8,$8,$8,$8,$8,$8,$8
               12FB   08 08 08 08
               12FF   08 08 08 08
               1303   08 08 08 08
               1307   08 08 08 08
               130B   08 08 08 08
               130F   08 08 08 08
               1313   08 08 08 08
               1317   08 08 08 08
               131B   08 08 08 08
    120        131F   08 08 08 08          FCB $8,$8,$8,$8,$8,$8,$8,$8,$8,$8,$8,$8,$8,$8,$8,$8,$8,$8,$8,$8,$8,$8,$8,$8,$9,$9,$9,$9,$9,$9,$9,$9,$9,$9,$9,$9,$9,$9,$9,$9
               1323   08 08 08 08
               1327   08 08 08 08
               132B   08 08 08 08
               132F   08 08 08 08
               1333   08 08 08 08
               1337   09 09 09 09
               133B   09 09 09 09
               133F   09 09 09 09
               1343   09 09 09 09
    121        1347   08 08 08 08          FCB $8,$8,$8,$8,$8,$8,$8,$8,$8,$8,$8,$8,$8,$8,$8,$8,$8,$8,$8,$8,$8,$8,$8,$8,$8,$8,$8,$8,$8,$8,$8,$8,$8,$8,$8,$8,$8,$8,$8,$8
               134B   08 08 08 08
               134F   08 08 08 08
               1353   08 08 08 08
               1357   08 08 08 08
               135B   08 08 08 08
               135F   08 08 08 08
               1363   08 08 08 08
               1367   08 08 08 08
               136B   08 08 08 08
    122        136F   09 14 09 15          FCB $9,$14,$9,$15,$a,$15,$a,$16,$b,$16,$c,$17,$c,$18,$d,$18,$d,$19,$e,$19,$f,$1a,$f,$1a,$10,$1b,$10,$1c,$11,$1c,$11,$1d,$12,$1d,$13,$1e,$13,$1f,$14,$1f
               1373   0A 15 0A 16
               1377   0B 16 0C 17
               137B   0C 18 0D 18
               137F   0D 19 0E 19
               1383   0F 1A 0F 1A
               1387   10 1B 10 1C
               138B   11 1C 11 1D
               138F   12 1D 13 1E
               1393   13 1F 14 1F
    123        1397   14 20 15 20          FCB $14,$20,$15,$20,$16,$22,$16,$22,$17,$23,$17,$24,$18,$24,$19,$25,$19,$25,$1a,$26,$1b,$27,$1c,$27,$1c,$28,$1d,$28,$1e,$29,$1e,$2a,$1f,$2a,$1f,$2b,$20,$2b,$21,$2c
               139B   16 22 16 22
               139F   17 23 17 24
               13A3   18 24 19 25
               13A7   19 25 1A 26
               13AB   1B 27 1C 27
               13AF   1C 28 1D 28
               13B3   1E 29 1E 2A
               13B7   1F 2A 1F 2B
               13BB   20 2B 21 2C
    124        13BF   21 2C 22 2D          FCB $21,$2c,$22,$2d,$22,$2e,$23,$2e,$23,$2f,$24,$2f,$25,$30,$25,$31,$26,$31,$26,$32,$3,$3,$4,$4,$3,$3,$4,$4,$3,$3,$3,$3,$4,$4,$3,$3,$4,$4,$3,$3
               13C3   22 2E 23 2E
               13C7   23 2F 24 2F
               13CB   25 30 25 31
               13CF   26 31 26 32
               13D3   03 03 04 04
               13D7   03 03 04 04
               13DB   03 03 03 03
               13DF   04 04 03 03
               13E3   04 04 03 03
    125        13E7   03 03 03 03          FCB $3,$3,$3,$3,$3,$3,$4,$4,$3,$3,$4,$4,$3,$3,$3,$3,$4,$4,$3,$3,$4,$4,$3,$3,$3,$3,$3,$3,$3,$3,$4,$4,$3,$3,$3,$3,$3,$3,$3,$3
               13EB   03 03 04 04
               13EF   03 03 04 04
               13F3   03 03 03 03
               13F7   04 04 03 03
               13FB   04 04 03 03
               13FF   03 03 03 03
               1403   03 03 04 04
               1407   03 03 03 03
               140B   03 03 03 03
    126        140F   04 04 03 03          FCB $4,$4,$3,$3,$4,$4,$3,$3,$3,$3,$4,$4,$3,$3,$4,$4,$3,$3,$3,$3,$3,$3,$3,$3,$4,$4,$3,$3,$4,$4,$3,$3,$3,$3,$4,$4,$3,$3,$4,$4
               1413   04 04 03 03
               1417   03 03 04 04
               141B   03 03 04 04
               141F   03 03 03 03
               1423   03 03 03 03
               1427   04 04 03 03
               142B   04 04 03 03
               142F   03 03 04 04
               1433   03 03 04 04
    127        1437   0D 10 0D 11          FCB $d,$10,$d,$11,$f,$11,$f,$12,$10,$12,$10,$12,$10,$13,$11,$13,$11,$14,$12,$14,$12,$15,$13,$16,$13,$16,$13,$17,$14,$17,$14,$18,$15,$18,$15,$18,$15,$19,$16,$19
               143B   0F 11 0F 12
               143F   10 12 10 12
               1443   10 13 11 13
               1447   11 14 12 14
               144B   12 15 13 16
               144F   13 16 13 17
               1453   14 17 14 18
               1457   15 18 15 18
               145B   15 19 16 19
    128        145F   16 1A 18 1A          FCB $16,$1a,$18,$1a,$18,$1a,$19,$1b,$19,$1b,$19,$1c,$1a,$1c,$1a,$1c,$1b,$1d,$1b,$1e,$1b,$1f,$1c,$1f,$1c,$20,$1d,$20,$1d,$20,$1d,$21,$1e,$21,$1e,$22,$1f,$22,$1f,$22
               1463   18 1A 19 1B
               1467   19 1B 19 1C
               146B   1A 1C 1A 1C
               146F   1B 1D 1B 1E
               1473   1B 1F 1C 1F
               1477   1C 20 1D 20
               147B   1D 20 1D 21
               147F   1E 21 1E 22
               1483   1F 22 1F 22
    129        1487   20 23 21 23          FCB $20,$23,$21,$23,$21,$24,$22,$24,$22,$25,$23,$25,$23,$25,$23,$26,$24,$26,$24,$28,$11,$c,$11,$d,$12,$c,$13,$d,$13,$d,$14,$e,$14,$f,$15,$f,$16,$10,$16,$10
               148B   21 24 22 24
               148F   22 25 23 25
               1493   23 25 23 26
               1497   24 26 24 28
               149B   11 0C 11 0D
               149F   12 0C 13 0D
               14A3   13 0D 14 0E
               14A7   14 0F 15 0F
               14AB   16 10 16 10
    130        14AF   16 11 16 12          FCB $16,$11,$16,$12,$17,$12,$18,$13,$18,$13,$19,$14,$19,$15,$1a,$15,$1b,$16,$1b,$16,$1c,$17,$1d,$17,$1d,$17,$1e,$18,$1e,$18,$1f,$19,$20,$1a,$20,$1a,$21,$1b,$20,$1c
               14B3   17 12 18 13
               14B7   18 13 19 14
               14BB   19 15 1A 15
               14BF   1B 16 1B 16
               14C3   1C 17 1D 17
               14C7   1D 17 1E 18
               14CB   1E 18 1F 19
               14CF   20 1A 20 1A
               14D3   21 1B 20 1C
    131        14D7   21 1C 22 1D          FCB $21,$1c,$22,$1d,$22,$1d,$23,$1e,$23,$1f,$24,$1f,$25,$20,$25,$20,$26,$21,$26,$22,$27,$22,$28,$22,$28,$22,$29,$23,$29,$24,$2a,$24,$2b,$25,$2b,$25,$2c,$26,$2b,$27
               14DB   22 1D 23 1E
               14DF   23 1F 24 1F
               14E3   25 20 25 20
               14E7   26 21 26 22
               14EB   27 22 28 22
               14EF   28 22 29 23
               14F3   29 24 2A 24
               14F7   2B 25 2B 25
               14FB   2C 26 2B 27
    132        14FF   05 05 04 04          FCB $5,$5,$4,$4,$5,$5,$5,$5,$5,$5,$5,$5,$4,$4,$5,$5,$5,$5,$5,$5,$5,$5,$4,$4,$5,$5,$5,$5,$5,$5,$5,$5,$4,$4,$5,$5,$5,$5,$5,$5
               1503   05 05 05 05
               1507   05 05 05 05
               150B   04 04 05 05
               150F   05 05 05 05
               1513   05 05 04 04
               1517   05 05 05 05
               151B   05 05 05 05
               151F   04 04 05 05
               1523   05 05 05 05
    133        1527   05 05 05 05          FCB $5,$5,$5,$5,$5,$5,$5,$5,$5,$5,$5,$5,$5,$5,$5,$5,$5,$5,$4,$4,$5,$5,$5,$5,$5,$5,$5,$5,$4,$4,$5,$5,$5,$5,$5,$5,$5,$5,$4,$4
               152B   05 05 05 05
               152F   05 05 05 05
               1533   05 05 05 05
               1537   05 05 04 04
               153B   05 05 05 05
               153F   05 05 05 05
               1543   04 04 05 05
               1547   05 05 05 05
               154B   05 05 04 04
    134        154F   05 05 05 05          FCB $5,$5,$5,$5,$5,$5,$5,$5,$4,$4,$5,$5,$5,$5,$5,$5,$5,$5,$4,$4,$15,$6,$15,$7,$17,$8,$17,$8,$18,$9,$18,$9,$19,$b,$1a,$b,$1a,$b,$1b,$c
               1553   05 05 05 05
               1557   04 04 05 05
               155B   05 05 05 05
               155F   05 05 04 04
               1563   15 06 15 07
               1567   17 08 17 08
               156B   18 09 18 09
               156F   19 0B 1A 0B
               1573   1A 0B 1B 0C
    135        1577   1C 0D 1C 0E          FCB $1c,$d,$1c,$e,$1d,$e,$1d,$e,$1f,$10,$1f,$10,$1f,$11,$20,$11,$21,$12,$22,$13,$22,$13,$23,$13,$24,$15,$24,$15,$25,$16,$26,$16,$26,$17,$27,$18,$27,$18,$28,$1a
               157B   1D 0E 1D 0E
               157F   1F 10 1F 10
               1583   1F 11 20 11
               1587   21 12 22 13
               158B   22 13 23 13
               158F   24 15 24 15
               1593   25 16 26 16
               1597   26 17 27 18
               159B   27 18 28 1A
    136        159F   29 1A 29 1A          FCB $29,$1a,$29,$1a,$2a,$1b,$2b,$1c,$2b,$1d,$2c,$1d,$2c,$1d,$2e,$1f,$2e,$1f,$2e,$20,$2f,$20,$30,$21,$31,$22,$31,$22,$31,$23,$33,$24,$33,$24,$34,$25,$34,$25,$35,$27
               15A3   2A 1B 2B 1C
               15A7   2B 1D 2C 1D
               15AB   2C 1D 2E 1F
               15AF   2E 1F 2E 20
               15B3   2F 20 30 21
               15B7   31 22 31 22
               15BB   31 23 33 24
               15BF   33 24 34 25
               15C3   34 25 35 27
    137        15C7   0A 0A 0A 0A          FCB $a,$a,$a,$a,$a,$a,$a,$a,$a,$a,$a,$a,$a,$a,$a,$a,$a,$a,$a,$a,$a,$a,$a,$a,$a,$a,$a,$a,$a,$a,$a,$a,$a,$a,$a,$a,$a,$a,$a,$a
               15CB   0A 0A 0A 0A
               15CF   0A 0A 0A 0A
               15D3   0A 0A 0A 0A
               15D7   0A 0A 0A 0A
               15DB   0A 0A 0A 0A
               15DF   0A 0A 0A 0A
               15E3   0A 0A 0A 0A
               15E7   0A 0A 0A 0A
               15EB   0A 0A 0A 0A
    138        15EF   0A 0A 0B 0B          FCB $a,$a,$b,$b,$a,$a,$a,$a,$a,$a,$b,$b,$a,$a,$a,$a,$a,$a,$a,$a,$a,$a,$a,$a,$a,$a,$a,$a,$a,$a,$a,$a,$a,$a,$a,$a,$a,$a,$a,$a
               15F3   0A 0A 0A 0A
               15F7   0A 0A 0B 0B
               15FB   0A 0A 0A 0A
               15FF   0A 0A 0A 0A
               1603   0A 0A 0A 0A
               1607   0A 0A 0A 0A
               160B   0A 0A 0A 0A
               160F   0A 0A 0A 0A
               1613   0A 0A 0A 0A
    139        1617   0A 0A 0A 0A          FCB $a,$a,$a,$a,$a,$a,$a,$a,$a,$a,$a,$a,$a,$a,$a,$a,$a,$a,$a,$a,$a,$a,$a,$a,$a,$a,$a,$a,$a,$a,$a,$a,$a,$a,$a,$a,$a,$a,$a,$a
               161B   0A 0A 0A 0A
               161F   0A 0A 0A 0A
               1623   0A 0A 0A 0A
               1627   0A 0A 0A 0A
               162B   0A 0A 0A 0A
               162F   0A 0A 0A 0A
               1633   0A 0A 0A 0A
               1637   0A 0A 0A 0A
               163B   0A 0A 0A 0A
    140        163F   0A 0A 0A 0A          FCB $a,$a,$a,$a,$a,$a,$a,$a,$a,$a,$a,$a,$a,$a,$a,$a,$a,$a,$a,$a,$a,$a,$b,$b,$a,$a,$a,$a,$a,$a,$b,$b,$a,$a,$a,$a,$a,$a,$a,$a
               1643   0A 0A 0A 0A
               1647   0A 0A 0A 0A
               164B   0A 0A 0A 0A
               164F   0A 0A 0A 0A
               1653   0A 0A 0B 0B
               1657   0A 0A 0A 0A
               165B   0A 0A 0B 0B
               165F   0A 0A 0A 0A
               1663   0A 0A 0A 0A
    141        1667   0A 0A 0A 0A          FCB $a,$a,$a,$a,$a,$a,$a,$a,$a,$a,$a,$a,$a,$a,$a,$a,$a,$a,$a,$a,$a,$a,$a,$a,$a,$a,$a,$a,$a,$a,$a,$a,$a,$a,$a,$a,$a,$a,$a,$a
               166B   0A 0A 0A 0A
               166F   0A 0A 0A 0A
               1673   0A 0A 0A 0A
               1677   0A 0A 0A 0A
               167B   0A 0A 0A 0A
               167F   0A 0A 0A 0A
               1683   0A 0A 0A 0A
               1687   0A 0A 0A 0A
               168B   0A 0A 0A 0A
    142        168F                    LINE_ENEMY_DY
    143        168F   07 07 07 07          FCB $7,$7,$7,$7,$7,$7,$7,$7,$7,$7,$7,$7,$7,$7,$7,$7,$8,$8,$8,$8,$8,$8,$8,$8,$8,$8,$8,$8,$7,$7,$7,$7,$7,$7,$7,$7,$7,$7,$7,$7
               1693   07 07 07 07
               1697   07 07 07 07
               169B   07 07 07 07
               169F   08 08 08 08
               16A3   08 08 08 08
               16A7   08 08 08 08
               16AB   07 07 07 07
               16AF   07 07 07 07
               16B3   07 07 07 07
    144        16B7   07 07 07 07          FCB $7,$7,$7,$7,$8,$8,$8,$8,$8,$8,$8,$8,$8,$8,$8,$8,$8,$8,$7,$7,$7,$7,$7,$7,$7,$7,$7,$7,$7,$7,$7,$7,$7,$7,$8,$8,$8,$8,$8,$8
               16BB   08 08 08 08
               16BF   08 08 08 08
               16C3   08 08 08 08
               16C7   08 08 07 07
               16CB   07 07 07 07
               16CF   07 07 07 07
               16D3   07 07 07 07
               16D7   07 07 08 08
               16DB   08 08 08 08
    145        16DF   08 08 08 08          FCB $8,$8,$8,$8,$8,$8,$7,$7,$7,$7,$7,$7,$7,$7,$7,$7,$7,$7,$7,$7,$16,$4,$16,$4,$17,$5,$17,$5,$18,$6,$18,$6,$18,$6,$19,$7,$1a,$7,$1a,$7
               16E3   08 08 07 07
               16E7   07 07 07 07
               16EB   07 07 07 07
               16EF   07 07 07 07
               16F3   16 04 16 04
               16F7   17 05 17 05
               16FB   18 06 18 06
               16FF   18 06 19 07
               1703   1A 07 1A 07
    146        1707   1B 08 1B 08          FCB $1b,$8,$1b,$8,$1c,$9,$1c,$9,$1c,$a,$1d,$b,$1d,$b,$1d,$b,$1e,$c,$1e,$c,$1f,$d,$1f,$d,$20,$d,$21,$e,$21,$e,$22,$e,$22,$f,$22,$f,$23,$10,$23,$11
               170B   1C 09 1C 09
               170F   1C 0A 1D 0B
               1713   1D 0B 1D 0B
               1717   1E 0C 1E 0C
               171B   1F 0D 1F 0D
               171F   20 0D 21 0E
               1723   21 0E 22 0E
               1727   22 0F 22 0F
               172B   23 10 23 11
    147        172F   23 11 24 12          FCB $23,$11,$24,$12,$24,$12,$25,$13,$25,$13,$25,$13,$26,$14,$27,$14,$27,$14,$28,$15,$28,$15,$29,$16,$29,$16,$29,$17,$2a,$18,$2a,$18,$2a,$18,$2b,$19,$2b,$19,$2c,$1a
               1733   24 12 25 13
               1737   25 13 25 13
               173B   26 14 27 14
               173F   27 14 28 15
               1743   28 15 29 16
               1747   29 16 29 17
               174B   2A 18 2A 18
               174F   2A 18 2B 19
               1753   2B 19 2C 1A
    148        1757   0B 0B 0B 0B          FCB $b,$b,$b,$b,$b,$b,$b,$b,$b,$b,$b,$b,$b,$b,$b,$b,$b,$b,$b,$b,$b,$b,$b,$b,$b,$b,$b,$b,$b,$b,$b,$b,$b,$b,$b,$b,$b,$b,$b,$b
               175B   0B 0B 0B 0B
               175F   0B 0B 0B 0B
               1763   0B 0B 0B 0B
               1767   0B 0B 0B 0B
               176B   0B 0B 0B 0B
               176F   0B 0B 0B 0B
               1773   0B 0B 0B 0B
               1777   0B 0B 0B 0B
               177B   0B 0B 0B 0B
    149        177F   0B 0B 0B 0B          FCB $b,$b,$b,$b,$b,$b,$b,$b,$b,$b,$c,$c,$b,$b,$b,$b,$b,$b,$b,$b,$b,$b,$b,$b,$b,$b,$b,$b,$b,$b,$b,$b,$b,$b,$b,$b,$b,$b,$b,$b
               1783   0B 0B 0B 0B
               1787   0B 0B 0C 0C
               178B   0B 0B 0B 0B
               178F   0B 0B 0B 0B
               1793   0B 0B 0B 0B
               1797   0B 0B 0B 0B
               179B   0B 0B 0B 0B
               179F   0B 0B 0B 0B
               17A3   0B 0B 0B 0B
    150        17A7   0B 0B 0B 0B          FCB $b,$b,$b,$b,$b,$b,$b,$b,$b,$b,$b,$b,$b,$b,$b,$b,$b,$b,$b,$b,$b,$b,$b,$b,$b,$b,$b,$b,$b,$b,$b,$b,$b,$b,$b,$b,$b,$b,$b,$b
               17AB   0B 0B 0B 0B
               17AF   0B 0B 0B 0B
               17B3   0B 0B 0B 0B
               17B7   0B 0B 0B 0B
               17BB   0B 0B 0B 0B
               17BF   0B 0B 0B 0B
               17C3   0B 0B 0B 0B
               17C7   0B 0B 0B 0B
               17CB   0B 0B 0B 0B
    151        17CF   0B 0B 0B 0B          FCB $b,$b,$b,$b,$b,$b,$b,$b,$b,$b,$b,$b,$b,$b,$b,$b,$b,$b,$b,$b,$b,$b,$b,$b,$b,$b,$b,$b,$b,$b,$c,$c,$b,$b,$b,$b,$b,$b,$b,$b
               17D3   0B 0B 0B 0B
               17D7   0B 0B 0B 0B
               17DB   0B 0B 0B 0B
               17DF   0B 0B 0B 0B
               17E3   0B 0B 0B 0B
               17E7   0B 0B 0B 0B
               17EB   0B 0B 0C 0C
               17EF   0B 0B 0B 0B
               17F3   0B 0B 0B 0B
    152        17F7   0B 0B 0B 0B          FCB $b,$b,$b,$b,$b,$b,$b,$b,$b,$b,$b,$b,$b,$b,$b,$b,$b,$b,$b,$b,$b,$b,$b,$b,$b,$b,$b,$b,$b,$b,$b,$b,$b,$b,$b,$b,$b,$b,$b,$b
               17FB   0B 0B 0B 0B
               17FF   0B 0B 0B 0B
               1803   0B 0B 0B 0B
               1807   0B 0B 0B 0B
               180B   0B 0B 0B 0B
               180F   0B 0B 0B 0B
               1813   0B 0B 0B 0B
               1817   0B 0B 0B 0B
               181B   0B 0B 0B 0B
    153        181F   06 18 06 18          FCB $6,$18,$6,$18,$7,$19,$7,$19,$8,$1a,$8,$1a,$8,$1a,$9,$1b,$9,$1c,$9,$1c,$a,$1d,$a,$1d,$b,$1e,$b,$1e,$c,$1e,$d,$1f,$d,$1f,$d,$1f,$e,$20,$e,$20
               1823   07 19 07 19
               1827   08 1A 08 1A
               182B   08 1A 09 1B
               182F   09 1C 09 1C
               1833   0A 1D 0A 1D
               1837   0B 1E 0B 1E
               183B   0C 1E 0D 1F
               183F   0D 1F 0D 1F
               1843   0E 20 0E 20
    154        1847   0F 21 0F 21          FCB $f,$21,$f,$21,$f,$22,$10,$23,$10,$23,$10,$24,$11,$24,$11,$24,$12,$25,$13,$25,$13,$25,$14,$26,$14,$26,$15,$27,$15,$27,$15,$27,$16,$28,$16,$29,$16,$29,$17,$2a
               184B   0F 22 10 23
               184F   10 23 10 24
               1853   11 24 11 24
               1857   12 25 13 25
               185B   13 25 14 26
               185F   14 26 15 27
               1863   15 27 15 27
               1867   16 28 16 29
               186B   16 29 17 2A
    155        186F   17 2A 18 2B          FCB $17,$2a,$18,$2b,$18,$2b,$19,$2b,$1a,$2c,$1a,$2c,$1a,$2c,$1b,$2d,$1b,$2d,$1c,$2e,$7,$7,$7,$7,$7,$7,$7,$7,$7,$7,$7,$7,$7,$7,$7,$7,$8,$8,$8,$8
               1873   18 2B 19 2B
               1877   1A 2C 1A 2C
               187B   1A 2C 1B 2D
               187F   1B 2D 1C 2E
               1883   07 07 07 07
               1887   07 07 07 07
               188B   07 07 07 07
               188F   07 07 07 07
               1893   08 08 08 08
    156        1897   08 08 08 08          FCB $8,$8,$8,$8,$8,$8,$8,$8,$7,$7,$7,$7,$7,$7,$7,$7,$7,$7,$7,$7,$7,$7,$7,$7,$8,$8,$8,$8,$8,$8,$8,$8,$8,$8,$8,$8,$8,$8,$7,$7
               189B   08 08 08 08
               189F   07 07 07 07
               18A3   07 07 07 07
               18A7   07 07 07 07
               18AB   07 07 07 07
               18AF   08 08 08 08
               18B3   08 08 08 08
               18B7   08 08 08 08
               18BB   08 08 07 07
    157        18BF   07 07 07 07          FCB $7,$7,$7,$7,$7,$7,$7,$7,$7,$7,$7,$7,$7,$7,$8,$8,$8,$8,$8,$8,$8,$8,$8,$8,$8,$8,$7,$7,$7,$7,$7,$7,$7,$7,$7,$7,$7,$7,$7,$7
               18C3   07 07 07 07
               18C7   07 07 07 07
               18CB   07 07 08 08
               18CF   08 08 08 08
               18D3   08 08 08 08
               18D7   08 08 07 07
               18DB   07 07 07 07
               18DF   07 07 07 07
               18E3   07 07 07 07
    158        18E7   07 11 08 12          FCB $7,$11,$8,$12,$9,$12,$9,$13,$a,$14,$b,$14,$b,$15,$c,$16,$c,$16,$c,$17,$d,$18,$e,$18,$e,$19,$f,$1a,$10,$19,$10,$1a,$11,$1b,$12,$1b,$12,$1c,$13,$1d
               18EB   09 12 09 13
               18EF   0A 14 0B 14
               18F3   0B 15 0C 16
               18F7   0C 16 0C 17
               18FB   0D 18 0E 18
               18FF   0E 19 0F 1A
               1903   10 19 10 1A
               1907   11 1B 12 1B
               190B   12 1C 13 1D
    159        190F   14 1D 14 1E          FCB $14,$1d,$14,$1e,$14,$1f,$15,$1f,$16,$20,$16,$21,$17,$21,$18,$22,$18,$23,$19,$22,$1a,$23,$1a,$24,$1b,$25,$1c,$25,$1c,$26,$1d,$27,$1e,$27,$1d,$28,$1e,$29,$1f,$29
               1913   14 1F 15 1F
               1917   16 20 16 21
               191B   17 21 18 22
               191F   18 23 19 22
               1923   1A 23 1A 24
               1927   1B 25 1C 25
               192B   1C 26 1D 27
               192F   1E 27 1D 28
               1933   1E 29 1F 29
    160        1937   1F 2A 20 2B          FCB $1f,$2a,$20,$2b,$21,$2b,$21,$2b,$22,$2c,$23,$2c,$23,$2d,$24,$2e,$25,$2e,$25,$2f,$d,$e,$d,$e,$f,$f,$f,$10,$f,$10,$11,$10,$11,$12,$11,$12,$12,$12,$13,$13
               193B   21 2B 21 2B
               193F   22 2C 23 2C
               1943   23 2D 24 2E
               1947   25 2E 25 2F
               194B   0D 0E 0D 0E
               194F   0F 0F 0F 10
               1953   0F 10 11 10
               1957   11 12 11 12
               195B   12 12 13 13
    161        195F   13 14 14 14          FCB $13,$14,$14,$14,$15,$15,$15,$16,$16,$16,$16,$17,$17,$17,$18,$18,$18,$19,$18,$19,$1a,$1a,$1a,$1b,$1a,$1b,$1c,$1b,$1c,$1c,$1c,$1d,$1d,$1d,$1e,$1d,$1e,$1f,$1f,$1f
               1963   15 15 15 16
               1967   16 16 16 17
               196B   17 17 18 18
               196F   18 19 18 19
               1973   1A 1A 1A 1B
               1977   1A 1B 1C 1B
               197B   1C 1C 1C 1D
               197F   1D 1D 1E 1D
               1983   1E 1F 1F 1F
    162        1987   1F 1F 20 21          FCB $1f,$1f,$20,$21,$20,$21,$21,$21,$22,$22,$22,$23,$23,$23,$23,$24,$24,$24,$25,$25,$25,$26,$26,$26,$27,$27,$27,$28,$27,$28,$29,$28,$29,$2a,$29,$2a,$2a,$2a,$2b,$2c
               198B   20 21 21 21
               198F   22 22 22 23
               1993   23 23 23 24
               1997   24 24 25 25
               199B   25 26 26 26
               199F   27 27 27 28
               19A3   27 28 29 28
               19A7   29 2A 29 2A
               19AB   2A 2A 2B 2C
    163        19AF   02 02 02 02          FCB $2,$2,$2,$2,$2,$2,$2,$2,$2,$2,$3,$3,$2,$2,$2,$2,$2,$2,$3,$3,$2,$2,$2,$2,$3,$3,$2,$2,$2,$2,$2,$2,$3,$3,$2,$2,$2,$2,$2,$2
               19B3   02 02 02 02
               19B7   02 02 03 03
               19BB   02 02 02 02
               19BF   02 02 03 03
               19C3   02 02 02 02
               19C7   03 03 02 02
               19CB   02 02 02 02
               19CF   03 03 02 02
               19D3   02 02 02 02
    164        19D7   02 02 02 02          FCB $2,$2,$2,$2,$2,$2,$3,$3,$2,$2,$2,$2,$2,$2,$3,$3,$2,$2,$2,$2,$2,$2,$2,$2,$2,$2,$2,$2,$3,$3,$2,$2,$2,$2,$2,$2,$3,$3,$2,$2
               19DB   02 02 03 03
               19DF   02 02 02 02
               19E3   02 02 03 03
               19E7   02 02 02 02
               19EB   02 02 02 02
               19EF   02 02 02 02
               19F3   03 03 02 02
               19F7   02 02 02 02
               19FB   03 03 02 02
    165        19FF   02 02 03 03          FCB $2,$2,$3,$3,$2,$2,$2,$2,$2,$2,$3,$3,$2,$2,$2,$2,$2,$2,$2,$2,$15,$d,$16,$e,$15,$d,$16,$e,$17,$f,$18,$f,$17,$f,$18,$10,$19,$11,$1a,$11
               1A03   02 02 02 02
               1A07   02 02 03 03
               1A0B   02 02 02 02
               1A0F   02 02 02 02
               1A13   15 0D 16 0E
               1A17   15 0D 16 0E
               1A1B   17 0F 18 0F
               1A1F   17 0F 18 10
               1A23   19 11 1A 11
    166        1A27   19 11 1A 12          FCB $19,$11,$1a,$12,$1b,$12,$1b,$13,$1b,$13,$1c,$14,$1d,$14,$1d,$15,$1d,$15,$1e,$16,$1e,$16,$1f,$17,$1f,$17,$20,$17,$20,$18,$20,$19,$21,$19,$22,$19,$22,$1a,$22,$1b
               1A2B   1B 12 1B 13
               1A2F   1B 13 1C 14
               1A33   1D 14 1D 15
               1A37   1D 15 1E 16
               1A3B   1E 16 1F 17
               1A3F   1F 17 20 17
               1A43   20 18 20 19
               1A47   21 19 22 19
               1A4B   22 1A 22 1B
    167        1A4F   23 1B 23 1B          FCB $23,$1b,$23,$1b,$24,$1c,$24,$1c,$25,$1c,$25,$1d,$26,$1e,$26,$1e,$27,$1e,$27,$1f,$28,$20,$28,$1f,$28,$20,$29,$21,$2a,$22,$2a,$21,$2a,$22,$2b,$23,$2c,$24,$2b,$23
               1A53   24 1C 24 1C
               1A57   25 1C 25 1D
               1A5B   26 1E 26 1E
               1A5F   27 1E 27 1F
               1A63   28 20 28 1F
               1A67   28 20 29 21
               1A6B   2A 22 2A 21
               1A6F   2A 22 2B 23
               1A73   2C 24 2B 23
    168        1A77   06 06 06 06          FCB $6,$6,$6,$6,$6,$6,$6,$6,$6,$6,$6,$6,$6,$6,$6,$6,$6,$6,$6,$6,$6,$6,$6,$6,$6,$6,$6,$6,$6,$6,$6,$6,$6,$6,$6,$6,$6,$6,$6,$6
               1A7B   06 06 06 06
               1A7F   06 06 06 06
               1A83   06 06 06 06
               1A87   06 06 06 06
               1A8B   06 06 06 06
               1A8F   06 06 06 06
               1A93   06 06 06 06
               1A97   06 06 06 06
               1A9B   06 06 06 06
    169        1A9F   06 06 06 06          FCB $6,$6,$6,$6,$6,$6,$6,$6,$6,$6,$5,$5,$6,$6,$6,$6,$6,$6,$5,$5,$6,$6,$6,$6,$6,$6,$6,$6,$6,$6,$6,$6,$6,$6,$6,$6,$6,$6,$6,$6
               1AA3   06 06 06 06
               1AA7   06 06 05 05
               1AAB   06 06 06 06
               1AAF   06 06 05 05
               1AB3   06 06 06 06
               1AB7   06 06 06 06
               1ABB   06 06 06 06
               1ABF   06 06 06 06
               1AC3   06 06 06 06
    170        1AC7   06 06 06 06          FCB $6,$6,$6,$6,$6,$6,$6,$6,$6,$6,$6,$6,$6,$6,$6,$6,$6,$6,$6,$6,$6,$6,$6,$6,$6,$6,$6,$6,$6,$6,$6,$6,$6,$6,$6,$6,$6,$6,$6,$6
               1ACB   06 06 06 06
               1ACF   06 06 06 06
               1AD3   06 06 06 06
               1AD7   06 06 06 06
               1ADB   06 06 06 06
               1ADF   06 06 06 06
               1AE3   06 06 06 06
               1AE7   06 06 06 06
               1AEB   06 06 06 06
    171        1AEF   06 06 06 06          FCB $6,$6,$6,$6,$6,$6,$6,$6,$6,$6,$6,$6,$6,$6,$6,$6,$6,$6,$6,$6,$6,$6,$6,$6,$6,$6,$6,$6,$6,$6,$5,$5,$6,$6,$6,$6,$6,$6,$5,$5
               1AF3   06 06 06 06
               1AF7   06 06 06 06
               1AFB   06 06 06 06
               1AFF   06 06 06 06
               1B03   06 06 06 06
               1B07   06 06 06 06
               1B0B   06 06 05 05
               1B0F   06 06 06 06
               1B13   06 06 05 05
    172        1B17   06 06 06 06          FCB $6,$6,$6,$6,$6,$6,$6,$6,$6,$6,$6,$6,$6,$6,$6,$6,$6,$6,$6,$6,$6,$6,$6,$6,$6,$6,$6,$6,$6,$6,$6,$6,$6,$6,$6,$6,$6,$6,$6,$6
               1B1B   06 06 06 06
               1B1F   06 06 06 06
               1B23   06 06 06 06
               1B27   06 06 06 06
               1B2B   06 06 06 06
               1B2F   06 06 06 06
               1B33   06 06 06 06
               1B37   06 06 06 06
               1B3B   06 06 06 06
    173        1B3F   0E 16 0E 17          FCB $e,$16,$e,$17,$e,$16,$f,$17,$f,$18,$10,$19,$10,$18,$11,$19,$11,$1a,$12,$1a,$12,$1a,$12,$1b,$13,$1b,$14,$1c,$14,$1c,$14,$1d,$15,$1d,$16,$1e,$15,$1e,$16,$1e
               1B43   0E 16 0F 17
               1B47   0F 18 10 19
               1B4B   10 18 11 19
               1B4F   11 1A 12 1A
               1B53   12 1A 12 1B
               1B57   13 1B 14 1C
               1B5B   14 1C 14 1D
               1B5F   15 1D 16 1E
               1B63   15 1E 16 1E
    174        1B67   17 1F 18 20          FCB $17,$1f,$18,$20,$17,$20,$18,$20,$19,$21,$19,$21,$19,$21,$1a,$22,$1a,$23,$1b,$23,$1b,$23,$1c,$24,$1c,$25,$1c,$24,$1d,$25,$1d,$26,$1e,$26,$1e,$26,$1f,$27,$1f,$28
               1B6B   17 20 18 20
               1B6F   19 21 19 21
               1B73   19 21 1A 22
               1B77   1A 23 1B 23
               1B7B   1B 23 1C 24
               1B7F   1C 25 1C 24
               1B83   1D 25 1D 26
               1B87   1E 26 1E 26
               1B8B   1F 27 1F 28
    175        1B8F   20 28 20 28          FCB $20,$28,$20,$28,$20,$29,$21,$29,$22,$2a,$21,$2a,$22,$2b,$23,$2b,$24,$2c,$23,$2c,$2,$2,$3,$3,$2,$2,$2,$2,$3,$3,$3,$3,$2,$2,$2,$2,$3,$3,$2,$2
               1B93   20 29 21 29
               1B97   22 2A 21 2A
               1B9B   22 2B 23 2B
               1B9F   24 2C 23 2C
               1BA3   02 02 03 03
               1BA7   02 02 02 02
               1BAB   03 03 03 03
               1BAF   02 02 02 02
               1BB3   03 03 02 02
    176        1BB7   02 02 03 03          FCB $2,$2,$3,$3,$2,$2,$2,$2,$2,$2,$3,$3,$2,$2,$2,$2,$3,$3,$2,$2,$2,$2,$2,$2,$3,$3,$2,$2,$2,$2,$3,$3,$2,$2,$2,$2,$3,$3,$3,$3
               1BBB   02 02 02 02
               1BBF   02 02 03 03
               1BC3   02 02 02 02
               1BC7   03 03 02 02
               1BCB   02 02 02 02
               1BCF   03 03 02 02
               1BD3   02 02 03 03
               1BD7   02 02 02 02
               1BDB   03 03 03 03
    177        1BDF   02 02 02 02          FCB $2,$2,$2,$2,$3,$3,$2,$2,$2,$2,$3,$3,$2,$2,$2,$2,$2,$2,$3,$3,$2,$2,$2,$2,$3,$3,$2,$2,$2,$2,$3,$3,$3,$3,$2,$2,$2,$2,$3,$3
               1BE3   03 03 02 02
               1BE7   02 02 03 03
               1BEB   02 02 02 02
               1BEF   02 02 03 03
               1BF3   02 02 02 02
               1BF7   03 03 02 02
               1BFB   02 02 03 03
               1BFF   03 03 02 02
               1C03   02 02 03 03
    178        1C07   0C 0D 0C 0E          FCB $c,$d,$c,$e,$e,$e,$e,$e,$e,$10,$e,$10,$f,$10,$f,$10,$f,$11,$11,$11,$11,$12,$11,$13,$12,$13,$12,$13,$12,$13,$13,$14,$14,$14,$14,$15,$14,$16,$15,$16
               1C0B   0E 0E 0E 0E
               1C0F   0E 10 0E 10
               1C13   0F 10 0F 10
               1C17   0F 11 11 11
               1C1B   11 12 11 13
               1C1F   12 13 12 13
               1C23   12 13 13 14
               1C27   14 14 14 15
               1C2B   14 16 15 16
    179        1C2F   15 16 16 16          FCB $15,$16,$16,$16,$16,$17,$17,$18,$17,$18,$17,$19,$18,$19,$18,$19,$19,$1a,$19,$1b,$1a,$1b,$1a,$1b,$1a,$1c,$1b,$1c,$1c,$1c,$1c,$1d,$1d,$1e,$1d,$1e,$1d,$1e,$1d,$1f
               1C33   16 17 17 18
               1C37   17 18 17 19
               1C3B   18 19 18 19
               1C3F   19 1A 19 1B
               1C43   1A 1B 1A 1B
               1C47   1A 1C 1B 1C
               1C4B   1C 1C 1C 1D
               1C4F   1D 1E 1D 1E
               1C53   1D 1E 1D 1F
    180        1C57   1E 1F 1F 1F          FCB $1e,$1f,$1f,$1f,$1f,$21,$20,$21,$20,$21,$20,$22,$20,$22,$22,$22,$22,$22,$22,$24,$12,$a,$13,$b,$14,$b,$15,$c,$15,$d,$16,$e,$17,$f,$18,$10,$19,$10,$1a,$10
               1C5B   1F 21 20 21
               1C5F   20 21 20 22
               1C63   20 22 22 22
               1C67   22 22 22 24
               1C6B   12 0A 13 0B
               1C6F   14 0B 15 0C
               1C73   15 0D 16 0E
               1C77   17 0F 18 10
               1C7B   19 10 1A 10
    181        1C7F   1A 11 1B 12          FCB $1a,$11,$1b,$12,$1c,$13,$1d,$14,$1d,$15,$1e,$15,$1f,$16,$1f,$17,$20,$18,$21,$19,$22,$1a,$23,$1a,$24,$1a,$24,$1b,$25,$1c,$26,$1d,$27,$1e,$28,$1f,$29,$1f,$28,$20
               1C83   1C 13 1D 14
               1C87   1D 15 1E 15
               1C8B   1F 16 1F 17
               1C8F   20 18 21 19
               1C93   22 1A 23 1A
               1C97   24 1A 24 1B
               1C9B   25 1C 26 1D
               1C9F   27 1E 28 1F
               1CA3   29 1F 28 20
    182        1CA7   29 21 2A 22          FCB $29,$21,$2a,$22,$2b,$23,$2c,$24,$2d,$24,$2e,$25,$2e,$26,$2f,$26,$30,$27,$31,$28,$32,$29,$33,$29,$33,$2a,$33,$2b,$34,$2c,$35,$2d,$36,$2e,$37,$2e,$38,$2f,$38,$30
               1CAB   2B 23 2C 24
               1CAF   2D 24 2E 25
               1CB3   2E 26 2F 26
               1CB7   30 27 31 28
               1CBB   32 29 33 29
               1CBF   33 2A 33 2B
               1CC3   34 2C 35 2D
               1CC7   36 2E 37 2E
               1CCB   38 2F 38 30
    183        1CCF                    LINE_ENEMY_CMD
    184        1CCF   15 17 15 17          FCB $15,$17,$15,$17,$15,$17,$15,$17,$15,$17,$15,$17,$15,$17,$15,$17,$15,$17,$15,$17,$15,$17,$15,$17,$15,$17,$15,$17,$15,$17,$15,$17,$15,$17,$15,$17,$15,$17,$15,$17
               1CD3   15 17 15 17
               1CD7   15 17 15 17
               1CDB   15 17 15 17
               1CDF   15 17 15 17
               1CE3   15 17 15 17
               1CE7   15 17 15 17
               1CEB   15 17 15 17
               1CEF   15 17 15 17
               1CF3   15 17 15 17
    185        1CF7   15 17 15 17          FCB $15,$17,$15,$17,$15,$17,$15,$17,$15,$17,$15,$17,$15,$17,$15,$17,$15,$17,$15,$17,$15,$17,$15,$17,$15,$17,$15,$17,$15,$17,$15,$17,$15,$17,$15,$17,$15,$17,$15,$17
               1CFB   15 17 15 17
               1CFF   15 17 15 17
               1D03   15 17 15 17
               1D07   15 17 15 17
               1D0B   15 17 15 17
               1D0F   15 17 15 17
               1D13   15 17 15 17
               1D17   15 17 15 17
               1D1B   15 17 15 17
    186        1D1F   15 17 15 17          FCB $15,$17,$15,$17,$15,$17,$15,$17,$15,$17,$15,$17,$15,$17,$15,$17,$15,$17,$15,$17,$17,$13,$17,$13,$17,$13,$17,$13,$17,$13,$17,$13,$17,$13,$17,$13,$17,$13,$17,$13
               1D23   15 17 15 17
               1D27   15 17 15 17
               1D2B   15 17 15 17
               1D2F   15 17 15 17
               1D33   17 13 17 13
               1D37   17 13 17 13
               1D3B   17 13 17 13
               1D3F   17 13 17 13
               1D43   17 13 17 13
    187        1D47   17 13 17 13          FCB $17,$13,$17,$13,$17,$13,$17,$13,$17,$13,$17,$13,$17,$13,$17,$13,$17,$13,$17,$13,$17,$13,$17,$13,$17,$13,$17,$13,$17,$13,$17,$13,$17,$13,$17,$13,$17,$13,$17,$13
               1D4B   17 13 17 13
               1D4F   17 13 17 13
               1D53   17 13 17 13
               1D57   17 13 17 13
               1D5B   17 13 17 13
               1D5F   17 13 17 13
               1D63   17 13 17 13
               1D67   17 13 17 13
               1D6B   17 13 17 13
    188        1D6F   17 13 17 13          FCB $17,$13,$17,$13,$17,$13,$17,$13,$17,$13,$17,$13,$17,$13,$17,$13,$17,$13,$17,$13,$17,$13,$17,$13,$17,$13,$17,$13,$17,$13,$17,$13,$17,$13,$17,$13,$17,$13,$17,$13
               1D73   17 13 17 13
               1D77   17 13 17 13
               1D7B   17 13 17 13
               1D7F   17 13 17 13
               1D83   17 13 17 13
               1D87   17 13 17 13
               1D8B   17 13 17 13
               1D8F   17 13 17 13
               1D93   17 13 17 13
    189        1D97   15 17 15 17          FCB $15,$17,$15,$17,$15,$17,$15,$17,$15,$17,$15,$17,$15,$17,$15,$17,$15,$17,$15,$17,$15,$17,$15,$17,$15,$17,$15,$17,$15,$17,$15,$17,$15,$17,$15,$17,$15,$17,$15,$17
               1D9B   15 17 15 17
               1D9F   15 17 15 17
               1DA3   15 17 15 17
               1DA7   15 17 15 17
               1DAB   15 17 15 17
               1DAF   15 17 15 17
               1DB3   15 17 15 17
               1DB7   15 17 15 17
               1DBB   15 17 15 17
    190        1DBF   15 17 15 17          FCB $15,$17,$15,$17,$15,$17,$15,$17,$15,$17,$15,$17,$15,$17,$15,$17,$15,$17,$15,$17,$15,$17,$15,$17,$15,$17,$15,$17,$15,$17,$15,$17,$15,$17,$15,$17,$15,$17,$15,$17
               1DC3   15 17 15 17
               1DC7   15 17 15 17
               1DCB   15 17 15 17
               1DCF   15 17 15 17
               1DD3   15 17 15 17
               1DD7   15 17 15 17
               1DDB   15 17 15 17
               1DDF   15 17 15 17
               1DE3   15 17 15 17
    191        1DE7   15 17 15 17          FCB $15,$17,$15,$17,$15,$17,$15,$17,$15,$17,$15,$17,$15,$17,$15,$17,$15,$17,$15,$17,$15,$17,$15,$17,$15,$17,$15,$17,$15,$17,$15,$17,$15,$17,$15,$17,$15,$17,$15,$17
               1DEB   15 17 15 17
               1DEF   15 17 15 17
               1DF3   15 17 15 17
               1DF7   15 17 15 17
               1DFB   15 17 15 17
               1DFF   15 17 15 17
               1E03   15 17 15 17
               1E07   15 17 15 17
               1E0B   15 17 15 17
    192        1E0F   15 17 15 17          FCB $15,$17,$15,$17,$15,$17,$15,$17,$15,$17,$15,$17,$15,$17,$15,$17,$15,$17,$15,$17,$15,$17,$15,$17,$15,$17,$15,$17,$15,$17,$15,$17,$15,$17,$15,$17,$15,$17,$15,$17
               1E13   15 17 15 17
               1E17   15 17 15 17
               1E1B   15 17 15 17
               1E1F   15 17 15 17
               1E23   15 17 15 17
               1E27   15 17 15 17
               1E2B   15 17 15 17
               1E2F   15 17 15 17
               1E33   15 17 15 17
    193        1E37   15 17 15 17          FCB $15,$17,$15,$17,$15,$17,$15,$17,$15,$17,$15,$17,$15,$17,$15,$17,$15,$17,$15,$17,$15,$17,$15,$17,$15,$17,$15,$17,$15,$17,$15,$17,$15,$17,$15,$17,$15,$17,$15,$17
               1E3B   15 17 15 17
               1E3F   15 17 15 17
               1E43   15 17 15 17
               1E47   15 17 15 17
               1E4B   15 17 15 17
               1E4F   15 17 15 17
               1E53   15 17 15 17
               1E57   15 17 15 17
               1E5B   15 17 15 17
    194        1E5F   11 15 11 15          FCB $11,$15,$11,$15,$11,$15,$11,$15,$11,$15,$11,$15,$11,$15,$11,$15,$11,$15,$11,$15,$11,$15,$11,$15,$11,$15,$11,$15,$11,$15,$11,$15,$11,$15,$11,$15,$11,$15,$11,$15
               1E63   11 15 11 15
               1E67   11 15 11 15
               1E6B   11 15 11 15
               1E6F   11 15 11 15
               1E73   11 15 11 15
               1E77   11 15 11 15
               1E7B   11 15 11 15
               1E7F   11 15 11 15
               1E83   11 15 11 15
    195        1E87   11 15 11 15          FCB $11,$15,$11,$15,$11,$15,$11,$15,$11,$15,$11,$15,$11,$15,$11,$15,$11,$15,$11,$15,$11,$15,$11,$15,$11,$15,$11,$15,$11,$15,$11,$15,$11,$15,$11,$15,$11,$15,$11,$15
               1E8B   11 15 11 15
               1E8F   11 15 11 15
               1E93   11 15 11 15
               1E97   11 15 11 15
               1E9B   11 15 11 15
               1E9F   11 15 11 15
               1EA3   11 15 11 15
               1EA7   11 15 11 15
               1EAB   11 15 11 15
    196        1EAF   11 15 11 15          FCB $11,$15,$11,$15,$11,$15,$11,$15,$11,$15,$11,$15,$11,$15,$11,$15,$11,$15,$11,$15,$15,$17,$15,$17,$15,$17,$15,$17,$15,$17,$15,$17,$15,$17,$15,$17,$15,$17,$15,$17
               1EB3   11 15 11 15
               1EB7   11 15 11 15
               1EBB   11 15 11 15
               1EBF   11 15 11 15
               1EC3   15 17 15 17
               1EC7   15 17 15 17
               1ECB   15 17 15 17
               1ECF   15 17 15 17
               1ED3   15 17 15 17
    197        1ED7   15 17 15 17          FCB $15,$17,$15,$17,$15,$17,$15,$17,$15,$17,$15,$17,$15,$17,$15,$17,$15,$17,$15,$17,$15,$17,$15,$17,$15,$17,$15,$17,$15,$17,$15,$17,$15,$17,$15,$17,$15,$17,$15,$17
               1EDB   15 17 15 17
               1EDF   15 17 15 17
               1EE3   15 17 15 17
               1EE7   15 17 15 17
               1EEB   15 17 15 17
               1EEF   15 17 15 17
               1EF3   15 17 15 17
               1EF7   15 17 15 17
               1EFB   15 17 15 17
    198        1EFF   15 17 15 17          FCB $15,$17,$15,$17,$15,$17,$15,$17,$15,$17,$15,$17,$15,$17,$15,$17,$15,$17,$15,$17,$15,$17,$15,$17,$15,$17,$15,$17,$15,$17,$15,$17,$15,$17,$15,$17,$15,$17,$15,$17
               1F03   15 17 15 17
               1F07   15 17 15 17
               1F0B   15 17 15 17
               1F0F   15 17 15 17
               1F13   15 17 15 17
               1F17   15 17 15 17
               1F1B   15 17 15 17
               1F1F   15 17 15 17
               1F23   15 17 15 17
    199        1F27   11 15 11 15          FCB $11,$15,$11,$15,$11,$15,$11,$15,$11,$15,$11,$15,$11,$15,$11,$15,$11,$15,$11,$15,$11,$15,$11,$15,$11,$15,$11,$15,$11,$15,$11,$15,$11,$15,$11,$15,$11,$15,$11,$15
               1F2B   11 15 11 15
               1F2F   11 15 11 15
               1F33   11 15 11 15
               1F37   11 15 11 15
               1F3B   11 15 11 15
               1F3F   11 15 11 15
               1F43   11 15 11 15
               1F47   11 15 11 15
               1F4B   11 15 11 15
    200        1F4F   11 15 11 15          FCB $11,$15,$11,$15,$11,$15,$11,$15,$11,$15,$11,$15,$11,$15,$11,$15,$11,$15,$11,$15,$11,$15,$11,$15,$11,$15,$11,$15,$11,$15,$11,$15,$11,$15,$11,$15,$11,$15,$11,$15
               1F53   11 15 11 15
               1F57   11 15 11 15
               1F5B   11 15 11 15
               1F5F   11 15 11 15
               1F63   11 15 11 15
               1F67   11 15 11 15
               1F6B   11 15 11 15
               1F6F   11 15 11 15
               1F73   11 15 11 15
    201        1F77   11 15 11 15          FCB $11,$15,$11,$15,$11,$15,$11,$15,$11,$15,$11,$15,$11,$15,$11,$15,$11,$15,$11,$15,$11,$15,$11,$15,$11,$15,$11,$15,$11,$15,$11,$15,$11,$15,$11,$15,$11,$15,$11,$15
               1F7B   11 15 11 15
               1F7F   11 15 11 15
               1F83   11 15 11 15
               1F87   11 15 11 15
               1F8B   11 15 11 15
               1F8F   11 15 11 15
               1F93   11 15 11 15
               1F97   11 15 11 15
               1F9B   11 15 11 15
    202        1F9F   11 15 11 15          FCB $11,$15,$11,$15,$11,$15,$11,$15,$11,$15,$11,$15,$11,$15,$11,$15,$11,$15,$11,$15,$11,$15,$11,$15,$11,$15,$11,$15,$11,$15,$11,$15,$11,$15,$11,$15,$11,$15,$11,$15
               1FA3   11 15 11 15
               1FA7   11 15 11 15
               1FAB   11 15 11 15
               1FAF   11 15 11 15
               1FB3   11 15 11 15
               1FB7   11 15 11 15
               1FBB   11 15 11 15
               1FBF   11 15 11 15
               1FC3   11 15 11 15
    203        1FC7   11 15 11 15          FCB $11,$15,$11,$15,$11,$15,$11,$15,$11,$15,$11,$15,$11,$15,$11,$15,$11,$15,$11,$15,$11,$15,$11,$15,$11,$15,$11,$15,$11,$15,$11,$15,$11,$15,$11,$15,$11,$15,$11,$15
               1FCB   11 15 11 15
               1FCF   11 15 11 15
               1FD3   11 15 11 15
               1FD7   11 15 11 15
               1FDB   11 15 11 15
               1FDF   11 15 11 15
               1FE3   11 15 11 15
               1FE7   11 15 11 15
               1FEB   11 15 11 15
    204        1FEF   13 11 13 11          FCB $13,$11,$13,$11,$13,$11,$13,$11,$13,$11,$13,$11,$13,$11,$13,$11,$13,$11,$13,$11,$13,$11,$13,$11,$13,$11,$13,$11,$13,$11,$13,$11,$13,$11,$13,$11,$13,$11,$13,$11
               1FF3   13 11 13 11
               1FF7   13 11 13 11
               1FFB   13 11 13 11
               1FFF   13 11 13 11
               2003   13 11 13 11
               2007   13 11 13 11
               200B   13 11 13 11
               200F   13 11 13 11
               2013   13 11 13 11
    205        2017   13 11 13 11          FCB $13,$11,$13,$11,$13,$11,$13,$11,$13,$11,$13,$11,$13,$11,$13,$11,$13,$11,$13,$11,$13,$11,$13,$11,$13,$11,$13,$11,$13,$11,$13,$11,$13,$11,$13,$11,$13,$11,$13,$11
               201B   13 11 13 11
               201F   13 11 13 11
               2023   13 11 13 11
               2027   13 11 13 11
               202B   13 11 13 11
               202F   13 11 13 11
               2033   13 11 13 11
               2037   13 11 13 11
               203B   13 11 13 11
    206        203F   13 11 13 11          FCB $13,$11,$13,$11,$13,$11,$13,$11,$13,$11,$13,$11,$13,$11,$13,$11,$13,$11,$13,$11,$11,$15,$11,$15,$11,$15,$11,$15,$11,$15,$11,$15,$11,$15,$11,$15,$11,$15,$11,$15
               2043   13 11 13 11
               2047   13 11 13 11
               204B   13 11 13 11
               204F   13 11 13 11
               2053   11 15 11 15
               2057   11 15 11 15
               205B   11 15 11 15
               205F   11 15 11 15
               2063   11 15 11 15
    207        2067   11 15 11 15          FCB $11,$15,$11,$15,$11,$15,$11,$15,$11,$15,$11,$15,$11,$15,$11,$15,$11,$15,$11,$15,$11,$15,$11,$15,$11,$15,$11,$15,$11,$15,$11,$15,$11,$15,$11,$15,$11,$15,$11,$15
               206B   11 15 11 15
               206F   11 15 11 15
               2073   11 15 11 15
               2077   11 15 11 15
               207B   11 15 11 15
               207F   11 15 11 15
               2083   11 15 11 15
               2087   11 15 11 15
               208B   11 15 11 15
    208        208F   11 15 11 15          FCB $11,$15,$11,$15,$11,$15,$11,$15,$11,$15,$11,$15,$11,$15,$11,$15,$11,$15,$11,$15,$11,$15,$11,$15,$11,$15,$11,$15,$11,$15,$11,$15,$11,$15,$11,$15,$11,$15,$11,$15
               2093   11 15 11 15
               2097   11 15 11 15
               209B   11 15 11 15
               209F   11 15 11 15
               20A3   11 15 11 15
               20A7   11 15 11 15
               20AB   11 15 11 15
               20AF   11 15 11 15
               20B3   11 15 11 15
    209        20B7   13 11 13 11          FCB $13,$11,$13,$11,$13,$11,$13,$11,$13,$11,$13,$11,$13,$11,$13,$11,$13,$11,$13,$11,$13,$11,$13,$11,$13,$11,$13,$11,$13,$11,$13,$11,$13,$11,$13,$11,$13,$11,$13,$11
               20BB   13 11 13 11
               20BF   13 11 13 11
               20C3   13 11 13 11
               20C7   13 11 13 11
               20CB   13 11 13 11
               20CF   13 11 13 11
               20D3   13 11 13 11
               20D7   13 11 13 11
               20DB   13 11 13 11
    210        20DF   13 11 13 11          FCB $13,$11,$13,$11,$13,$11,$13,$11,$13,$11,$13,$11,$13,$11,$13,$11,$13,$11,$13,$11,$13,$11,$13,$11,$13,$11,$13,$11,$13,$11,$13,$11,$13,$11,$13,$11,$13,$11,$13,$11
               20E3   13 11 13 11
               20E7   13 11 13 11
               20EB   13 11 13 11
               20EF   13 11 13 11
               20F3   13 11 13 11
               20F7   13 11 13 11
               20FB   13 11 13 11
               20FF   13 11 13 11
               2103   13 11 13 11
    211        2107   13 11 13 11          FCB $13,$11,$13,$11,$13,$11,$13,$11,$13,$11,$13,$11,$13,$11,$13,$11,$13,$11,$13,$11,$13,$11,$13,$11,$13,$11,$13,$11,$13,$11,$13,$11,$13,$11,$13,$11,$13,$11,$13,$11
               210B   13 11 13 11
               210F   13 11 13 11
               2113   13 11 13 11
               2117   13 11 13 11
               211B   13 11 13 11
               211F   13 11 13 11
               2123   13 11 13 11
               2127   13 11 13 11
               212B   13 11 13 11
    212        212F   13 11 13 11          FCB $13,$11,$13,$11,$13,$11,$13,$11,$13,$11,$13,$11,$13,$11,$13,$11,$13,$11,$13,$11,$13,$11,$13,$11,$13,$11,$13,$11,$13,$11,$13,$11,$13,$11,$13,$11,$13,$11,$13,$11
               2133   13 11 13 11
               2137   13 11 13 11
               213B   13 11 13 11
               213F   13 11 13 11
               2143   13 11 13 11
               2147   13 11 13 11
               214B   13 11 13 11
               214F   13 11 13 11
               2153   13 11 13 11
    213        2157   13 11 13 11          FCB $13,$11,$13,$11,$13,$11,$13,$11,$13,$11,$13,$11,$13,$11,$13,$11,$13,$11,$13,$11,$13,$11,$13,$11,$13,$11,$13,$11,$13,$11,$13,$11,$13,$11,$13,$11,$13,$11,$13,$11
               215B   13 11 13 11
               215F   13 11 13 11
               2163   13 11 13 11
               2167   13 11 13 11
               216B   13 11 13 11
               216F   13 11 13 11
               2173   13 11 13 11
               2177   13 11 13 11
               217B   13 11 13 11
    214        217F   17 13 17 13          FCB $17,$13,$17,$13,$17,$13,$17,$13,$17,$13,$17,$13,$17,$13,$17,$13,$17,$13,$17,$13,$17,$13,$17,$13,$17,$13,$17,$13,$17,$13,$17,$13,$17,$13,$17,$13,$17,$13,$17,$13
               2183   17 13 17 13
               2187   17 13 17 13
               218B   17 13 17 13
               218F   17 13 17 13
               2193   17 13 17 13
               2197   17 13 17 13
               219B   17 13 17 13
               219F   17 13 17 13
               21A3   17 13 17 13
    215        21A7   17 13 17 13          FCB $17,$13,$17,$13,$17,$13,$17,$13,$17,$13,$17,$13,$17,$13,$17,$13,$17,$13,$17,$13,$17,$13,$17,$13,$17,$13,$17,$13,$17,$13,$17,$13,$17,$13,$17,$13,$17,$13,$17,$13
               21AB   17 13 17 13
               21AF   17 13 17 13
               21B3   17 13 17 13
               21B7   17 13 17 13
               21BB   17 13 17 13
               21BF   17 13 17 13
               21C3   17 13 17 13
               21C7   17 13 17 13
               21CB   17 13 17 13
    216        21CF   17 13 17 13          FCB $17,$13,$17,$13,$17,$13,$17,$13,$17,$13,$17,$13,$17,$13,$17,$13,$17,$13,$17,$13,$13,$11,$13,$11,$13,$11,$13,$11,$13,$11,$13,$11,$13,$11,$13,$11,$13,$11,$13,$11
               21D3   17 13 17 13
               21D7   17 13 17 13
               21DB   17 13 17 13
               21DF   17 13 17 13
               21E3   13 11 13 11
               21E7   13 11 13 11
               21EB   13 11 13 11
               21EF   13 11 13 11
               21F3   13 11 13 11
    217        21F7   13 11 13 11          FCB $13,$11,$13,$11,$13,$11,$13,$11,$13,$11,$13,$11,$13,$11,$13,$11,$13,$11,$13,$11,$13,$11,$13,$11,$13,$11,$13,$11,$13,$11,$13,$11,$13,$11,$13,$11,$13,$11,$13,$11
               21FB   13 11 13 11
               21FF   13 11 13 11
               2203   13 11 13 11
               2207   13 11 13 11
               220B   13 11 13 11
               220F   13 11 13 11
               2213   13 11 13 11
               2217   13 11 13 11
               221B   13 11 13 11
    218        221F   13 11 13 11          FCB $13,$11,$13,$11,$13,$11,$13,$11,$13,$11,$13,$11,$13,$11,$13,$11,$13,$11,$13,$11,$13,$11,$13,$11,$13,$11,$13,$11,$13,$11,$13,$11,$13,$11,$13,$11,$13,$11,$13,$11
               2223   13 11 13 11
               2227   13 11 13 11
               222B   13 11 13 11
               222F   13 11 13 11
               2233   13 11 13 11
               2237   13 11 13 11
               223B   13 11 13 11
               223F   13 11 13 11
               2243   13 11 13 11
    219        2247   17 13 17 13          FCB $17,$13,$17,$13,$17,$13,$17,$13,$17,$13,$17,$13,$17,$13,$17,$13,$17,$13,$17,$13,$17,$13,$17,$13,$17,$13,$17,$13,$17,$13,$17,$13,$17,$13,$17,$13,$17,$13,$17,$13
               224B   17 13 17 13
               224F   17 13 17 13
               2253   17 13 17 13
               2257   17 13 17 13
               225B   17 13 17 13
               225F   17 13 17 13
               2263   17 13 17 13
               2267   17 13 17 13
               226B   17 13 17 13
    220        226F   17 13 17 13          FCB $17,$13,$17,$13,$17,$13,$17,$13,$17,$13,$17,$13,$17,$13,$17,$13,$17,$13,$17,$13,$17,$13,$17,$13,$17,$13,$17,$13,$17,$13,$17,$13,$17,$13,$17,$13,$17,$13,$17,$13
               2273   17 13 17 13
               2277   17 13 17 13
               227B   17 13 17 13
               227F   17 13 17 13
               2283   17 13 17 13
               2287   17 13 17 13
               228B   17 13 17 13
               228F   17 13 17 13
               2293   17 13 17 13
    221        2297   17 13 17 13          FCB $17,$13,$17,$13,$17,$13,$17,$13,$17,$13,$17,$13,$17,$13,$17,$13,$17,$13,$17,$13,$17,$13,$17,$13,$17,$13,$17,$13,$17,$13,$17,$13,$17,$13,$17,$13,$17,$13,$17,$13
               229B   17 13 17 13
               229F   17 13 17 13
               22A3   17 13 17 13
               22A7   17 13 17 13
               22AB   17 13 17 13
               22AF   17 13 17 13
               22B3   17 13 17 13
               22B7   17 13 17 13
               22BB   17 13 17 13
    222        22BF   17 13 17 13          FCB $17,$13,$17,$13,$17,$13,$17,$13,$17,$13,$17,$13,$17,$13,$17,$13,$17,$13,$17,$13,$17,$13,$17,$13,$17,$13,$17,$13,$17,$13,$17,$13,$17,$13,$17,$13,$17,$13,$17,$13
               22C3   17 13 17 13
               22C7   17 13 17 13
               22CB   17 13 17 13
               22CF   17 13 17 13
               22D3   17 13 17 13
               22D7   17 13 17 13
               22DB   17 13 17 13
               22DF   17 13 17 13
               22E3   17 13 17 13
    223        22E7   17 13 17 13          FCB $17,$13,$17,$13,$17,$13,$17,$13,$17,$13,$17,$13,$17,$13,$17,$13,$17,$13,$17,$13,$17,$13,$17,$13,$17,$13,$17,$13,$17,$13,$17,$13,$17,$13,$17,$13,$17,$13,$17,$13
               22EB   17 13 17 13
               22EF   17 13 17 13
               22F3   17 13 17 13
               22F7   17 13 17 13
               22FB   17 13 17 13
               22FF   17 13 17 13
               2303   17 13 17 13
               2307   17 13 17 13
               230B   17 13 17 13
    224        230F                    LINE_MISSILE_X1
    225        230F   46 45 47 47          FCB $46,$45,$47,$47,$48,$47,$49,$48,$4a,$49,$4b,$4a,$4c,$4b,$4c,$4c,$4d,$4d,$4e,$4e,$4f,$4f,$50,$4f,$51,$51,$52,$51,$53,$53,$54,$53,$55,$54,$56,$55,$57,$56,$58,$57
               2313   48 47 49 48
               2317   4A 49 4B 4A
               231B   4C 4B 4C 4C
               231F   4D 4D 4E 4E
               2323   4F 4F 50 4F
               2327   51 51 52 51
               232B   53 53 54 53
               232F   55 54 56 55
               2333   57 56 58 57
    226        2337   59 58 5A 59          FCB $59,$58,$5a,$59,$5a,$5a,$5b,$5b,$5c,$5b,$5d,$5d,$5e,$5d,$5f,$5f,$60,$5f,$61,$61,$62,$61,$63,$62,$64,$63,$65,$64,$66,$65,$67,$66,$67,$67,$68,$68,$69,$69,$6a,$69
               233B   5A 5A 5B 5B
               233F   5C 5B 5D 5D
               2343   5E 5D 5F 5F
               2347   60 5F 61 61
               234B   62 61 63 62
               234F   64 63 65 64
               2353   66 65 67 66
               2357   67 67 68 68
               235B   69 69 6A 69
    227        235F   6B 6B 6C 6B          FCB $6b,$6b,$6c,$6b,$6d,$6d,$6e,$6d,$6f,$6f,$70,$6f,$71,$70,$72,$71,$73,$72,$74,$73,$5e,$5e,$5f,$5f,$5f,$5f,$60,$5f,$60,$61,$61,$61,$62,$61,$62,$63,$63,$63,$63,$63
               2363   6D 6D 6E 6D
               2367   6F 6F 70 6F
               236B   71 70 72 71
               236F   73 72 74 73
               2373   5E 5E 5F 5F
               2377   5F 5F 60 5F
               237B   60 61 61 61
               237F   62 61 62 63
               2383   63 63 63 63
    228        2387   64 64 65 65          FCB $64,$64,$65,$65,$65,$65,$66,$65,$66,$67,$67,$67,$68,$67,$68,$69,$69,$69,$69,$69,$6a,$6b,$6b,$6b,$6b,$6b,$6c,$6b,$6d,$6d,$6d,$6d,$6e,$6d,$6e,$6f,$6f,$6f,$70,$6f
               238B   65 65 66 65
               238F   66 67 67 67
               2393   68 67 68 69
               2397   69 69 69 69
               239B   6A 6B 6B 6B
               239F   6B 6B 6C 6B
               23A3   6D 6D 6D 6D
               23A7   6E 6D 6E 6F
               23AB   6F 6F 70 6F
    229        23AF   70 71 71 71          FCB $70,$71,$71,$71,$71,$71,$72,$72,$73,$73,$73,$73,$74,$73,$74,$75,$75,$75,$76,$75,$76,$77,$77,$77,$77,$77,$78,$78,$79,$79,$79,$79,$7a,$79,$7a,$7b,$7b,$7b,$7c,$7b
               23B3   71 71 72 72
               23B7   73 73 73 73
               23BB   74 73 74 75
               23BF   75 75 76 75
               23C3   76 77 77 77
               23C7   77 77 78 78
               23CB   79 79 79 79
               23CF   7A 79 7A 7B
               23D3   7B 7B 7C 7B
    230        23D7   71 71 72 71          FCB $71,$71,$72,$71,$72,$72,$72,$72,$73,$73,$73,$73,$73,$73,$74,$73,$74,$73,$74,$74,$75,$75,$75,$75,$75,$75,$76,$75,$76,$76,$76,$77,$77,$77,$77,$77,$77,$77,$78,$77
               23DB   72 72 72 72
               23DF   73 73 73 73
               23E3   73 73 74 73
               23E7   74 73 74 74
               23EB   75 75 75 75
               23EF   75 75 76 75
               23F3   76 76 76 77
               23F7   77 77 77 77
               23FB   77 77 78 77
    231        23FF   78 78 78 78          FCB $78,$78,$78,$78,$79,$79,$79,$79,$79,$79,$7a,$79,$7a,$79,$7a,$7a,$7b,$7b,$7b,$7b,$7b,$7b,$7c,$7b,$7c,$7c,$7c,$7d,$7d,$7d,$7d,$7d,$7d,$7d,$7e,$7d,$7e,$7e,$7e,$7e
               2403   79 79 79 79
               2407   79 79 7A 79
               240B   7A 79 7A 7A
               240F   7B 7B 7B 7B
               2413   7B 7B 7C 7B
               2417   7C 7C 7C 7D
               241B   7D 7D 7D 7D
               241F   7D 7D 7E 7D
               2423   7E 7E 7E 7E
    232        2427   7F 7F 7F 7F          FCB $7f,$7f,$7f,$7f,$7f,$7f,$80,$80,$80,$80,$80,$81,$81,$81,$81,$81,$81,$81,$82,$81,$98,$98,$98,$98,$98,$97,$98,$97,$97,$97,$97,$97,$97,$97,$97,$97,$97,$97,$97,$97
               242B   7F 7F 80 80
               242F   80 80 80 81
               2433   81 81 81 81
               2437   81 81 82 81
               243B   98 98 98 98
               243F   98 97 98 97
               2443   97 97 97 97
               2447   97 97 97 97
               244B   97 97 97 97
    233        244F   96 97 96 97          FCB $96,$97,$96,$97,$96,$96,$96,$96,$96,$95,$96,$95,$95,$95,$95,$95,$95,$95,$95,$95,$95,$95,$94,$95,$94,$95,$94,$95,$94,$94,$94,$94,$94,$94,$93,$93,$93,$93,$93,$93
               2453   96 96 96 96
               2457   96 95 96 95
               245B   95 95 95 95
               245F   95 95 95 95
               2463   95 95 94 95
               2467   94 95 94 95
               246B   94 94 94 94
               246F   94 94 93 93
               2473   93 93 93 93
    234        2477   93 93 93 93          FCB $93,$93,$93,$93,$93,$93,$92,$93,$92,$92,$92,$92,$92,$92,$92,$92,$92,$92,$91,$91,$91,$91,$91,$91,$91,$91,$91,$91,$91,$91,$90,$91,$90,$90,$90,$90,$90,$8f,$90,$8f
               247B   93 93 92 93
               247F   92 92 92 92
               2483   92 92 92 92
               2487   92 92 91 91
               248B   91 91 91 91
               248F   91 91 91 91
               2493   91 91 90 91
               2497   90 90 90 90
               249B   90 8F 90 8F
    235        249F   AA AA AA A9          FCB $aa,$aa,$aa,$a9,$a9,$a9,$a9,$a9,$a8,$a9,$a8,$a8,$a7,$a7,$a7,$a7,$a7,$a7,$a6,$a7,$a6,$a5,$a5,$a5,$a5,$a5,$a5,$a5,$a4,$a4,$a4,$a3,$a3,$a3,$a3,$a3,$a2,$a3,$a2,$a2
               24A3   A9 A9 A9 A9
               24A7   A8 A9 A8 A8
               24AB   A7 A7 A7 A7
               24AF   A7 A7 A6 A7
               24B3   A6 A5 A5 A5
               24B7   A5 A5 A5 A5
               24BB   A4 A4 A4 A3
               24BF   A3 A3 A3 A3
               24C3   A2 A3 A2 A2
    236        24C7   A2 A1 A1 A1          FCB $a2,$a1,$a1,$a1,$a1,$a1,$a0,$a1,$a0,$a0,$a0,$9f,$9f,$9f,$9f,$9f,$9e,$9f,$9e,$9e,$9e,$9d,$9d,$9d,$9d,$9d,$9c,$9d,$9c,$9c,$9b,$9b,$9b,$9b,$9b,$9b,$9a,$9b,$9a,$99
               24CB   A1 A1 A0 A1
               24CF   A0 A0 A0 9F
               24D3   9F 9F 9F 9F
               24D7   9E 9F 9E 9E
               24DB   9E 9D 9D 9D
               24DF   9D 9D 9C 9D
               24E3   9C 9C 9B 9B
               24E7   9B 9B 9B 9B
               24EB   9A 9B 9A 99
    237        24EF   99 99 99 99          FCB $99,$99,$99,$99,$99,$99,$98,$98,$98,$97,$97,$97,$97,$97,$96,$97,$96,$96,$96,$95,$c1,$c1,$c0,$c0,$c0,$bf,$bf,$bf,$be,$be,$be,$bd,$bd,$bd,$bc,$bc,$bb,$bb,$bb,$bb
               24F3   99 99 98 98
               24F7   98 97 97 97
               24FB   97 97 96 97
               24FF   96 96 96 95
               2503   C1 C1 C0 C0
               2507   C0 BF BF BF
               250B   BE BE BE BD
               250F   BD BD BC BC
               2513   BB BB BB BB
    238        2517   BA B9 B9 B9          FCB $ba,$b9,$b9,$b9,$b9,$b9,$b8,$b7,$b7,$b7,$b6,$b6,$b6,$b5,$b5,$b5,$b4,$b4,$b4,$b3,$b3,$b2,$b2,$b1,$b1,$b1,$b1,$b0,$b0,$af,$af,$af,$af,$ae,$ae,$ad,$ad,$ad,$ac,$ac
               251B   B9 B9 B8 B7
               251F   B7 B7 B6 B6
               2523   B6 B5 B5 B5
               2527   B4 B4 B4 B3
               252B   B3 B2 B2 B1
               252F   B1 B1 B1 B0
               2533   B0 AF AF AF
               2537   AF AE AE AD
               253B   AD AD AC AC
    239        253F   AC AB AB AB          FCB $ac,$ab,$ab,$ab,$aa,$a9,$aa,$a9,$a9,$a9,$a8,$a7,$a7,$a7,$a7,$a6,$a6,$a5,$a5,$a5,$a5,$a4,$a4,$a3,$a3,$a3,$a2,$a2,$a2,$a1,$a1,$a1,$a0,$a0,$9f,$9f,$9f,$9f,$9e,$9d
               2543   AA A9 AA A9
               2547   A9 A9 A8 A7
               254B   A7 A7 A7 A6
               254F   A6 A5 A5 A5
               2553   A5 A4 A4 A3
               2557   A3 A3 A2 A2
               255B   A2 A1 A1 A1
               255F   A0 A0 9F 9F
               2563   9F 9F 9E 9D
    240        2567   D6 D6 D5 D5          FCB $d6,$d6,$d5,$d5,$d4,$d4,$d3,$d3,$d2,$d2,$d1,$d1,$d0,$d0,$cf,$cf,$ce,$ce,$cd,$cd,$cc,$cc,$cb,$cb,$ca,$ca,$c9,$c9,$c8,$c8,$c7,$c7,$c6,$c6,$c5,$c5,$c4,$c4,$c3,$c3
               256B   D4 D4 D3 D3
               256F   D2 D2 D1 D1
               2573   D0 D0 CF CF
               2577   CE CE CD CD
               257B   CC CC CB CB
               257F   CA CA C9 C9
               2583   C8 C8 C7 C7
               2587   C6 C6 C5 C5
               258B   C4 C4 C3 C3
    241        258F   C2 C1 C1 C1          FCB $c2,$c1,$c1,$c1,$c0,$bf,$bf,$bf,$bd,$bd,$bc,$bd,$bb,$bb,$ba,$bb,$b9,$b9,$b8,$b8,$b7,$b7,$b6,$b6,$b5,$b5,$b4,$b4,$b3,$b3,$b2,$b2,$b1,$b1,$b0,$b0,$af,$af,$ae,$ae
               2593   C0 BF BF BF
               2597   BD BD BC BD
               259B   BB BB BA BB
               259F   B9 B9 B8 B8
               25A3   B7 B7 B6 B6
               25A7   B5 B5 B4 B4
               25AB   B3 B3 B2 B2
               25AF   B1 B1 B0 B0
               25B3   AF AF AE AE
    242        25B7   AD AD AC AC          FCB $ad,$ad,$ac,$ac,$ab,$ab,$aa,$aa,$a9,$a9,$a8,$a8,$a7,$a7,$a6,$a6,$a5,$a5,$a4,$a4,$d6,$d6,$d5,$d5,$d4,$d4,$d3,$d3,$d2,$d2,$d1,$d1,$d0,$d0,$cf,$cf,$ce,$ce,$cd,$cd
               25BB   AB AB AA AA
               25BF   A9 A9 A8 A8
               25C3   A7 A7 A6 A6
               25C7   A5 A5 A4 A4
               25CB   D6 D6 D5 D5
               25CF   D4 D4 D3 D3
               25D3   D2 D2 D1 D1
               25D7   D0 D0 CF CF
               25DB   CE CE CD CD
    243        25DF   CC CC CB CB          FCB $cc,$cc,$cb,$cb,$ca,$ca,$c9,$c9,$c8,$c8,$c7,$c7,$c6,$c6,$c5,$c5,$c4,$c4,$c3,$c3,$c2,$c1,$c1,$c1,$c0,$bf,$bf,$bf,$bd,$bd,$bc,$bd,$bb,$bb,$ba,$bb,$b9,$b9,$b8,$b8
               25E3   CA CA C9 C9
               25E7   C8 C8 C7 C7
               25EB   C6 C6 C5 C5
               25EF   C4 C4 C3 C3
               25F3   C2 C1 C1 C1
               25F7   C0 BF BF BF
               25FB   BD BD BC BD
               25FF   BB BB BA BB
               2603   B9 B9 B8 B8
    244        2607   B7 B7 B6 B6          FCB $b7,$b7,$b6,$b6,$b5,$b5,$b4,$b4,$b3,$b3,$b2,$b2,$b1,$b1,$b0,$b0,$af,$af,$ae,$ae,$ad,$ad,$ac,$ac,$ab,$ab,$aa,$aa,$a9,$a9,$a8,$a8,$a7,$a7,$a6,$a6,$a5,$a5,$a4,$a4
               260B   B5 B5 B4 B4
               260F   B3 B3 B2 B2
               2613   B1 B1 B0 B0
               2617   AF AF AE AE
               261B   AD AD AC AC
               261F   AB AB AA AA
               2623   A9 A9 A8 A8
               2627   A7 A7 A6 A6
               262B   A5 A5 A4 A4
    245        262F   C1 C1 C0 C1          FCB $c1,$c1,$c0,$c1,$bf,$bf,$bf,$bf,$be,$bf,$bd,$bd,$bc,$bd,$bc,$bc,$bb,$bb,$ba,$bb,$ba,$ba,$b9,$b9,$b8,$b9,$b7,$b8,$b7,$b7,$b6,$b7,$b5,$b6,$b5,$b5,$b4,$b5,$b3,$b3
               2633   BF BF BF BF
               2637   BE BF BD BD
               263B   BC BD BC BC
               263F   BB BB BA BB
               2643   BA BA B9 B9
               2647   B8 B9 B7 B8
               264B   B7 B7 B6 B7
               264F   B5 B6 B5 B5
               2653   B4 B5 B3 B3
    246        2657   B2 B3 B2 B3          FCB $b2,$b3,$b2,$b3,$b1,$b1,$b0,$b1,$b0,$b0,$af,$af,$ae,$af,$ad,$ae,$ad,$ad,$ac,$ac,$ab,$ab,$ab,$ab,$aa,$aa,$a9,$a9,$a8,$a9,$a8,$a8,$a7,$a7,$a6,$a7,$a6,$a6,$a5,$a5
               265B   B1 B1 B0 B1
               265F   B0 B0 AF AF
               2663   AE AF AD AE
               2667   AD AD AC AC
               266B   AB AB AB AB
               266F   AA AA A9 A9
               2673   A8 A9 A8 A8
               2677   A7 A7 A6 A7
               267B   A6 A6 A5 A5
    247        267F   A4 A5 A3 A3          FCB $a4,$a5,$a3,$a3,$a3,$a3,$a2,$a2,$a1,$a1,$a1,$a1,$a0,$a0,$9f,$9f,$9e,$9f,$9e,$9e,$aa,$aa,$aa,$a9,$a9,$a9,$a9,$a9,$a8,$a9,$a8,$a8,$a7,$a7,$a7,$a7,$a7,$a7,$a6,$a7
               2683   A3 A3 A2 A2
               2687   A1 A1 A1 A1
               268B   A0 A0 9F 9F
               268F   9E 9F 9E 9E
               2693   AA AA AA A9
               2697   A9 A9 A9 A9
               269B   A8 A9 A8 A8
               269F   A7 A7 A7 A7
               26A3   A7 A7 A6 A7
    248        26A7   A6 A5 A5 A5          FCB $a6,$a5,$a5,$a5,$a5,$a5,$a5,$a5,$a4,$a4,$a4,$a3,$a3,$a3,$a3,$a3,$a2,$a3,$a2,$a2,$a2,$a1,$a1,$a1,$a1,$a1,$a0,$a1,$a0,$a0,$a0,$9f,$9f,$9f,$9f,$9f,$9e,$9f,$9e,$9e
               26AB   A5 A5 A5 A5
               26AF   A4 A4 A4 A3
               26B3   A3 A3 A3 A3
               26B7   A2 A3 A2 A2
               26BB   A2 A1 A1 A1
               26BF   A1 A1 A0 A1
               26C3   A0 A0 A0 9F
               26C7   9F 9F 9F 9F
               26CB   9E 9F 9E 9E
    249        26CF   9E 9D 9D 9D          FCB $9e,$9d,$9d,$9d,$9d,$9d,$9c,$9d,$9c,$9c,$9b,$9b,$9b,$9b,$9b,$9b,$9a,$9b,$9a,$99,$99,$99,$99,$99,$99,$99,$98,$98,$98,$97,$97,$97,$97,$97,$96,$97,$96,$96,$96,$95
               26D3   9D 9D 9C 9D
               26D7   9C 9C 9B 9B
               26DB   9B 9B 9B 9B
               26DF   9A 9B 9A 99
               26E3   99 99 99 99
               26E7   99 99 98 98
               26EB   98 97 97 97
               26EF   97 97 96 97
               26F3   96 96 96 95
    250        26F7   98 98 98 98          FCB $98,$98,$98,$98,$98,$98,$98,$97,$97,$97,$97,$97,$97,$97,$97,$97,$97,$97,$97,$97,$96,$96,$96,$96,$96,$96,$96,$95,$96,$95,$95,$95,$95,$95,$95,$95,$95,$95,$95,$95
               26FB   98 98 98 97
               26FF   97 97 97 97
               2703   97 97 97 97
               2707   97 97 97 97
               270B   96 96 96 96
               270F   96 96 96 95
               2713   96 95 95 95
               2717   95 95 95 95
               271B   95 95 95 95
    251        271F   95 94 94 95          FCB $95,$94,$94,$95,$94,$94,$94,$94,$94,$94,$94,$93,$93,$93,$93,$93,$93,$93,$93,$93,$93,$93,$93,$93,$92,$92,$92,$92,$92,$92,$92,$91,$92,$91,$91,$91,$91,$91,$91,$91
               2723   94 94 94 94
               2727   94 94 94 93
               272B   93 93 93 93
               272F   93 93 93 93
               2733   93 93 93 93
               2737   92 92 92 92
               273B   92 92 92 91
               273F   92 91 91 91
               2743   91 91 91 91
    252        2747   91 91 91 91          FCB $91,$91,$91,$91,$91,$91,$90,$91,$90,$90,$90,$90,$90,$90,$90,$8f,$8f,$8f,$8f,$8f,$71,$71,$71,$71,$71,$71,$72,$71,$72,$72,$72,$72,$73,$73,$73,$73,$73,$73,$73,$74
               274B   91 91 90 91
               274F   90 90 90 90
               2753   90 90 90 8F
               2757   8F 8F 8F 8F
               275B   71 71 71 71
               275F   71 71 72 71
               2763   72 72 72 72
               2767   73 73 73 73
               276B   73 73 73 74
    253        276F   74 74 74 75          FCB $74,$74,$74,$75,$74,$75,$75,$75,$75,$75,$75,$75,$76,$76,$76,$77,$76,$77,$77,$77,$77,$77,$77,$77,$78,$78,$78,$78,$78,$79,$79,$79,$79,$79,$79,$79,$7a,$79,$7a,$7b
               2773   74 75 75 75
               2777   75 75 75 75
               277B   76 76 76 77
               277F   76 77 77 77
               2783   77 77 77 77
               2787   78 78 78 78
               278B   78 79 79 79
               278F   79 79 79 79
               2793   7A 79 7A 7B
    254        2797   7A 7B 7B 7B          FCB $7a,$7b,$7b,$7b,$7b,$7b,$7b,$7b,$7c,$7c,$7c,$7d,$7c,$7d,$7d,$7d,$7d,$7d,$7d,$7d,$7e,$7e,$7e,$7e,$7e,$7f,$7f,$7f,$7f,$7f,$7f,$7f,$80,$7f,$80,$80,$80,$81,$81,$81
               279B   7B 7B 7B 7B
               279F   7C 7C 7C 7D
               27A3   7C 7D 7D 7D
               27A7   7D 7D 7D 7D
               27AB   7E 7E 7E 7E
               27AF   7E 7F 7F 7F
               27B3   7F 7F 7F 7F
               27B7   80 7F 80 80
               27BB   80 81 81 81
    255        27BF   5D 5D 5E 5D          FCB $5d,$5d,$5e,$5d,$5e,$5f,$5f,$5f,$5f,$5f,$60,$60,$61,$61,$61,$61,$62,$61,$62,$63,$63,$63,$64,$63,$64,$65,$65,$65,$65,$65,$66,$66,$67,$67,$67,$67,$68,$67,$68,$69
               27C3   5E 5F 5F 5F
               27C7   5F 5F 60 60
               27CB   61 61 61 61
               27CF   62 61 62 63
               27D3   63 63 64 63
               27D7   64 65 65 65
               27DB   65 65 66 66
               27DF   67 67 67 67
               27E3   68 67 68 69
    256        27E7   69 69 6A 69          FCB $69,$69,$6a,$69,$6a,$6b,$6b,$6b,$6b,$6b,$6c,$6d,$6d,$6d,$6d,$6d,$6e,$6d,$6f,$6f,$6f,$6f,$70,$6f,$70,$71,$71,$71,$72,$71,$72,$73,$73,$73,$73,$73,$74,$74,$75,$75
               27EB   6A 6B 6B 6B
               27EF   6B 6B 6C 6D
               27F3   6D 6D 6D 6D
               27F7   6E 6D 6F 6F
               27FB   6F 6F 70 6F
               27FF   70 71 71 71
               2803   72 71 72 73
               2807   73 73 73 73
               280B   74 74 75 75
    257        280F   75 75 76 75          FCB $75,$75,$76,$75,$76,$77,$77,$77,$78,$77,$78,$79,$79,$79,$79,$79,$7a,$7a,$7b,$7b,$45,$45,$46,$47,$47,$47,$48,$48,$49,$49,$49,$4b,$4a,$4b,$4b,$4c,$4c,$4d,$4d,$4e
               2813   76 77 77 77
               2817   78 77 78 79
               281B   79 79 79 79
               281F   7A 7A 7B 7B
               2823   45 45 46 47
               2827   47 47 48 48
               282B   49 49 49 4B
               282F   4A 4B 4B 4C
               2833   4C 4D 4D 4E
    258        2837   4E 4F 4F 4F          FCB $4e,$4f,$4f,$4f,$50,$51,$51,$51,$52,$53,$53,$53,$54,$54,$55,$55,$56,$56,$57,$57,$57,$58,$58,$59,$59,$5a,$5a,$5b,$5b,$5c,$5c,$5d,$5d,$5d,$5e,$5f,$5f,$5f,$60,$61
               283B   50 51 51 51
               283F   52 53 53 53
               2843   54 54 55 55
               2847   56 56 57 57
               284B   57 58 58 59
               284F   59 5A 5A 5B
               2853   5B 5C 5C 5D
               2857   5D 5D 5E 5F
               285B   5F 5F 60 61
    259        285F   61 61 62 62          FCB $61,$61,$62,$62,$63,$63,$64,$65,$65,$65,$65,$66,$66,$67,$67,$68,$68,$69,$69,$69,$6a,$6b,$6b,$6b,$6c,$6d,$6d,$6d,$6e,$6f,$6f,$6f,$70,$70,$71,$71,$72,$73,$72,$73
               2863   63 63 64 65
               2867   65 65 65 66
               286B   66 67 67 68
               286F   68 69 69 69
               2873   6A 6B 6B 6B
               2877   6C 6D 6D 6D
               287B   6E 6F 6F 6F
               287F   70 70 71 71
               2883   72 73 72 73
    260        2887   2F 2F 31 31          FCB $2f,$2f,$31,$31,$32,$32,$33,$33,$34,$34,$36,$36,$37,$37,$38,$38,$39,$39,$3b,$3b,$3c,$3c,$3d,$3d,$3e,$3e,$40,$40,$41,$41,$42,$42,$43,$43,$45,$45,$46,$46,$47,$47
               288B   32 32 33 33
               288F   34 34 36 36
               2893   37 37 38 38
               2897   39 39 3B 3B
               289B   3C 3C 3D 3D
               289F   3E 3E 40 40
               28A3   41 41 42 42
               28A7   43 43 45 45
               28AB   46 46 47 47
    261        28AF   48 48 4A 4A          FCB $48,$48,$4a,$4a,$4b,$4b,$4c,$4c,$4d,$4d,$4f,$4f,$50,$50,$51,$51,$53,$53,$54,$54,$55,$55,$56,$56,$58,$58,$59,$59,$5a,$5a,$5b,$5b,$5d,$5d,$5e,$5e,$5f,$5f,$60,$60
               28B3   4B 4B 4C 4C
               28B7   4D 4D 4F 4F
               28BB   50 50 51 51
               28BF   53 53 54 54
               28C3   55 55 56 56
               28C7   58 58 59 59
               28CB   5A 5A 5B 5B
               28CF   5D 5D 5E 5E
               28D3   5F 5F 60 60
    262        28D7   62 62 63 63          FCB $62,$62,$63,$63,$64,$64,$65,$65,$67,$67,$68,$68,$69,$69,$6a,$6a,$6c,$6c,$6d,$6d,$2f,$2f,$31,$31,$32,$32,$33,$33,$34,$34,$36,$36,$37,$37,$38,$38,$39,$39,$3b,$3b
               28DB   64 64 65 65
               28DF   67 67 68 68
               28E3   69 69 6A 6A
               28E7   6C 6C 6D 6D
               28EB   2F 2F 31 31
               28EF   32 32 33 33
               28F3   34 34 36 36
               28F7   37 37 38 38
               28FB   39 39 3B 3B
    263        28FF   3C 3C 3D 3D          FCB $3c,$3c,$3d,$3d,$3e,$3e,$40,$40,$41,$41,$42,$42,$43,$43,$45,$45,$46,$46,$47,$47,$48,$48,$4a,$4a,$4b,$4b,$4c,$4c,$4d,$4d,$4f,$4f,$50,$50,$51,$51,$53,$53,$54,$54
               2903   3E 3E 40 40
               2907   41 41 42 42
               290B   43 43 45 45
               290F   46 46 47 47
               2913   48 48 4A 4A
               2917   4B 4B 4C 4C
               291B   4D 4D 4F 4F
               291F   50 50 51 51
               2923   53 53 54 54
    264        2927   55 55 56 56          FCB $55,$55,$56,$56,$58,$58,$59,$59,$5a,$5a,$5b,$5b,$5d,$5d,$5e,$5e,$5f,$5f,$60,$60,$62,$62,$63,$63,$64,$64,$65,$65,$67,$67,$68,$68,$69,$69,$6a,$6a,$6c,$6c,$6d,$6d
               292B   58 58 59 59
               292F   5A 5A 5B 5B
               2933   5D 5D 5E 5E
               2937   5F 5F 60 60
               293B   62 62 63 63
               293F   64 64 65 65
               2943   67 67 68 68
               2947   69 69 6A 6A
               294B   6C 6C 6D 6D
    265        294F                    LINE_MISSILE_Y1
    266        294F   50 4F 51 51          FCB $50,$4f,$51,$51,$52,$51,$52,$53,$53,$53,$54,$55,$55,$55,$56,$56,$57,$57,$58,$58,$59,$59,$5a,$5a,$5b,$5b,$5c,$5b,$5d,$5d,$5e,$5d,$5f,$5f,$5f,$5f,$60,$61,$61,$61
               2953   52 51 52 53
               2957   53 53 54 55
               295B   55 55 56 56
               295F   57 57 58 58
               2963   59 59 5A 5A
               2967   5B 5B 5C 5B
               296B   5D 5D 5E 5D
               296F   5F 5F 5F 5F
               2973   60 61 61 61
    267        2977   62 63 63 63          FCB $62,$63,$63,$63,$64,$64,$65,$65,$66,$66,$67,$67,$68,$68,$69,$69,$6a,$69,$6b,$6b,$6c,$6b,$6d,$6d,$6d,$6d,$6e,$6f,$6f,$6f,$70,$71,$71,$71,$72,$72,$73,$73,$74,$74
               297B   64 64 65 65
               297F   66 66 67 67
               2983   68 68 69 69
               2987   6A 69 6B 6B
               298B   6C 6B 6D 6D
               298F   6D 6D 6E 6F
               2993   6F 6F 70 71
               2997   71 71 72 72
               299B   73 73 74 74
    268        299F   75 75 76 76          FCB $75,$75,$76,$76,$77,$77,$78,$77,$79,$79,$7a,$79,$7a,$7b,$7b,$7b,$7c,$7d,$7d,$7d,$3d,$3d,$3f,$3f,$40,$3f,$41,$41,$42,$42,$43,$43,$44,$45,$45,$45,$47,$46,$48,$47
               29A3   77 77 78 77
               29A7   79 79 7A 79
               29AB   7A 7B 7B 7B
               29AF   7C 7D 7D 7D
               29B3   3D 3D 3F 3F
               29B7   40 3F 41 41
               29BB   42 42 43 43
               29BF   44 45 45 45
               29C3   47 46 48 47
    269        29C7   49 49 4A 4A          FCB $49,$49,$4a,$4a,$4b,$4b,$4c,$4c,$4e,$4d,$4f,$4f,$50,$4f,$51,$51,$52,$52,$53,$53,$54,$55,$56,$55,$57,$57,$58,$57,$59,$59,$5a,$5a,$5b,$5b,$5d,$5d,$5e,$5d,$5f,$5f
               29CB   4B 4B 4C 4C
               29CF   4E 4D 4F 4F
               29D3   50 4F 51 51
               29D7   52 52 53 53
               29DB   54 55 56 55
               29DF   57 57 58 57
               29E3   59 59 5A 5A
               29E7   5B 5B 5D 5D
               29EB   5E 5D 5F 5F
    270        29EF   60 60 61 61          FCB $60,$60,$61,$61,$62,$63,$63,$63,$65,$65,$66,$66,$67,$67,$68,$67,$69,$69,$6a,$6a,$6c,$6b,$6d,$6d,$6e,$6d,$6f,$6f,$70,$70,$71,$71,$73,$73,$74,$73,$75,$75,$76,$76
               29F3   62 63 63 63
               29F7   65 65 66 66
               29FB   67 67 68 67
               29FF   69 69 6A 6A
               2A03   6C 6B 6D 6D
               2A07   6E 6D 6F 6F
               2A0B   70 70 71 71
               2A0F   73 73 74 73
               2A13   75 75 76 76
    271        2A17   2D 2D 2E 2F          FCB $2d,$2d,$2e,$2f,$30,$2f,$31,$31,$32,$33,$34,$33,$35,$35,$37,$37,$38,$37,$39,$39,$3b,$3b,$3c,$3d,$3d,$3d,$3f,$3f,$40,$41,$42,$41,$43,$43,$44,$45,$46,$45,$47,$47
               2A1B   30 2F 31 31
               2A1F   32 33 34 33
               2A23   35 35 37 37
               2A27   38 37 39 39
               2A2B   3B 3B 3C 3D
               2A2F   3D 3D 3F 3F
               2A33   40 41 42 41
               2A37   43 43 44 45
               2A3B   46 45 47 47
    272        2A3F   48 49 4A 49          FCB $48,$49,$4a,$49,$4b,$4b,$4d,$4d,$4e,$4e,$4f,$4f,$51,$51,$52,$53,$54,$53,$55,$55,$56,$57,$58,$57,$59,$59,$5a,$5b,$5c,$5b,$5d,$5d,$5f,$5f,$60,$5f,$61,$61,$63,$63
               2A43   4B 4B 4D 4D
               2A47   4E 4E 4F 4F
               2A4B   51 51 52 53
               2A4F   54 53 55 55
               2A53   56 57 58 57
               2A57   59 59 5A 5B
               2A5B   5C 5B 5D 5D
               2A5F   5F 5F 60 5F
               2A63   61 61 63 63
    273        2A67   64 65 65 65          FCB $64,$65,$65,$65,$67,$67,$68,$69,$6a,$69,$6b,$6b,$6c,$6d,$6e,$6d,$6f,$6f,$70,$71,$2d,$2d,$2e,$2f,$30,$2f,$31,$31,$32,$33,$34,$33,$35,$35,$37,$37,$38,$37,$39,$39
               2A6B   67 67 68 69
               2A6F   6A 69 6B 6B
               2A73   6C 6D 6E 6D
               2A77   6F 6F 70 71
               2A7B   2D 2D 2E 2F
               2A7F   30 2F 31 31
               2A83   32 33 34 33
               2A87   35 35 37 37
               2A8B   38 37 39 39
    274        2A8F   3B 3B 3C 3D          FCB $3b,$3b,$3c,$3d,$3d,$3d,$3f,$3f,$40,$41,$42,$41,$43,$43,$44,$45,$46,$45,$47,$47,$48,$49,$4a,$49,$4b,$4b,$4d,$4d,$4e,$4e,$4f,$4f,$51,$51,$52,$53,$54,$53,$55,$55
               2A93   3D 3D 3F 3F
               2A97   40 41 42 41
               2A9B   43 43 44 45
               2A9F   46 45 47 47
               2AA3   48 49 4A 49
               2AA7   4B 4B 4D 4D
               2AAB   4E 4E 4F 4F
               2AAF   51 51 52 53
               2AB3   54 53 55 55
    275        2AB7   56 57 58 57          FCB $56,$57,$58,$57,$59,$59,$5a,$5b,$5c,$5b,$5d,$5d,$5f,$5f,$60,$5f,$61,$61,$63,$63,$64,$65,$65,$65,$67,$67,$68,$69,$6a,$69,$6b,$6b,$6c,$6d,$6e,$6d,$6f,$6f,$70,$71
               2ABB   59 59 5A 5B
               2ABF   5C 5B 5D 5D
               2AC3   5F 5F 60 5F
               2AC7   61 61 63 63
               2ACB   64 65 65 65
               2ACF   67 67 68 69
               2AD3   6A 69 6B 6B
               2AD7   6C 6D 6E 6D
               2ADB   6F 6F 70 71
    276        2ADF   3E 3E 3F 3F          FCB $3e,$3e,$3f,$3f,$40,$41,$42,$42,$43,$43,$44,$44,$45,$45,$46,$47,$47,$47,$49,$49,$4a,$4a,$4b,$4b,$4c,$4d,$4d,$4d,$4e,$4f,$4f,$4f,$51,$51,$52,$52,$53,$53,$54,$55
               2AE3   40 41 42 42
               2AE7   43 43 44 44
               2AEB   45 45 46 47
               2AEF   47 47 49 49
               2AF3   4A 4A 4B 4B
               2AF7   4C 4D 4D 4D
               2AFB   4E 4F 4F 4F
               2AFF   51 51 52 52
               2B03   53 53 54 55
    277        2B07   55 55 56 57          FCB $55,$55,$56,$57,$58,$58,$59,$59,$5a,$5a,$5b,$5b,$5c,$5d,$5d,$5e,$5f,$5f,$60,$5f,$61,$61,$62,$62,$63,$63,$64,$65,$65,$65,$67,$67,$68,$68,$69,$69,$6a,$6b,$6b,$6b
               2B0B   58 58 59 59
               2B0F   5A 5A 5B 5B
               2B13   5C 5D 5D 5E
               2B17   5F 5F 60 5F
               2B1B   61 61 62 62
               2B1F   63 63 64 65
               2B23   65 65 67 67
               2B27   68 68 69 69
               2B2B   6A 6B 6B 6B
    278        2B2F   6C 6D 6E 6E          FCB $6c,$6d,$6e,$6e,$6f,$6f,$70,$70,$71,$71,$72,$72,$73,$73,$74,$75,$76,$76,$77,$77,$52,$51,$53,$53,$54,$53,$54,$55,$55,$55,$56,$57,$57,$57,$58,$58,$59,$59,$5a,$5a
               2B33   6F 6F 70 70
               2B37   71 71 72 72
               2B3B   73 73 74 75
               2B3F   76 76 77 77
               2B43   52 51 53 53
               2B47   54 53 54 55
               2B4B   55 55 56 57
               2B4F   57 57 58 58
               2B53   59 59 5A 5A
    279        2B57   5B 5B 5C 5C          FCB $5b,$5b,$5c,$5c,$5d,$5d,$5e,$5d,$5f,$5f,$60,$5f,$61,$61,$61,$61,$62,$63,$63,$63,$64,$65,$65,$65,$66,$66,$67,$67,$68,$68,$69,$69,$6a,$6a,$6b,$6b,$6c,$6b,$6d,$6d
               2B5B   5D 5D 5E 5D
               2B5F   5F 5F 60 5F
               2B63   61 61 61 61
               2B67   62 63 63 63
               2B6B   64 65 65 65
               2B6F   66 66 67 67
               2B73   68 68 69 69
               2B77   6A 6A 6B 6B
               2B7B   6C 6B 6D 6D
    280        2B7F   6E 6D 6F 6F          FCB $6e,$6d,$6f,$6f,$6f,$6f,$70,$71,$71,$71,$72,$73,$73,$73,$74,$74,$75,$75,$76,$76,$77,$77,$78,$78,$79,$79,$7a,$79,$7b,$7b,$7c,$7b,$7c,$7d,$7d,$7d,$7e,$7f,$7f,$7f
               2B83   6F 6F 70 71
               2B87   71 71 72 73
               2B8B   73 73 74 74
               2B8F   75 75 76 76
               2B93   77 77 78 78
               2B97   79 79 7A 79
               2B9B   7B 7B 7C 7B
               2B9F   7C 7D 7D 7D
               2BA3   7E 7F 7F 7F
    281        2BA7   66 65 66 66          FCB $66,$65,$66,$66,$67,$67,$68,$67,$68,$68,$69,$69,$6a,$69,$6a,$69,$6b,$6b,$6c,$6b,$6c,$6b,$6d,$6d,$6d,$6d,$6e,$6d,$6f,$6f,$6f,$6f,$70,$6f,$71,$71,$71,$71,$72,$71
               2BAB   67 67 68 67
               2BAF   68 68 69 69
               2BB3   6A 69 6A 69
               2BB7   6B 6B 6C 6B
               2BBB   6C 6B 6D 6D
               2BBF   6D 6D 6E 6D
               2BC3   6F 6F 6F 6F
               2BC7   70 6F 71 71
               2BCB   71 71 72 71
    282        2BCF   72 72 73 73          FCB $72,$72,$73,$73,$74,$73,$74,$73,$75,$75,$76,$75,$76,$75,$77,$77,$77,$77,$78,$77,$79,$79,$79,$79,$7a,$79,$7b,$7b,$7b,$7b,$7c,$7b,$7d,$7c,$7d,$7d,$7e,$7d,$7e,$7e
               2BD3   74 73 74 73
               2BD7   75 75 76 75
               2BDB   76 75 77 77
               2BDF   77 77 78 77
               2BE3   79 79 79 79
               2BE7   7A 79 7B 7B
               2BEB   7B 7B 7C 7B
               2BEF   7D 7C 7D 7D
               2BF3   7E 7D 7E 7E
    283        2BF7   7F 7F 80 7F          FCB $7f,$7f,$80,$7f,$80,$80,$81,$81,$82,$81,$82,$82,$83,$83,$83,$83,$84,$84,$85,$85,$90,$90,$90,$90,$90,$90,$90,$90,$90,$90,$90,$90,$90,$90,$91,$91,$91,$90,$91,$90
               2BFB   80 80 81 81
               2BFF   82 81 82 82
               2C03   83 83 83 83
               2C07   84 84 85 85
               2C0B   90 90 90 90
               2C0F   90 90 90 90
               2C13   90 90 90 90
               2C17   90 90 91 91
               2C1B   91 90 91 90
    284        2C1F   91 91 91 90          FCB $91,$91,$91,$90,$91,$90,$91,$91,$91,$91,$91,$90,$91,$91,$91,$91,$91,$91,$91,$91,$91,$91,$91,$91,$91,$91,$91,$91,$91,$91,$91,$91,$91,$91,$91,$91,$91,$91,$91,$91
               2C23   91 90 91 91
               2C27   91 91 91 90
               2C2B   91 91 91 91
               2C2F   91 91 91 91
               2C33   91 91 91 91
               2C37   91 91 91 91
               2C3B   91 91 91 91
               2C3F   91 91 91 91
               2C43   91 91 91 91
    285        2C47   91 91 91 91          FCB $91,$91,$91,$91,$91,$91,$91,$91,$91,$91,$91,$91,$91,$91,$91,$91,$91,$91,$91,$91,$91,$91,$91,$91,$91,$91,$91,$91,$91,$91,$91,$91,$92,$91,$92,$91,$92,$91,$92,$91
               2C4B   91 91 91 91
               2C4F   91 91 91 91
               2C53   91 91 91 91
               2C57   91 91 91 91
               2C5B   91 91 91 91
               2C5F   91 91 91 91
               2C63   91 91 91 91
               2C67   92 91 92 91
               2C6B   92 91 92 91
    286        2C6F   A5 A5 A4 A4          FCB $a5,$a5,$a4,$a4,$a4,$a4,$a4,$a4,$a4,$a3,$a3,$a3,$a3,$a3,$a3,$a3,$a2,$a3,$a2,$a2,$a2,$a2,$a2,$a1,$a1,$a1,$a1,$a1,$a1,$a1,$a0,$a1,$a0,$a0,$a0,$a0,$a0,$a0,$9f,$9f
               2C73   A4 A4 A4 A4
               2C77   A4 A3 A3 A3
               2C7B   A3 A3 A3 A3
               2C7F   A2 A3 A2 A2
               2C83   A2 A2 A2 A1
               2C87   A1 A1 A1 A1
               2C8B   A1 A1 A0 A1
               2C8F   A0 A0 A0 A0
               2C93   A0 A0 9F 9F
    287        2C97   9F 9F 9F 9F          FCB $9f,$9f,$9f,$9f,$9f,$9f,$9e,$9e,$9e,$9e,$9e,$9e,$9d,$9d,$9d,$9d,$9d,$9d,$9d,$9d,$9c,$9c,$9c,$9c,$9c,$9c,$9c,$9b,$9b,$9b,$9b,$9b,$9b,$9b,$9a,$9b,$9a,$9a,$9a,$9a
               2C9B   9F 9F 9E 9E
               2C9F   9E 9E 9E 9E
               2CA3   9D 9D 9D 9D
               2CA7   9D 9D 9D 9D
               2CAB   9C 9C 9C 9C
               2CAF   9C 9C 9C 9B
               2CB3   9B 9B 9B 9B
               2CB7   9B 9B 9A 9B
               2CBB   9A 9A 9A 9A
    288        2CBF   9A 99 99 99          FCB $9a,$99,$99,$99,$99,$99,$99,$99,$98,$99,$98,$98,$98,$98,$98,$98,$97,$97,$97,$97,$b9,$b9,$b9,$b9,$b8,$b9,$b8,$b8,$b7,$b7,$b7,$b7,$b6,$b7,$b6,$b6,$b5,$b5,$b5,$b5
               2CC3   99 99 99 99
               2CC7   98 99 98 98
               2CCB   98 98 98 98
               2CCF   97 97 97 97
               2CD3   B9 B9 B9 B9
               2CD7   B8 B9 B8 B8
               2CDB   B7 B7 B7 B7
               2CDF   B6 B7 B6 B6
               2CE3   B5 B5 B5 B5
    289        2CE7   B4 B5 B4 B4          FCB $b4,$b5,$b4,$b4,$b3,$b3,$b3,$b3,$b2,$b3,$b2,$b2,$b1,$b1,$b1,$b1,$b0,$b1,$b0,$af,$af,$af,$af,$af,$ae,$af,$ae,$ad,$ad,$ad,$ad,$ad,$ac,$ad,$ac,$ab,$ab,$ab,$ab,$ab
               2CEB   B3 B3 B3 B3
               2CEF   B2 B3 B2 B2
               2CF3   B1 B1 B1 B1
               2CF7   B0 B1 B0 AF
               2CFB   AF AF AF AF
               2CFF   AE AF AE AD
               2D03   AD AD AD AD
               2D07   AC AD AC AB
               2D0B   AB AB AB AB
    290        2D0F   AA AA AA A9          FCB $aa,$aa,$aa,$a9,$a9,$a9,$a9,$a9,$a8,$a8,$a8,$a7,$a7,$a7,$a7,$a7,$a6,$a6,$a6,$a5,$a5,$a5,$a5,$a5,$a4,$a4,$a4,$a3,$a3,$a3,$a3,$a3,$a2,$a2,$a1,$a1,$a1,$a1,$a0,$a1
               2D13   A9 A9 A9 A9
               2D17   A8 A8 A8 A7
               2D1B   A7 A7 A7 A7
               2D1F   A6 A6 A6 A5
               2D23   A5 A5 A5 A5
               2D27   A4 A4 A4 A3
               2D2B   A3 A3 A3 A3
               2D2F   A2 A2 A1 A1
               2D33   A1 A1 A0 A1
    291        2D37   CC CC CC CC          FCB $cc,$cc,$cc,$cc,$cb,$cb,$ca,$ca,$c9,$c9,$c9,$c9,$c8,$c8,$c7,$c7,$c6,$c6,$c6,$c6,$c5,$c5,$c4,$c4,$c3,$c3,$c3,$c3,$c2,$c2,$c1,$c1,$c0,$c0,$c0,$c0,$bf,$bf,$be,$be
               2D3B   CB CB CA CA
               2D3F   C9 C9 C9 C9
               2D43   C8 C8 C7 C7
               2D47   C6 C6 C6 C6
               2D4B   C5 C5 C4 C4
               2D4F   C3 C3 C3 C3
               2D53   C2 C2 C1 C1
               2D57   C0 C0 C0 C0
               2D5B   BF BF BE BE
    292        2D5F   BD BD BD BD          FCB $bd,$bd,$bd,$bd,$bc,$bc,$bb,$bb,$bb,$bb,$ba,$ba,$b9,$b9,$b8,$b8,$b8,$b8,$b7,$b7,$b6,$b6,$b5,$b5,$b5,$b5,$b4,$b4,$b3,$b3,$b2,$b2,$b2,$b2,$b1,$b1,$b0,$b0,$af,$af
               2D63   BC BC BB BB
               2D67   BB BB BA BA
               2D6B   B9 B9 B8 B8
               2D6F   B8 B8 B7 B7
               2D73   B6 B6 B5 B5
               2D77   B5 B5 B4 B4
               2D7B   B3 B3 B2 B2
               2D7F   B2 B2 B1 B1
               2D83   B0 B0 AF AF
    293        2D87   AF AF AE AE          FCB $af,$af,$ae,$ae,$ad,$ad,$ac,$ac,$ac,$ac,$ab,$ab,$aa,$aa,$a9,$a9,$a9,$a9,$a8,$a8,$cc,$cc,$cc,$cc,$cb,$cb,$ca,$ca,$c9,$c9,$c9,$c9,$c8,$c8,$c7,$c7,$c6,$c6,$c6,$c6
               2D8B   AD AD AC AC
               2D8F   AC AC AB AB
               2D93   AA AA A9 A9
               2D97   A9 A9 A8 A8
               2D9B   CC CC CC CC
               2D9F   CB CB CA CA
               2DA3   C9 C9 C9 C9
               2DA7   C8 C8 C7 C7
               2DAB   C6 C6 C6 C6
    294        2DAF   C5 C5 C4 C4          FCB $c5,$c5,$c4,$c4,$c3,$c3,$c3,$c3,$c2,$c2,$c1,$c1,$c0,$c0,$c0,$c0,$bf,$bf,$be,$be,$bd,$bd,$bd,$bd,$bc,$bc,$bb,$bb,$bb,$bb,$ba,$ba,$b9,$b9,$b8,$b8,$b8,$b8,$b7,$b7
               2DB3   C3 C3 C3 C3
               2DB7   C2 C2 C1 C1
               2DBB   C0 C0 C0 C0
               2DBF   BF BF BE BE
               2DC3   BD BD BD BD
               2DC7   BC BC BB BB
               2DCB   BB BB BA BA
               2DCF   B9 B9 B8 B8
               2DD3   B8 B8 B7 B7
    295        2DD7   B6 B6 B5 B5          FCB $b6,$b6,$b5,$b5,$b5,$b5,$b4,$b4,$b3,$b3,$b2,$b2,$b2,$b2,$b1,$b1,$b0,$b0,$af,$af,$af,$af,$ae,$ae,$ad,$ad,$ac,$ac,$ac,$ac,$ab,$ab,$aa,$aa,$a9,$a9,$a9,$a9,$a8,$a8
               2DDB   B5 B5 B4 B4
               2DDF   B3 B3 B2 B2
               2DE3   B2 B2 B1 B1
               2DE7   B0 B0 AF AF
               2DEB   AF AF AE AE
               2DEF   AD AD AC AC
               2DF3   AC AC AB AB
               2DF7   AA AA A9 A9
               2DFB   A9 A9 A8 A8
    296        2DFF   BA B9 B9 B9          FCB $ba,$b9,$b9,$b9,$b8,$b9,$b8,$b7,$b7,$b7,$b7,$b7,$b6,$b7,$b6,$b5,$b5,$b5,$b5,$b5,$b4,$b4,$b4,$b3,$b3,$b3,$b3,$b3,$b2,$b2,$b2,$b1,$b1,$b1,$b1,$b1,$b0,$b0,$b0,$af
               2E03   B8 B9 B8 B7
               2E07   B7 B7 B7 B7
               2E0B   B6 B7 B6 B5
               2E0F   B5 B5 B5 B5
               2E13   B4 B4 B4 B3
               2E17   B3 B3 B3 B3
               2E1B   B2 B2 B2 B1
               2E1F   B1 B1 B1 B1
               2E23   B0 B0 B0 AF
    297        2E27   AF AF AF AF          FCB $af,$af,$af,$af,$ae,$ae,$ae,$ad,$ad,$ad,$ad,$ad,$ac,$ac,$ac,$ab,$ab,$ab,$ab,$ab,$aa,$aa,$a9,$a9,$a9,$a9,$a8,$a9,$a8,$a7,$a7,$a7,$a7,$a7,$a6,$a7,$a6,$a5,$a5,$a5
               2E2B   AE AE AE AD
               2E2F   AD AD AD AD
               2E33   AC AC AC AB
               2E37   AB AB AB AB
               2E3B   AA AA A9 A9
               2E3F   A9 A9 A8 A9
               2E43   A8 A7 A7 A7
               2E47   A7 A7 A6 A7
               2E4B   A6 A5 A5 A5
    298        2E4F   A5 A5 A4 A4          FCB $a5,$a5,$a4,$a4,$a4,$a3,$a3,$a3,$a3,$a3,$a2,$a2,$a2,$a1,$a1,$a1,$a1,$a1,$a0,$a0,$a5,$a5,$a4,$a4,$a4,$a4,$a4,$a3,$a3,$a3,$a3,$a3,$a3,$a3,$a2,$a3,$a2,$a2,$a2,$a2
               2E53   A4 A3 A3 A3
               2E57   A3 A3 A2 A2
               2E5B   A2 A1 A1 A1
               2E5F   A1 A1 A0 A0
               2E63   A5 A5 A4 A4
               2E67   A4 A4 A4 A3
               2E6B   A3 A3 A3 A3
               2E6F   A3 A3 A2 A3
               2E73   A2 A2 A2 A2
    299        2E77   A2 A1 A1 A1          FCB $a2,$a1,$a1,$a1,$a1,$a1,$a1,$a1,$a0,$a1,$a0,$a0,$a0,$a0,$a0,$9f,$9f,$9f,$9f,$9f,$9f,$9f,$9e,$9f,$9e,$9e,$9e,$9e,$9d,$9d,$9d,$9d,$9d,$9d,$9d,$9d,$9c,$9c,$9c,$9c
               2E7B   A1 A1 A1 A1
               2E7F   A0 A1 A0 A0
               2E83   A0 A0 A0 9F
               2E87   9F 9F 9F 9F
               2E8B   9F 9F 9E 9F
               2E8F   9E 9E 9E 9E
               2E93   9D 9D 9D 9D
               2E97   9D 9D 9D 9D
               2E9B   9C 9C 9C 9C
    300        2E9F   9C 9C 9B 9B          FCB $9c,$9c,$9b,$9b,$9b,$9b,$9b,$9b,$9b,$9b,$9a,$9a,$9a,$9a,$9a,$9a,$99,$99,$99,$99,$99,$99,$99,$99,$98,$98,$98,$98,$98,$97,$97,$97,$97,$97,$97,$97,$96,$97,$96,$96
               2EA3   9B 9B 9B 9B
               2EA7   9B 9B 9A 9A
               2EAB   9A 9A 9A 9A
               2EAF   99 99 99 99
               2EB3   99 99 99 99
               2EB7   98 98 98 98
               2EBB   98 97 97 97
               2EBF   97 97 97 97
               2EC3   96 97 96 96
    301        2EC7   94 94 94 94          FCB $94,$94,$94,$94,$94,$94,$94,$94,$94,$94,$94,$93,$94,$93,$94,$93,$94,$93,$94,$93,$94,$93,$93,$93,$93,$93,$93,$93,$93,$93,$93,$93,$93,$93,$93,$93,$93,$93,$93,$93
               2ECB   94 94 94 94
               2ECF   94 94 94 93
               2ED3   94 93 94 93
               2ED7   94 93 94 93
               2EDB   94 93 93 93
               2EDF   93 93 93 93
               2EE3   93 93 93 93
               2EE7   93 93 93 93
               2EEB   93 93 93 93
    302        2EEF   93 93 93 93          FCB $93,$93,$93,$93,$93,$93,$93,$93,$93,$93,$93,$92,$92,$92,$92,$93,$92,$92,$92,$92,$92,$92,$92,$92,$92,$91,$92,$92,$92,$92,$92,$91,$92,$91,$92,$91,$92,$91,$92,$91
               2EF3   93 93 93 93
               2EF7   93 93 93 92
               2EFB   92 92 92 93
               2EFF   92 92 92 92
               2F03   92 92 92 92
               2F07   92 91 92 92
               2F0B   92 92 92 91
               2F0F   92 91 92 91
               2F13   92 91 92 91
    303        2F17   91 91 91 91          FCB $91,$91,$91,$91,$91,$91,$91,$91,$91,$91,$91,$91,$91,$91,$91,$91,$91,$91,$91,$91,$68,$69,$69,$69,$69,$6a,$6a,$6b,$6a,$6b,$6b,$6c,$6b,$6d,$6c,$6d,$6d,$6d,$6d,$6f
               2F1B   91 91 91 91
               2F1F   91 91 91 91
               2F23   91 91 91 91
               2F27   91 91 91 91
               2F2B   68 69 69 69
               2F2F   69 6A 6A 6B
               2F33   6A 6B 6B 6C
               2F37   6B 6D 6C 6D
               2F3B   6D 6D 6D 6F
    304        2F3F   6E 6F 6E 6F          FCB $6e,$6f,$6e,$6f,$6f,$70,$6f,$70,$70,$71,$70,$71,$71,$72,$71,$73,$72,$73,$72,$73,$73,$74,$74,$75,$74,$75,$75,$76,$75,$77,$76,$77,$76,$77,$77,$78,$77,$78,$78,$79
               2F43   6F 70 6F 70
               2F47   70 71 70 71
               2F4B   71 72 71 73
               2F4F   72 73 72 73
               2F53   73 74 74 75
               2F57   74 75 75 76
               2F5B   75 77 76 77
               2F5F   76 77 77 78
               2F63   77 78 78 79
    305        2F67   78 79 79 7A          FCB $78,$79,$79,$7a,$7a,$7b,$7a,$7b,$7b,$7b,$7b,$7d,$7c,$7d,$7c,$7d,$7d,$7e,$7d,$7f,$7e,$7f,$7e,$80,$7f,$80,$80,$81,$80,$81,$81,$81,$81,$82,$82,$83,$82,$83,$83,$84
               2F6B   7A 7B 7A 7B
               2F6F   7B 7B 7B 7D
               2F73   7C 7D 7C 7D
               2F77   7D 7E 7D 7F
               2F7B   7E 7F 7E 80
               2F7F   7F 80 80 81
               2F83   80 81 81 81
               2F87   81 82 82 83
               2F8B   82 83 83 84
    306        2F8F                    LINE_MISSILE_DX
    307        2F8F   15 1C 14 1C          FCB $15,$1c,$14,$1c,$14,$1b,$13,$1b,$13,$1b,$13,$1a,$12,$1a,$13,$1a,$12,$1a,$12,$19,$12,$19,$11,$18,$11,$19,$10,$17,$10,$18,$10,$17,$f,$17,$f,$16,$e,$16,$e,$16
               2F93   14 1B 13 1B
               2F97   13 1B 13 1A
               2F9B   12 1A 13 1A
               2F9F   12 1A 12 19
               2FA3   12 19 11 18
               2FA7   11 19 10 17
               2FAB   10 18 10 17
               2FAF   0F 17 0F 16
               2FB3   0E 16 0E 16
    308        2FB7   0E 16 0D 15          FCB $e,$16,$d,$15,$e,$15,$d,$15,$d,$14,$d,$14,$c,$13,$c,$14,$c,$13,$b,$13,$b,$12,$a,$12,$a,$11,$a,$11,$9,$11,$9,$11,$9,$10,$9,$10,$9,$10,$8,$f
               2FBB   0E 15 0D 15
               2FBF   0D 14 0D 14
               2FC3   0C 13 0C 14
               2FC7   0C 13 0B 13
               2FCB   0B 12 0A 12
               2FCF   0A 11 0A 11
               2FD3   09 11 09 11
               2FD7   09 10 09 10
               2FDB   09 10 08 0F
    309        2FDF   08 0F 07 0E          FCB $8,$f,$7,$e,$7,$f,$7,$e,$6,$e,$6,$d,$5,$d,$5,$d,$5,$c,$4,$c,$3,$3,$4,$4,$3,$3,$4,$3,$3,$4,$3,$3,$4,$3,$3,$4,$4,$4,$3,$3
               2FE3   07 0F 07 0E
               2FE7   06 0E 06 0D
               2FEB   05 0D 05 0D
               2FEF   05 0C 04 0C
               2FF3   03 03 04 04
               2FF7   03 03 04 03
               2FFB   03 04 03 03
               2FFF   04 03 03 04
               3003   04 04 03 03
    310        3007   03 03 04 04          FCB $3,$3,$4,$4,$3,$3,$4,$3,$3,$4,$3,$3,$4,$3,$3,$4,$4,$4,$3,$3,$3,$4,$4,$4,$3,$3,$4,$3,$4,$4,$3,$3,$4,$3,$3,$4,$3,$3,$4,$3
               300B   03 03 04 03
               300F   03 04 03 03
               3013   04 03 03 04
               3017   04 04 03 03
               301B   03 04 04 04
               301F   03 03 04 03
               3023   04 04 03 03
               3027   04 03 03 04
               302B   03 03 04 03
    311        302F   03 04 04 04          FCB $3,$4,$4,$4,$3,$3,$3,$3,$4,$4,$3,$3,$4,$3,$3,$4,$3,$3,$4,$3,$3,$4,$4,$4,$3,$3,$3,$3,$4,$4,$3,$3,$4,$3,$3,$4,$3,$3,$4,$3
               3033   03 03 03 03
               3037   04 04 03 03
               303B   04 03 03 04
               303F   03 03 04 03
               3043   03 04 04 04
               3047   03 03 03 03
               304B   04 04 03 03
               304F   04 03 03 04
               3053   03 03 04 03
    312        3057   14 16 13 16          FCB $14,$16,$13,$16,$13,$16,$13,$16,$12,$16,$12,$15,$12,$15,$12,$14,$12,$14,$12,$14,$11,$14,$11,$14,$11,$13,$10,$13,$10,$13,$10,$13,$f,$13,$f,$12,$f,$12,$e,$11
               305B   13 16 13 16
               305F   12 16 12 15
               3063   12 15 12 14
               3067   12 14 12 14
               306B   11 14 11 14
               306F   11 13 10 13
               3073   10 13 10 13
               3077   0F 13 0F 12
               307B   0F 12 0E 11
    313        307F   0E 11 0F 11          FCB $e,$11,$f,$11,$e,$11,$e,$11,$e,$10,$d,$f,$d,$f,$d,$f,$c,$f,$c,$f,$c,$e,$b,$e,$b,$e,$b,$e,$a,$e,$a,$d,$b,$d,$a,$c,$a,$c,$a,$c
               3083   0E 11 0E 11
               3087   0E 10 0D 0F
               308B   0D 0F 0D 0F
               308F   0C 0F 0C 0F
               3093   0C 0E 0B 0E
               3097   0B 0E 0B 0E
               309B   0A 0E 0A 0D
               309F   0B 0D 0A 0C
               30A3   0A 0C 0A 0C
    314        30A7   09 0C 09 0C          FCB $9,$c,$9,$c,$9,$b,$8,$b,$8,$b,$8,$b,$7,$b,$7,$a,$7,$9,$6,$9,$15,$13,$14,$13,$14,$12,$13,$12,$14,$12,$14,$12,$13,$12,$13,$11,$12,$11,$12,$11
               30AB   09 0B 08 0B
               30AF   08 0B 08 0B
               30B3   07 0B 07 0A
               30B7   07 09 06 09
               30BB   15 13 14 13
               30BF   14 12 13 12
               30C3   14 12 14 12
               30C7   13 12 13 11
               30CB   12 11 12 11
    315        30CF   12 11 12 11          FCB $12,$11,$12,$11,$12,$10,$11,$10,$11,$f,$10,$f,$11,$f,$11,$f,$10,$f,$10,$f,$f,$f,$10,$e,$f,$e,$f,$e,$f,$d,$e,$d,$e,$d,$e,$c,$e,$c,$e,$c
               30D3   12 10 11 10
               30D7   11 0F 10 0F
               30DB   11 0F 11 0F
               30DF   10 0F 10 0F
               30E3   0F 0F 10 0E
               30E7   0F 0E 0F 0E
               30EB   0F 0D 0E 0D
               30EF   0E 0D 0E 0C
               30F3   0E 0C 0E 0C
    316        30F7   0D 0C 0D 0C          FCB $d,$c,$d,$c,$c,$c,$d,$c,$d,$b,$c,$b,$c,$a,$b,$a,$b,$a,$b,$9,$b,$9,$b,$9,$a,$9,$a,$9,$9,$9,$a,$9,$a,$8,$9,$8,$9,$7,$8,$7
               30FB   0C 0C 0D 0C
               30FF   0D 0B 0C 0B
               3103   0C 0A 0B 0A
               3107   0B 0A 0B 09
               310B   0B 09 0B 09
               310F   0A 09 0A 09
               3113   09 09 0A 09
               3117   0A 08 09 08
               311B   09 07 08 07
    317        311F   03 03 02 03          FCB $3,$3,$2,$3,$3,$3,$2,$2,$3,$2,$3,$3,$3,$3,$3,$3,$2,$2,$3,$2,$2,$3,$3,$3,$3,$3,$2,$2,$3,$3,$2,$3,$3,$3,$3,$3,$3,$2,$3,$3
               3123   03 03 02 02
               3127   03 02 03 03
               312B   03 03 03 03
               312F   02 02 03 02
               3133   02 03 03 03
               3137   03 03 02 02
               313B   03 03 02 03
               313F   03 03 03 03
               3143   03 02 03 03
    318        3147   02 03 03 03          FCB $2,$3,$3,$3,$2,$2,$3,$2,$3,$3,$2,$3,$3,$3,$2,$2,$3,$2,$3,$3,$2,$3,$3,$3,$2,$2,$3,$2,$3,$3,$3,$3,$3,$3,$2,$2,$3,$2,$2,$3
               314B   02 02 03 02
               314F   03 03 02 03
               3153   03 03 02 02
               3157   03 02 03 03
               315B   02 03 03 03
               315F   02 02 03 02
               3163   03 03 03 03
               3167   03 03 02 02
               316B   03 02 02 03
    319        316F   03 03 03 03          FCB $3,$3,$3,$3,$2,$2,$3,$3,$2,$3,$3,$3,$3,$3,$3,$2,$3,$3,$2,$3,$1a,$14,$1a,$14,$19,$13,$19,$14,$19,$13,$18,$12,$18,$13,$18,$12,$18,$12,$17,$12
               3173   02 02 03 03
               3177   02 03 03 03
               317B   03 03 03 02
               317F   03 03 02 03
               3183   1A 14 1A 14
               3187   19 13 19 14
               318B   19 13 18 12
               318F   18 13 18 12
               3193   18 12 17 12
    320        3197   17 11 17 11          FCB $17,$11,$17,$11,$16,$11,$16,$10,$16,$10,$16,$10,$15,$f,$15,$f,$15,$f,$14,$e,$14,$e,$14,$d,$14,$e,$13,$d,$13,$c,$13,$d,$12,$c,$12,$c,$11,$c,$11,$b
               319B   16 11 16 10
               319F   16 10 16 10
               31A3   15 0F 15 0F
               31A7   15 0F 14 0E
               31AB   14 0E 14 0D
               31AF   14 0E 13 0D
               31B3   13 0C 13 0D
               31B7   12 0C 12 0C
               31BB   11 0C 11 0B
    321        31BF   10 0B 10 0B          FCB $10,$b,$10,$b,$10,$a,$f,$a,$f,$a,$f,$9,$f,$9,$e,$9,$e,$8,$e,$9,$d,$8,$d,$7,$d,$8,$d,$7,$c,$7,$c,$7,$c,$6,$c,$6,$b,$6,$b,$5
               31C3   10 0A 0F 0A
               31C7   0F 0A 0F 09
               31CB   0F 09 0E 09
               31CF   0E 08 0E 09
               31D3   0D 08 0D 07
               31D7   0D 08 0D 07
               31DB   0C 07 0C 07
               31DF   0C 06 0C 06
               31E3   0B 06 0B 05
    322        31E7   05 05 05 05          FCB $5,$5,$5,$5,$5,$5,$5,$5,$5,$5,$5,$5,$5,$5,$5,$5,$5,$5,$5,$5,$5,$5,$5,$5,$5,$5,$5,$5,$5,$5,$5,$5,$5,$5,$5,$5,$5,$5,$5,$5
               31EB   05 05 05 05
               31EF   05 05 05 05
               31F3   05 05 05 05
               31F7   05 05 05 05
               31FB   05 05 05 05
               31FF   05 05 05 05
               3203   05 05 05 05
               3207   05 05 05 05
               320B   05 05 05 05
    323        320F   05 06 05 05          FCB $5,$6,$5,$5,$5,$6,$5,$5,$6,$6,$6,$5,$6,$6,$6,$5,$5,$5,$5,$5,$5,$5,$5,$5,$5,$5,$5,$5,$5,$5,$5,$5,$5,$5,$5,$5,$5,$5,$5,$5
               3213   05 06 05 05
               3217   06 06 06 05
               321B   06 06 06 05
               321F   05 05 05 05
               3223   05 05 05 05
               3227   05 05 05 05
               322B   05 05 05 05
               322F   05 05 05 05
               3233   05 05 05 05
    324        3237   05 05 05 05          FCB $5,$5,$5,$5,$5,$5,$5,$5,$5,$5,$5,$5,$5,$5,$5,$5,$5,$5,$5,$5,$5,$5,$5,$5,$5,$5,$5,$5,$5,$5,$5,$5,$5,$5,$5,$5,$5,$5,$5,$5
               323B   05 05 05 05
               323F   05 05 05 05
               3243   05 05 05 05
               3247   05 05 05 05
               324B   05 05 05 05
               324F   05 05 05 05
               3253   05 05 05 05
               3257   05 05 05 05
               325B   05 05 05 05
    325        325F   05 05 05 05          FCB $5,$5,$5,$5,$5,$5,$5,$5,$5,$5,$5,$5,$5,$5,$5,$5,$5,$5,$5,$5,$5,$6,$5,$5,$5,$6,$5,$5,$6,$6,$6,$5,$6,$6,$6,$5,$5,$5,$5,$5
               3263   05 05 05 05
               3267   05 05 05 05
               326B   05 05 05 05
               326F   05 05 05 05
               3273   05 06 05 05
               3277   05 06 05 05
               327B   06 06 06 05
               327F   06 06 06 05
               3283   05 05 05 05
    326        3287   05 05 05 05          FCB $5,$5,$5,$5,$5,$5,$5,$5,$5,$5,$5,$5,$5,$5,$5,$5,$5,$5,$5,$5,$5,$5,$5,$5,$5,$5,$5,$5,$5,$5,$5,$5,$5,$5,$5,$5,$5,$5,$5,$5
               328B   05 05 05 05
               328F   05 05 05 05
               3293   05 05 05 05
               3297   05 05 05 05
               329B   05 05 05 05
               329F   05 05 05 05
               32A3   05 05 05 05
               32A7   05 05 05 05
               32AB   05 05 05 05
    327        32AF   14 1A 14 19          FCB $14,$1a,$14,$19,$13,$1a,$14,$19,$13,$18,$12,$19,$12,$18,$12,$18,$12,$18,$11,$17,$12,$17,$11,$17,$10,$16,$10,$16,$10,$16,$10,$15,$f,$15,$f,$15,$f,$14,$e,$15
               32B3   13 1A 14 19
               32B7   13 18 12 19
               32BB   12 18 12 18
               32BF   12 18 11 17
               32C3   12 17 11 17
               32C7   10 16 10 16
               32CB   10 16 10 15
               32CF   0F 15 0F 15
               32D3   0F 14 0E 15
    328        32D7   0E 14 0E 13          FCB $e,$14,$e,$13,$e,$14,$d,$13,$d,$13,$d,$13,$c,$12,$c,$12,$c,$11,$b,$11,$b,$11,$b,$10,$b,$10,$a,$10,$9,$f,$a,$f,$9,$f,$9,$e,$9,$e,$9,$e
               32DB   0E 14 0D 13
               32DF   0D 13 0D 13
               32E3   0C 12 0C 12
               32E7   0C 11 0B 11
               32EB   0B 11 0B 10
               32EF   0B 10 0A 10
               32F3   09 0F 0A 0F
               32F7   09 0F 09 0E
               32FB   09 0E 09 0E
    329        32FF   08 0D 07 0E          FCB $8,$d,$7,$e,$8,$d,$7,$d,$7,$d,$7,$c,$6,$c,$6,$c,$5,$b,$6,$b,$3,$3,$2,$3,$3,$3,$2,$2,$3,$2,$3,$3,$3,$3,$3,$3,$2,$2,$3,$2
               3303   08 0D 07 0D
               3307   07 0D 07 0C
               330B   06 0C 06 0C
               330F   05 0B 06 0B
               3313   03 03 02 03
               3317   03 03 02 02
               331B   03 02 03 03
               331F   03 03 03 03
               3323   02 02 03 02
    330        3327   02 03 03 03          FCB $2,$3,$3,$3,$3,$3,$2,$2,$3,$3,$2,$3,$3,$3,$3,$3,$3,$2,$3,$3,$2,$3,$3,$3,$2,$2,$3,$2,$3,$3,$2,$3,$3,$3,$2,$2,$3,$2,$3,$3
               332B   03 03 02 02
               332F   03 03 02 03
               3333   03 03 03 03
               3337   03 02 03 03
               333B   02 03 03 03
               333F   02 02 03 02
               3343   03 03 02 03
               3347   03 03 02 02
               334B   03 02 03 03
    331        334F   02 03 03 03          FCB $2,$3,$3,$3,$2,$2,$3,$2,$3,$3,$3,$3,$3,$3,$2,$2,$3,$2,$2,$3,$3,$3,$3,$3,$2,$2,$3,$3,$2,$3,$3,$3,$3,$3,$3,$2,$3,$3,$2,$3
               3353   02 02 03 02
               3357   03 03 03 03
               335B   03 03 02 02
               335F   03 02 02 03
               3363   03 03 03 03
               3367   02 02 03 03
               336B   02 03 03 03
               336F   03 03 03 02
               3373   03 03 02 03
    332        3377   13 15 13 14          FCB $13,$15,$13,$14,$13,$14,$13,$14,$12,$14,$12,$14,$12,$13,$12,$13,$12,$12,$11,$12,$10,$12,$10,$12,$10,$12,$10,$12,$10,$12,$f,$11,$f,$11,$f,$11,$f,$10,$f,$10
               337B   13 14 13 14
               337F   12 14 12 14
               3383   12 13 12 13
               3387   12 12 11 12
               338B   10 12 10 12
               338F   10 12 10 12
               3393   10 12 0F 11
               3397   0F 11 0F 11
               339B   0F 10 0F 10
    333        339F   0F 10 0E 0F          FCB $f,$10,$e,$f,$e,$f,$e,$f,$e,$f,$e,$f,$d,$f,$d,$e,$d,$e,$c,$e,$c,$d,$c,$d,$b,$d,$b,$d,$b,$d,$b,$d,$b,$d,$a,$c,$a,$c,$a,$b
               33A3   0E 0F 0E 0F
               33A7   0E 0F 0E 0F
               33AB   0D 0F 0D 0E
               33AF   0D 0E 0C 0E
               33B3   0C 0D 0C 0D
               33B7   0B 0D 0B 0D
               33BB   0B 0D 0B 0D
               33BF   0B 0D 0A 0C
               33C3   0A 0C 0A 0B
    334        33C7   0A 0B 0A 0B          FCB $a,$b,$a,$b,$a,$a,$9,$a,$9,$a,$9,$a,$9,$a,$9,$a,$7,$a,$7,$9,$17,$14,$17,$14,$16,$14,$17,$14,$16,$13,$15,$13,$16,$12,$15,$12,$15,$12,$14,$12
               33CB   0A 0A 09 0A
               33CF   09 0A 09 0A
               33D3   09 0A 09 0A
               33D7   07 0A 07 09
               33DB   17 14 17 14
               33DF   16 14 17 14
               33E3   16 13 15 13
               33E7   16 12 15 12
               33EB   15 12 14 12
    335        33EF   14 12 14 11          FCB $14,$12,$14,$11,$13,$11,$14,$11,$13,$11,$12,$11,$13,$10,$12,$f,$12,$f,$12,$f,$11,$f,$11,$f,$11,$e,$11,$e,$10,$d,$10,$d,$10,$d,$f,$d,$10,$d,$f,$c
               33F3   13 11 14 11
               33F7   13 11 12 11
               33FB   13 10 12 0F
               33FF   12 0F 12 0F
               3403   11 0F 11 0F
               3407   11 0E 11 0E
               340B   10 0D 10 0D
               340F   10 0D 0F 0D
               3413   10 0D 0F 0C
    336        3417   0E 0C 0F 0C          FCB $e,$c,$f,$c,$e,$c,$d,$c,$e,$b,$d,$a,$d,$a,$d,$a,$c,$a,$c,$a,$c,$9,$c,$9,$b,$8,$b,$8,$b,$8,$a,$8,$b,$8,$a,$7,$9,$7,$a,$7
               341B   0E 0C 0D 0C
               341F   0E 0B 0D 0A
               3423   0D 0A 0D 0A
               3427   0C 0A 0C 0A
               342B   0C 09 0C 09
               342F   0B 08 0B 08
               3433   0B 08 0A 08
               3437   0B 08 0A 07
               343B   09 07 0A 07
    337        343F   03 03 04 03          FCB $3,$3,$4,$3,$3,$4,$4,$4,$3,$3,$3,$3,$4,$4,$3,$3,$4,$3,$3,$4,$3,$3,$4,$3,$3,$4,$4,$4,$3,$3,$3,$3,$4,$4,$3,$3,$4,$3,$3,$4
               3443   03 04 04 04
               3447   03 03 03 03
               344B   04 04 03 03
               344F   04 03 03 04
               3453   03 03 04 03
               3457   03 04 04 04
               345B   03 03 03 03
               345F   04 04 03 03
               3463   04 03 03 04
    338        3467   03 03 04 03          FCB $3,$3,$4,$3,$3,$4,$4,$4,$3,$3,$3,$4,$4,$4,$3,$3,$4,$3,$4,$4,$3,$3,$4,$3,$3,$4,$3,$3,$4,$3,$3,$4,$4,$4,$3,$3,$3,$3,$4,$4
               346B   03 04 04 04
               346F   03 03 03 04
               3473   04 04 03 03
               3477   04 03 04 04
               347B   03 03 04 03
               347F   03 04 03 03
               3483   04 03 03 04
               3487   04 04 03 03
               348B   03 03 04 04
    339        348F   03 03 04 03          FCB $3,$3,$4,$3,$3,$4,$3,$3,$4,$3,$3,$4,$4,$4,$3,$3,$3,$3,$4,$4,$1c,$15,$1b,$13,$1b,$14,$1b,$13,$1b,$13,$19,$12,$19,$12,$19,$12,$19,$11,$18,$11
               3493   03 04 03 03
               3497   04 03 03 04
               349B   04 04 03 03
               349F   03 03 04 04
               34A3   1C 15 1B 13
               34A7   1B 14 1B 13
               34AB   1B 13 19 12
               34AF   19 12 19 12
               34B3   19 11 18 11
    340        34B7   18 11 18 11          FCB $18,$11,$18,$11,$18,$10,$17,$10,$17,$f,$17,$10,$17,$f,$16,$f,$16,$e,$16,$e,$15,$e,$14,$d,$14,$d,$14,$c,$14,$c,$13,$c,$13,$c,$13,$b,$13,$b,$12,$a
               34BB   18 10 17 10
               34BF   17 0F 17 10
               34C3   17 0F 16 0F
               34C7   16 0E 16 0E
               34CB   15 0E 14 0D
               34CF   14 0D 14 0C
               34D3   14 0C 13 0C
               34D7   13 0C 13 0B
               34DB   13 0B 12 0A
    341        34DF   12 0B 12 0A          FCB $12,$b,$12,$a,$11,$a,$11,$9,$11,$9,$10,$9,$f,$8,$f,$8,$f,$8,$f,$8,$e,$7,$e,$7,$e,$6,$e,$7,$d,$5,$d,$6,$d,$5,$d,$5,$c,$4,$b,$4
               34E3   11 0A 11 09
               34E7   11 09 10 09
               34EB   0F 08 0F 08
               34EF   0F 08 0F 08
               34F3   0E 07 0E 07
               34F7   0E 06 0E 07
               34FB   0D 05 0D 06
               34FF   0D 05 0D 05
               3503   0C 04 0B 04
    342        3507   06 06 06 06          FCB $6,$6,$6,$6,$6,$6,$6,$6,$6,$6,$6,$6,$6,$6,$6,$6,$6,$6,$6,$6,$6,$6,$6,$6,$6,$6,$6,$6,$6,$6,$6,$6,$6,$6,$6,$6,$6,$6,$6,$6
               350B   06 06 06 06
               350F   06 06 06 06
               3513   06 06 06 06
               3517   06 06 06 06
               351B   06 06 06 06
               351F   06 06 06 06
               3523   06 06 06 06
               3527   06 06 06 06
               352B   06 06 06 06
    343        352F   06 06 06 06          FCB $6,$6,$6,$6,$6,$6,$6,$6,$6,$6,$6,$6,$6,$6,$6,$6,$7,$7,$6,$6,$6,$6,$6,$6,$6,$6,$6,$6,$6,$6,$6,$6,$6,$6,$6,$6,$6,$6,$6,$6
               3533   06 06 06 06
               3537   06 06 06 06
               353B   06 06 06 06
               353F   07 07 06 06
               3543   06 06 06 06
               3547   06 06 06 06
               354B   06 06 06 06
               354F   06 06 06 06
               3553   06 06 06 06
    344        3557   06 06 06 06          FCB $6,$6,$6,$6,$6,$6,$6,$6,$6,$6,$6,$6,$6,$6,$6,$6,$6,$6,$6,$6,$6,$6,$6,$6,$6,$6,$6,$6,$6,$6,$6,$6,$6,$6,$6,$6,$6,$6,$6,$6
               355B   06 06 06 06
               355F   06 06 06 06
               3563   06 06 06 06
               3567   06 06 06 06
               356B   06 06 06 06
               356F   06 06 06 06
               3573   06 06 06 06
               3577   06 06 06 06
               357B   06 06 06 06
    345        357F   06 06 06 06          FCB $6,$6,$6,$6,$6,$6,$6,$6,$6,$6,$6,$6,$6,$6,$6,$6,$6,$6,$6,$6,$6,$6,$6,$6,$6,$6,$6,$6,$6,$6,$6,$6,$6,$6,$6,$6,$7,$7,$6,$6
               3583   06 06 06 06
               3587   06 06 06 06
               358B   06 06 06 06
               358F   06 06 06 06
               3593   06 06 06 06
               3597   06 06 06 06
               359B   06 06 06 06
               359F   06 06 06 06
               35A3   07 07 06 06
    346        35A7   06 06 06 06          FCB $6,$6,$6,$6,$6,$6,$6,$6,$6,$6,$6,$6,$6,$6,$6,$6,$6,$6,$6,$6,$6,$6,$6,$6,$6,$6,$6,$6,$6,$6,$6,$6,$6,$6,$6,$6,$6,$6,$6,$6
               35AB   06 06 06 06
               35AF   06 06 06 06
               35B3   06 06 06 06
               35B7   06 06 06 06
               35BB   06 06 06 06
               35BF   06 06 06 06
               35C3   06 06 06 06
               35C7   06 06 06 06
               35CB   06 06 06 06
    347        35CF                    LINE_MISSILE_DY
    348        35CF   05 04 05 05          FCB $5,$4,$5,$5,$5,$4,$4,$5,$4,$4,$4,$5,$4,$4,$5,$5,$5,$5,$5,$5,$5,$5,$5,$5,$5,$5,$5,$4,$5,$5,$5,$4,$5,$5,$4,$4,$4,$5,$4,$4
               35D3   05 04 04 05
               35D7   04 04 04 05
               35DB   04 04 05 05
               35DF   05 05 05 05
               35E3   05 05 05 05
               35E7   05 05 05 04
               35EB   05 05 05 04
               35EF   05 05 04 04
               35F3   04 05 04 04
    349        35F7   04 05 05 05          FCB $4,$5,$5,$5,$5,$5,$5,$5,$5,$5,$5,$5,$5,$5,$5,$5,$5,$4,$5,$5,$5,$4,$5,$5,$4,$4,$4,$5,$4,$4,$4,$5,$5,$5,$5,$5,$5,$5,$5,$5
               35FB   05 05 05 05
               35FF   05 05 05 05
               3603   05 05 05 05
               3607   05 04 05 05
               360B   05 04 05 05
               360F   04 04 04 05
               3613   04 04 04 05
               3617   05 05 05 05
               361B   05 05 05 05
    350        361F   05 05 05 05          FCB $5,$5,$5,$5,$5,$5,$5,$4,$5,$5,$5,$4,$4,$5,$4,$4,$4,$5,$4,$4,$17,$e,$17,$d,$17,$e,$16,$d,$16,$d,$16,$d,$15,$c,$15,$c,$16,$c,$15,$c
               3623   05 05 05 04
               3627   05 05 05 04
               362B   04 05 04 04
               362F   04 05 04 04
               3633   17 0E 17 0D
               3637   17 0E 16 0D
               363B   16 0D 16 0D
               363F   15 0C 15 0C
               3643   16 0C 15 0C
    351        3647   15 0B 14 0B          FCB $15,$b,$14,$b,$14,$b,$14,$b,$14,$b,$14,$a,$14,$b,$13,$a,$13,$a,$12,$a,$12,$9,$13,$9,$12,$8,$12,$9,$12,$8,$11,$8,$11,$8,$11,$7,$11,$8,$11,$7
               364B   14 0B 14 0B
               364F   14 0B 14 0A
               3653   14 0B 13 0A
               3657   13 0A 12 0A
               365B   12 09 13 09
               365F   12 08 12 09
               3663   12 08 11 08
               3667   11 08 11 07
               366B   11 08 11 07
    352        366F   10 07 10 07          FCB $10,$7,$10,$7,$f,$6,$f,$7,$10,$6,$f,$6,$f,$5,$f,$6,$e,$5,$e,$5,$e,$5,$e,$4,$e,$5,$d,$4,$d,$4,$d,$4,$d,$3,$d,$4,$c,$3,$c,$3
               3673   0F 06 0F 07
               3677   10 06 0F 06
               367B   0F 05 0F 06
               367F   0E 05 0E 05
               3683   0E 05 0E 04
               3687   0E 05 0D 04
               368B   0D 04 0D 04
               368F   0D 03 0D 04
               3693   0C 03 0C 03
    353        3697   07 07 06 07          FCB $7,$7,$6,$7,$7,$6,$6,$6,$6,$7,$7,$6,$6,$6,$7,$7,$7,$6,$6,$6,$7,$7,$6,$7,$6,$6,$7,$7,$6,$7,$7,$6,$7,$7,$6,$7,$7,$6,$6,$6
               369B   07 06 06 06
               369F   06 07 07 06
               36A3   06 06 07 07
               36A7   07 06 06 06
               36AB   07 07 06 07
               36AF   06 06 07 07
               36B3   06 07 07 06
               36B7   07 07 06 07
               36BB   07 06 06 06
    354        36BF   06 07 07 06          FCB $6,$7,$7,$6,$6,$6,$7,$7,$7,$7,$6,$6,$7,$7,$6,$7,$7,$6,$7,$7,$6,$7,$7,$6,$6,$6,$6,$7,$7,$6,$6,$6,$7,$7,$7,$6,$6,$6,$7,$7
               36C3   06 06 07 07
               36C7   07 07 06 06
               36CB   07 07 06 07
               36CF   07 06 07 07
               36D3   06 07 07 06
               36D7   06 06 06 07
               36DB   07 06 06 06
               36DF   07 07 07 06
               36E3   06 06 07 07
    355        36E7   06 07 06 06          FCB $6,$7,$6,$6,$7,$7,$6,$7,$7,$6,$7,$7,$6,$7,$7,$6,$6,$6,$6,$7,$7,$7,$6,$7,$7,$6,$6,$6,$6,$7,$7,$6,$6,$6,$7,$7,$7,$6,$6,$6
               36EB   07 07 06 07
               36EF   07 06 07 07
               36F3   06 07 07 06
               36F7   06 06 06 07
               36FB   07 07 06 07
               36FF   07 06 06 06
               3703   06 07 07 06
               3707   06 06 07 07
               370B   07 06 06 06
    356        370F   07 07 06 07          FCB $7,$7,$6,$7,$6,$6,$7,$7,$6,$7,$7,$6,$7,$7,$6,$7,$7,$6,$6,$6,$6,$7,$7,$6,$6,$6,$7,$7,$7,$7,$6,$6,$7,$7,$6,$7,$7,$6,$7,$7
               3713   06 06 07 07
               3717   06 07 07 06
               371B   07 07 06 07
               371F   07 06 06 06
               3723   06 07 07 06
               3727   06 06 07 07
               372B   07 07 06 06
               372F   07 07 06 07
               3733   07 06 07 07
    357        3737   06 07 07 06          FCB $6,$7,$7,$6,$6,$6,$6,$7,$7,$6,$6,$6,$7,$7,$7,$6,$6,$6,$7,$7,$6,$7,$6,$6,$7,$7,$6,$7,$7,$6,$7,$7,$6,$7,$7,$6,$6,$6,$6,$7
               373B   06 06 06 07
               373F   07 06 06 06
               3743   07 07 07 06
               3747   06 06 07 07
               374B   06 07 06 06
               374F   07 07 06 07
               3753   07 06 07 07
               3757   06 07 07 06
               375B   06 06 06 07
    358        375F   0F 18 0F 17          FCB $f,$18,$f,$17,$f,$18,$e,$17,$e,$17,$e,$17,$e,$16,$d,$17,$d,$16,$c,$16,$c,$16,$c,$15,$c,$16,$c,$15,$c,$15,$c,$14,$b,$15,$b,$14,$b,$14,$b,$14
               3763   0F 18 0E 17
               3767   0E 17 0E 17
               376B   0E 16 0D 17
               376F   0D 16 0C 16
               3773   0C 16 0C 15
               3777   0C 16 0C 15
               377B   0C 15 0C 14
               377F   0B 15 0B 14
               3783   0B 14 0B 14
    359        3787   0B 13 0A 14          FCB $b,$13,$a,$14,$9,$13,$9,$13,$9,$13,$9,$12,$9,$13,$9,$12,$8,$12,$8,$11,$8,$11,$8,$11,$8,$10,$8,$11,$8,$10,$7,$10,$6,$10,$6,$10,$6,$10,$6,$f
               378B   09 13 09 13
               378F   09 13 09 12
               3793   09 13 09 12
               3797   08 12 08 11
               379B   08 11 08 11
               379F   08 10 08 11
               37A3   08 10 07 10
               37A7   06 10 06 10
               37AB   06 10 06 0F
    360        37AF   06 0F 05 0F          FCB $6,$f,$5,$f,$5,$f,$5,$e,$5,$e,$5,$e,$5,$d,$5,$e,$4,$d,$4,$d,$5,$4,$5,$5,$5,$4,$4,$5,$4,$4,$4,$5,$4,$4,$5,$5,$5,$5,$5,$5
               37B3   05 0F 05 0E
               37B7   05 0E 05 0E
               37BB   05 0D 05 0E
               37BF   04 0D 04 0D
               37C3   05 04 05 05
               37C7   05 04 04 05
               37CB   04 04 04 05
               37CF   04 04 05 05
               37D3   05 05 05 05
    361        37D7   05 05 05 05          FCB $5,$5,$5,$5,$5,$5,$5,$4,$5,$5,$5,$4,$5,$5,$4,$4,$4,$5,$4,$4,$4,$5,$5,$5,$5,$5,$5,$5,$5,$5,$5,$5,$5,$5,$5,$5,$5,$4,$5,$5
               37DB   05 05 05 04
               37DF   05 05 05 04
               37E3   05 05 04 04
               37E7   04 05 04 04
               37EB   04 05 05 05
               37EF   05 05 05 05
               37F3   05 05 05 05
               37F7   05 05 05 05
               37FB   05 04 05 05
    362        37FF   05 04 05 05          FCB $5,$4,$5,$5,$4,$4,$4,$5,$4,$4,$4,$5,$5,$5,$5,$5,$5,$5,$5,$5,$5,$5,$5,$5,$5,$5,$5,$4,$5,$5,$5,$4,$4,$5,$4,$4,$4,$5,$4,$4
               3803   04 04 04 05
               3807   04 04 04 05
               380B   05 05 05 05
               380F   05 05 05 05
               3813   05 05 05 05
               3817   05 05 05 04
               381B   05 05 05 04
               381F   04 05 04 04
               3823   04 05 04 04
    363        3827   13 18 14 18          FCB $13,$18,$14,$18,$13,$18,$12,$17,$13,$17,$12,$17,$11,$16,$12,$16,$11,$17,$10,$16,$11,$15,$10,$16,$10,$15,$10,$14,$f,$15,$f,$14,$f,$13,$e,$14,$e,$13,$e,$12
               382B   13 18 12 17
               382F   13 17 12 17
               3833   11 16 12 16
               3837   11 17 10 16
               383B   11 15 10 16
               383F   10 15 10 14
               3843   0F 15 0F 14
               3847   0F 13 0E 14
               384B   0E 13 0E 12
    364        384F   0E 12 0D 13          FCB $e,$12,$d,$13,$d,$12,$d,$11,$c,$12,$c,$11,$c,$10,$b,$11,$b,$10,$b,$f,$a,$10,$a,$f,$a,$e,$9,$f,$9,$e,$9,$d,$8,$e,$8,$e,$8,$d,$8,$d
               3853   0D 12 0D 11
               3857   0C 12 0C 11
               385B   0C 10 0B 11
               385F   0B 10 0B 0F
               3863   0A 10 0A 0F
               3867   0A 0E 09 0F
               386B   09 0E 09 0D
               386F   08 0E 08 0E
               3873   08 0D 08 0D
    365        3877   07 0D 07 0C          FCB $7,$d,$7,$c,$7,$c,$6,$c,$6,$b,$6,$b,$5,$b,$6,$a,$5,$a,$4,$a,$17,$17,$16,$16,$16,$16,$16,$16,$16,$15,$15,$15,$15,$15,$14,$15,$14,$14,$13,$14
               387B   07 0C 06 0C
               387F   06 0B 06 0B
               3883   05 0B 06 0A
               3887   05 0A 04 0A
               388B   17 17 16 16
               388F   16 16 16 16
               3893   16 15 15 15
               3897   15 15 14 15
               389B   14 14 13 14
    366        389F   13 14 13 13          FCB $13,$14,$13,$13,$12,$13,$12,$13,$12,$13,$12,$12,$11,$12,$11,$12,$11,$12,$10,$11,$10,$11,$10,$11,$10,$10,$f,$10,$f,$10,$f,$f,$f,$f,$e,$f,$e,$f,$e,$e
               38A3   12 13 12 13
               38A7   12 13 12 12
               38AB   11 12 11 12
               38AF   11 12 10 11
               38B3   10 11 10 11
               38B7   10 10 0F 10
               38BB   0F 10 0F 0F
               38BF   0F 0F 0E 0F
               38C3   0E 0F 0E 0E
    367        38C7   0D 0E 0D 0E          FCB $d,$e,$d,$e,$d,$d,$d,$d,$c,$d,$c,$c,$c,$c,$c,$c,$b,$b,$b,$b,$b,$b,$a,$a,$a,$a,$a,$a,$a,$9,$9,$9,$8,$9,$8,$8,$7,$8,$7,$8
               38CB   0D 0D 0D 0D
               38CF   0C 0D 0C 0C
               38D3   0C 0C 0C 0C
               38D7   0B 0B 0B 0B
               38DB   0B 0B 0A 0A
               38DF   0A 0A 0A 0A
               38E3   0A 09 09 09
               38E7   08 09 08 08
               38EB   07 08 07 08
    368        38EF   02 02 02 02          FCB $2,$2,$2,$2,$2,$2,$2,$2,$2,$3,$2,$2,$2,$2,$2,$2,$3,$2,$2,$2,$2,$2,$2,$3,$2,$2,$2,$2,$2,$2,$3,$2,$2,$2,$2,$2,$2,$2,$2,$2
               38F3   02 02 02 02
               38F7   02 03 02 02
               38FB   02 02 02 02
               38FF   03 02 02 02
               3903   02 02 02 03
               3907   02 02 02 02
               390B   02 02 03 02
               390F   02 02 02 02
               3913   02 02 02 02
    369        3917   02 02 02 02          FCB $2,$2,$2,$2,$2,$2,$2,$2,$2,$2,$2,$2,$3,$3,$2,$2,$2,$2,$2,$2,$2,$2,$2,$2,$2,$2,$2,$3,$2,$2,$2,$2,$2,$2,$3,$2,$2,$2,$2,$2
               391B   02 02 02 02
               391F   02 02 02 02
               3923   03 03 02 02
               3927   02 02 02 02
               392B   02 02 02 02
               392F   02 02 02 03
               3933   02 02 02 02
               3937   02 02 03 02
               393B   02 02 02 02
    370        393F   02 03 02 02          FCB $2,$3,$2,$2,$2,$2,$2,$2,$3,$2,$2,$2,$2,$2,$2,$2,$2,$2,$2,$2,$17,$12,$17,$13,$17,$13,$16,$12,$16,$11,$16,$12,$16,$12,$15,$11,$15,$10,$15,$11
               3943   02 02 02 02
               3947   03 02 02 02
               394B   02 02 02 02
               394F   02 02 02 02
               3953   17 12 17 13
               3957   17 13 16 12
               395B   16 11 16 12
               395F   16 12 15 11
               3963   15 10 15 11
    371        3967   15 11 14 10          FCB $15,$11,$14,$10,$14,$10,$14,$10,$14,$10,$13,$f,$13,$f,$13,$f,$13,$f,$12,$e,$12,$e,$12,$e,$12,$e,$11,$d,$11,$d,$11,$d,$11,$d,$10,$c,$11,$c,$10,$c
               396B   14 10 14 10
               396F   14 10 13 0F
               3973   13 0F 13 0F
               3977   13 0F 12 0E
               397B   12 0E 12 0E
               397F   12 0E 11 0D
               3983   11 0D 11 0D
               3987   11 0D 10 0C
               398B   11 0C 10 0C
    372        398F   10 0C 0F 0B          FCB $10,$c,$f,$b,$10,$b,$f,$b,$f,$b,$e,$a,$f,$a,$e,$a,$e,$a,$d,$9,$e,$9,$d,$a,$d,$9,$c,$8,$d,$8,$c,$9,$c,$8,$c,$7,$c,$8,$c,$8
               3993   10 0B 0F 0B
               3997   0F 0B 0E 0A
               399B   0F 0A 0E 0A
               399F   0E 0A 0D 09
               39A3   0E 09 0D 0A
               39A7   0D 09 0C 08
               39AB   0D 08 0C 09
               39AF   0C 08 0C 07
               39B3   0C 08 0C 08
    373        39B7   04 04 04 04          FCB $4,$4,$4,$4,$4,$4,$4,$4,$4,$4,$4,$4,$4,$4,$4,$4,$4,$4,$4,$4,$4,$4,$4,$4,$4,$4,$4,$4,$4,$4,$4,$4,$4,$4,$4,$4,$4,$4,$4,$4
               39BB   04 04 04 04
               39BF   04 04 04 04
               39C3   04 04 04 04
               39C7   04 04 04 04
               39CB   04 04 04 04
               39CF   04 04 04 04
               39D3   04 04 04 04
               39D7   04 04 04 04
               39DB   04 04 04 04
    374        39DF   04 04 04 04          FCB $4,$4,$4,$4,$4,$4,$4,$4,$3,$3,$4,$4,$4,$4,$4,$4,$4,$4,$4,$4,$4,$4,$4,$4,$4,$4,$4,$4,$4,$4,$4,$4,$4,$4,$4,$4,$4,$4,$4,$4
               39E3   04 04 04 04
               39E7   03 03 04 04
               39EB   04 04 04 04
               39EF   04 04 04 04
               39F3   04 04 04 04
               39F7   04 04 04 04
               39FB   04 04 04 04
               39FF   04 04 04 04
               3A03   04 04 04 04
    375        3A07   04 04 04 04          FCB $4,$4,$4,$4,$4,$4,$4,$4,$4,$4,$4,$4,$4,$4,$4,$4,$4,$4,$4,$4,$4,$4,$4,$4,$4,$4,$4,$4,$4,$4,$4,$4,$4,$4,$4,$4,$4,$4,$4,$4
               3A0B   04 04 04 04
               3A0F   04 04 04 04
               3A13   04 04 04 04
               3A17   04 04 04 04
               3A1B   04 04 04 04
               3A1F   04 04 04 04
               3A23   04 04 04 04
               3A27   04 04 04 04
               3A2B   04 04 04 04
    376        3A2F   04 04 04 04          FCB $4,$4,$4,$4,$4,$4,$4,$4,$4,$4,$4,$4,$4,$4,$4,$4,$4,$4,$4,$4,$4,$4,$4,$4,$4,$4,$4,$4,$3,$3,$4,$4,$4,$4,$4,$4,$4,$4,$4,$4
               3A33   04 04 04 04
               3A37   04 04 04 04
               3A3B   04 04 04 04
               3A3F   04 04 04 04
               3A43   04 04 04 04
               3A47   04 04 04 04
               3A4B   03 03 04 04
               3A4F   04 04 04 04
               3A53   04 04 04 04
    377        3A57   04 04 04 04          FCB $4,$4,$4,$4,$4,$4,$4,$4,$4,$4,$4,$4,$4,$4,$4,$4,$4,$4,$4,$4,$4,$4,$4,$4,$4,$4,$4,$4,$4,$4,$4,$4,$4,$4,$4,$4,$4,$4,$4,$4
               3A5B   04 04 04 04
               3A5F   04 04 04 04
               3A63   04 04 04 04
               3A67   04 04 04 04
               3A6B   04 04 04 04
               3A6F   04 04 04 04
               3A73   04 04 04 04
               3A77   04 04 04 04
               3A7B   04 04 04 04
    378        3A7F   13 17 13 17          FCB $13,$17,$13,$17,$12,$16,$12,$17,$11,$16,$12,$16,$11,$15,$11,$16,$11,$15,$11,$15,$10,$15,$11,$15,$10,$14,$10,$14,$f,$14,$10,$14,$f,$13,$f,$13,$f,$13,$f,$13
               3A83   12 16 12 17
               3A87   11 16 12 16
               3A8B   11 15 11 16
               3A8F   11 15 11 15
               3A93   10 15 11 15
               3A97   10 14 10 14
               3A9B   0F 14 10 14
               3A9F   0F 13 0F 13
               3AA3   0F 13 0F 13
    379        3AA7   0E 12 0E 12          FCB $e,$12,$e,$12,$e,$12,$e,$12,$d,$11,$e,$11,$d,$11,$d,$11,$d,$11,$d,$10,$c,$10,$b,$10,$c,$10,$b,$f,$b,$10,$b,$f,$b,$f,$a,$e,$a,$f,$a,$e
               3AAB   0E 12 0E 12
               3AAF   0D 11 0E 11
               3AB3   0D 11 0D 11
               3AB7   0D 11 0D 10
               3ABB   0C 10 0B 10
               3ABF   0C 10 0B 0F
               3AC3   0B 10 0B 0F
               3AC7   0B 0F 0A 0E
               3ACB   0A 0F 0A 0E
    380        3ACF   0A 0E 09 0E          FCB $a,$e,$9,$e,$a,$e,$9,$d,$9,$d,$8,$d,$9,$d,$8,$c,$8,$c,$8,$c,$2,$2,$2,$2,$2,$2,$2,$3,$3,$3,$2,$2,$2,$2,$3,$2,$2,$2,$2,$2
               3AD3   0A 0E 09 0D
               3AD7   09 0D 08 0D
               3ADB   09 0D 08 0C
               3ADF   08 0C 08 0C
               3AE3   02 02 02 02
               3AE7   02 02 02 03
               3AEB   03 03 02 02
               3AEF   02 02 03 02
               3AF3   02 02 02 02
    381        3AF7   02 03 02 02          FCB $2,$3,$2,$2,$2,$2,$2,$2,$3,$2,$2,$2,$2,$2,$2,$3,$2,$2,$2,$2,$2,$2,$3,$2,$2,$2,$2,$2,$3,$3,$2,$2,$2,$2,$2,$2,$2,$2,$2,$2
               3AFB   02 02 02 02
               3AFF   03 02 02 02
               3B03   02 02 02 03
               3B07   02 02 02 02
               3B0B   02 02 03 02
               3B0F   02 02 02 02
               3B13   03 03 02 02
               3B17   02 02 02 02
               3B1B   02 02 02 02
    382        3B1F   02 02 03 03          FCB $2,$2,$3,$3,$2,$2,$2,$2,$2,$2,$2,$2,$2,$2,$2,$2,$3,$3,$2,$2,$2,$2,$2,$2,$2,$2,$2,$2,$2,$3,$3,$3,$2,$2,$2,$2,$3,$2,$2,$2
               3B23   02 02 02 02
               3B27   02 02 02 02
               3B2B   02 02 02 02
               3B2F   03 03 02 02
               3B33   02 02 02 02
               3B37   02 02 02 02
               3B3B   02 03 03 03
               3B3F   02 02 02 02
               3B43   03 02 02 02
    383        3B47   12 13 12 12          FCB $12,$13,$12,$12,$12,$12,$11,$12,$11,$12,$11,$12,$11,$12,$11,$12,$11,$11,$10,$11,$10,$11,$f,$10,$f,$10,$f,$10,$f,$10,$f,$f,$e,$f,$e,$f,$e,$e,$e,$e
               3B4B   12 12 11 12
               3B4F   11 12 11 12
               3B53   11 12 11 12
               3B57   11 11 10 11
               3B5B   10 11 0F 10
               3B5F   0F 10 0F 10
               3B63   0F 10 0F 0F
               3B67   0E 0F 0E 0F
               3B6B   0E 0E 0E 0E
    384        3B6F   0E 0E 0E 0E          FCB $e,$e,$e,$e,$d,$d,$d,$d,$d,$d,$d,$d,$c,$d,$c,$c,$c,$c,$b,$c,$b,$c,$b,$c,$b,$c,$b,$b,$b,$b,$a,$b,$a,$b,$a,$b,$a,$b,$a,$a
               3B73   0D 0D 0D 0D
               3B77   0D 0D 0D 0D
               3B7B   0C 0D 0C 0C
               3B7F   0C 0C 0B 0C
               3B83   0B 0C 0B 0C
               3B87   0B 0C 0B 0B
               3B8B   0B 0B 0A 0B
               3B8F   0A 0B 0A 0B
               3B93   0A 0B 0A 0A
    385        3B97   09 0A 08 0A          FCB $9,$a,$8,$a,$8,$9,$8,$9,$8,$9,$8,$9,$8,$8,$8,$8,$7,$8,$7,$7,$1d,$19,$1d,$19,$1c,$18,$1c,$18,$1b,$18,$1b,$17,$1a,$16,$1b,$16,$1b,$16,$1a,$15
               3B9B   08 09 08 09
               3B9F   08 09 08 09
               3BA3   08 08 08 08
               3BA7   07 08 07 07
               3BAB   1D 19 1D 19
               3BAF   1C 18 1C 18
               3BB3   1B 18 1B 17
               3BB7   1A 16 1B 16
               3BBB   1B 16 1A 15
    386        3BBF   1A 15 19 15          FCB $1a,$15,$19,$15,$19,$14,$18,$14,$18,$13,$17,$13,$17,$13,$16,$12,$16,$12,$15,$12,$15,$11,$16,$10,$15,$11,$15,$10,$14,$f,$14,$f,$13,$f,$13,$e,$12,$e,$12,$e
               3BC3   19 14 18 14
               3BC7   18 13 17 13
               3BCB   17 13 16 12
               3BCF   16 12 15 12
               3BD3   15 11 16 10
               3BD7   15 11 15 10
               3BDB   14 0F 14 0F
               3BDF   13 0F 13 0E
               3BE3   12 0E 12 0E
    387        3BE7   11 0E 11 0D          FCB $11,$e,$11,$d,$11,$c,$10,$c,$10,$c,$f,$b,$10,$b,$f,$b,$f,$a,$e,$9,$e,$9,$d,$9,$d,$9,$d,$8,$c,$8,$c,$8,$b,$7,$b,$6,$a,$7,$a,$6
               3BEB   11 0C 10 0C
               3BEF   10 0C 0F 0B
               3BF3   10 0B 0F 0B
               3BF7   0F 0A 0E 09
               3BFB   0E 09 0D 09
               3BFF   0D 09 0D 08
               3C03   0C 08 0C 08
               3C07   0B 07 0B 06
               3C0B   0A 07 0A 06
    388        3C0F                    LINE_MISSILE_CMD
    389        3C0F   15 17 15 17          FCB $15,$17,$15,$17,$15,$17,$15,$17,$15,$17,$15,$17,$15,$17,$15,$17,$15,$17,$15,$17,$15,$17,$15,$17,$15,$17,$15,$17,$15,$17,$15,$17,$15,$17,$15,$17,$15,$17,$15,$17
               3C13   15 17 15 17
               3C17   15 17 15 17
               3C1B   15 17 15 17
               3C1F   15 17 15 17
               3C23   15 17 15 17
               3C27   15 17 15 17
               3C2B   15 17 15 17
               3C2F   15 17 15 17
               3C33   15 17 15 17
    390        3C37   15 17 15 17          FCB $15,$17,$15,$17,$15,$17,$15,$17,$15,$17,$15,$17,$15,$17,$15,$17,$15,$17,$15,$17,$15,$17,$15,$17,$15,$17,$15,$17,$15,$17,$15,$17,$15,$17,$15,$17,$15,$17,$15,$17
               3C3B   15 17 15 17
               3C3F   15 17 15 17
               3C43   15 17 15 17
               3C47   15 17 15 17
               3C4B   15 17 15 17
               3C4F   15 17 15 17
               3C53   15 17 15 17
               3C57   15 17 15 17
               3C5B   15 17 15 17
    391        3C5F   15 17 15 17          FCB $15,$17,$15,$17,$15,$17,$15,$17,$15,$17,$15,$17,$15,$17,$15,$17,$15,$17,$15,$17,$17,$13,$17,$13,$17,$13,$17,$13,$17,$13,$17,$13,$17,$13,$17,$13,$17,$13,$17,$13
               3C63   15 17 15 17
               3C67   15 17 15 17
               3C6B   15 17 15 17
               3C6F   15 17 15 17
               3C73   17 13 17 13
               3C77   17 13 17 13
               3C7B   17 13 17 13
               3C7F   17 13 17 13
               3C83   17 13 17 13
    392        3C87   17 13 17 13          FCB $17,$13,$17,$13,$17,$13,$17,$13,$17,$13,$17,$13,$17,$13,$17,$13,$17,$13,$17,$13,$17,$13,$17,$13,$17,$13,$17,$13,$17,$13,$17,$13,$17,$13,$17,$13,$17,$13,$17,$13
               3C8B   17 13 17 13
               3C8F   17 13 17 13
               3C93   17 13 17 13
               3C97   17 13 17 13
               3C9B   17 13 17 13
               3C9F   17 13 17 13
               3CA3   17 13 17 13
               3CA7   17 13 17 13
               3CAB   17 13 17 13
    393        3CAF   17 13 17 13          FCB $17,$13,$17,$13,$17,$13,$17,$13,$17,$13,$17,$13,$17,$13,$17,$13,$17,$13,$17,$13,$17,$13,$17,$13,$17,$13,$17,$13,$17,$13,$17,$13,$17,$13,$17,$13,$17,$13,$17,$13
               3CB3   17 13 17 13
               3CB7   17 13 17 13
               3CBB   17 13 17 13
               3CBF   17 13 17 13
               3CC3   17 13 17 13
               3CC7   17 13 17 13
               3CCB   17 13 17 13
               3CCF   17 13 17 13
               3CD3   17 13 17 13
    394        3CD7   15 17 15 17          FCB $15,$17,$15,$17,$15,$17,$15,$17,$15,$17,$15,$17,$15,$17,$15,$17,$15,$17,$15,$17,$15,$17,$15,$17,$15,$17,$15,$17,$15,$17,$15,$17,$15,$17,$15,$17,$15,$17,$15,$17
               3CDB   15 17 15 17
               3CDF   15 17 15 17
               3CE3   15 17 15 17
               3CE7   15 17 15 17
               3CEB   15 17 15 17
               3CEF   15 17 15 17
               3CF3   15 17 15 17
               3CF7   15 17 15 17
               3CFB   15 17 15 17
    395        3CFF   15 17 15 17          FCB $15,$17,$15,$17,$15,$17,$15,$17,$15,$17,$15,$17,$15,$17,$15,$17,$15,$17,$15,$17,$15,$17,$15,$17,$15,$17,$15,$17,$15,$17,$15,$17,$15,$17,$15,$17,$15,$17,$15,$17
               3D03   15 17 15 17
               3D07   15 17 15 17
               3D0B   15 17 15 17
               3D0F   15 17 15 17
               3D13   15 17 15 17
               3D17   15 17 15 17
               3D1B   15 17 15 17
               3D1F   15 17 15 17
               3D23   15 17 15 17
    396        3D27   15 17 15 17          FCB $15,$17,$15,$17,$15,$17,$15,$17,$15,$17,$15,$17,$15,$17,$15,$17,$15,$17,$15,$17,$15,$17,$15,$17,$15,$17,$15,$17,$15,$17,$15,$17,$15,$17,$15,$17,$15,$17,$15,$17
               3D2B   15 17 15 17
               3D2F   15 17 15 17
               3D33   15 17 15 17
               3D37   15 17 15 17
               3D3B   15 17 15 17
               3D3F   15 17 15 17
               3D43   15 17 15 17
               3D47   15 17 15 17
               3D4B   15 17 15 17
    397        3D4F   15 17 15 17          FCB $15,$17,$15,$17,$15,$17,$15,$17,$15,$17,$15,$17,$15,$17,$15,$17,$15,$17,$15,$17,$15,$17,$15,$17,$15,$17,$15,$17,$15,$17,$15,$17,$15,$17,$15,$17,$15,$17,$15,$17
               3D53   15 17 15 17
               3D57   15 17 15 17
               3D5B   15 17 15 17
               3D5F   15 17 15 17
               3D63   15 17 15 17
               3D67   15 17 15 17
               3D6B   15 17 15 17
               3D6F   15 17 15 17
               3D73   15 17 15 17
    398        3D77   15 17 15 17          FCB $15,$17,$15,$17,$15,$17,$15,$17,$15,$17,$15,$17,$15,$17,$15,$17,$15,$17,$15,$17,$15,$17,$15,$17,$15,$17,$15,$17,$15,$17,$15,$17,$15,$17,$15,$17,$15,$17,$15,$17
               3D7B   15 17 15 17
               3D7F   15 17 15 17
               3D83   15 17 15 17
               3D87   15 17 15 17
               3D8B   15 17 15 17
               3D8F   15 17 15 17
               3D93   15 17 15 17
               3D97   15 17 15 17
               3D9B   15 17 15 17
    399        3D9F   11 15 11 15          FCB $11,$15,$11,$15,$11,$15,$11,$15,$11,$15,$11,$15,$11,$15,$11,$15,$11,$15,$11,$15,$11,$15,$11,$15,$11,$15,$11,$15,$11,$15,$11,$15,$11,$15,$11,$15,$11,$15,$11,$15
               3DA3   11 15 11 15
               3DA7   11 15 11 15
               3DAB   11 15 11 15
               3DAF   11 15 11 15
               3DB3   11 15 11 15
               3DB7   11 15 11 15
               3DBB   11 15 11 15
               3DBF   11 15 11 15
               3DC3   11 15 11 15
    400        3DC7   11 15 11 15          FCB $11,$15,$11,$15,$11,$15,$11,$15,$11,$15,$11,$15,$11,$15,$11,$15,$11,$15,$11,$15,$11,$15,$11,$15,$11,$15,$11,$15,$11,$15,$11,$15,$11,$15,$11,$15,$11,$15,$11,$15
               3DCB   11 15 11 15
               3DCF   11 15 11 15
               3DD3   11 15 11 15
               3DD7   11 15 11 15
               3DDB   11 15 11 15
               3DDF   11 15 11 15
               3DE3   11 15 11 15
               3DE7   11 15 11 15
               3DEB   11 15 11 15
    401        3DEF   11 15 11 15          FCB $11,$15,$11,$15,$11,$15,$11,$15,$11,$15,$11,$15,$11,$15,$11,$15,$11,$15,$11,$15,$15,$17,$15,$17,$15,$17,$15,$17,$15,$17,$15,$17,$15,$17,$15,$17,$15,$17,$15,$17
               3DF3   11 15 11 15
               3DF7   11 15 11 15
               3DFB   11 15 11 15
               3DFF   11 15 11 15
               3E03   15 17 15 17
               3E07   15 17 15 17
               3E0B   15 17 15 17
               3E0F   15 17 15 17
               3E13   15 17 15 17
    402        3E17   15 17 15 17          FCB $15,$17,$15,$17,$15,$17,$15,$17,$15,$17,$15,$17,$15,$17,$15,$17,$15,$17,$15,$17,$15,$17,$15,$17,$15,$17,$15,$17,$15,$17,$15,$17,$15,$17,$15,$17,$15,$17,$15,$17
               3E1B   15 17 15 17
               3E1F   15 17 15 17
               3E23   15 17 15 17
               3E27   15 17 15 17
               3E2B   15 17 15 17
               3E2F   15 17 15 17
               3E33   15 17 15 17
               3E37   15 17 15 17
               3E3B   15 17 15 17
    403        3E3F   15 17 15 17          FCB $15,$17,$15,$17,$15,$17,$15,$17,$15,$17,$15,$17,$15,$17,$15,$17,$15,$17,$15,$17,$15,$17,$15,$17,$15,$17,$15,$17,$15,$17,$15,$17,$15,$17,$15,$17,$15,$17,$15,$17
               3E43   15 17 15 17
               3E47   15 17 15 17
               3E4B   15 17 15 17
               3E4F   15 17 15 17
               3E53   15 17 15 17
               3E57   15 17 15 17
               3E5B   15 17 15 17
               3E5F   15 17 15 17
               3E63   15 17 15 17
    404        3E67   11 15 11 15          FCB $11,$15,$11,$15,$11,$15,$11,$15,$11,$15,$11,$15,$11,$15,$11,$15,$11,$15,$11,$15,$11,$15,$11,$15,$11,$15,$11,$15,$11,$15,$11,$15,$11,$15,$11,$15,$11,$15,$11,$15
               3E6B   11 15 11 15
               3E6F   11 15 11 15
               3E73   11 15 11 15
               3E77   11 15 11 15
               3E7B   11 15 11 15
               3E7F   11 15 11 15
               3E83   11 15 11 15
               3E87   11 15 11 15
               3E8B   11 15 11 15
    405        3E8F   11 15 11 15          FCB $11,$15,$11,$15,$11,$15,$11,$15,$11,$15,$11,$15,$11,$15,$11,$15,$11,$15,$11,$15,$11,$15,$11,$15,$11,$15,$11,$15,$11,$15,$11,$15,$11,$15,$11,$15,$11,$15,$11,$15
               3E93   11 15 11 15
               3E97   11 15 11 15
               3E9B   11 15 11 15
               3E9F   11 15 11 15
               3EA3   11 15 11 15
               3EA7   11 15 11 15
               3EAB   11 15 11 15
               3EAF   11 15 11 15
               3EB3   11 15 11 15
    406        3EB7   11 15 11 15          FCB $11,$15,$11,$15,$11,$15,$11,$15,$11,$15,$11,$15,$11,$15,$11,$15,$11,$15,$11,$15,$11,$15,$11,$15,$11,$15,$11,$15,$11,$15,$11,$15,$11,$15,$11,$15,$11,$15,$11,$15
               3EBB   11 15 11 15
               3EBF   11 15 11 15
               3EC3   11 15 11 15
               3EC7   11 15 11 15
               3ECB   11 15 11 15
               3ECF   11 15 11 15
               3ED3   11 15 11 15
               3ED7   11 15 11 15
               3EDB   11 15 11 15
    407        3EDF   11 15 11 15          FCB $11,$15,$11,$15,$11,$15,$11,$15,$11,$15,$11,$15,$11,$15,$11,$15,$11,$15,$11,$15,$11,$15,$11,$15,$11,$15,$11,$15,$11,$15,$11,$15,$11,$15,$11,$15,$11,$15,$11,$15
               3EE3   11 15 11 15
               3EE7   11 15 11 15
               3EEB   11 15 11 15
               3EEF   11 15 11 15
               3EF3   11 15 11 15
               3EF7   11 15 11 15
               3EFB   11 15 11 15
               3EFF   11 15 11 15
               3F03   11 15 11 15
    408        3F07   11 15 11 15          FCB $11,$15,$11,$15,$11,$15,$11,$15,$11,$15,$11,$15,$11,$15,$11,$15,$11,$15,$11,$15,$11,$15,$11,$15,$11,$15,$11,$15,$11,$15,$11,$15,$11,$15,$11,$15,$11,$15,$11,$15
               3F0B   11 15 11 15
               3F0F   11 15 11 15
               3F13   11 15 11 15
               3F17   11 15 11 15
               3F1B   11 15 11 15
               3F1F   11 15 11 15
               3F23   11 15 11 15
               3F27   11 15 11 15
               3F2B   11 15 11 15
    409        3F2F   13 11 13 11          FCB $13,$11,$13,$11,$13,$11,$13,$11,$13,$11,$13,$11,$13,$11,$13,$11,$13,$11,$13,$11,$13,$11,$13,$11,$13,$11,$13,$11,$13,$11,$13,$11,$13,$11,$13,$11,$13,$11,$13,$11
               3F33   13 11 13 11
               3F37   13 11 13 11
               3F3B   13 11 13 11
               3F3F   13 11 13 11
               3F43   13 11 13 11
               3F47   13 11 13 11
               3F4B   13 11 13 11
               3F4F   13 11 13 11
               3F53   13 11 13 11
    410        3F57   13 11 13 11          FCB $13,$11,$13,$11,$13,$11,$13,$11,$13,$11,$13,$11,$13,$11,$13,$11,$13,$11,$13,$11,$13,$11,$13,$11,$13,$11,$13,$11,$13,$11,$13,$11,$13,$11,$13,$11,$13,$11,$13,$11
               3F5B   13 11 13 11
               3F5F   13 11 13 11
               3F63   13 11 13 11
               3F67   13 11 13 11
               3F6B   13 11 13 11
               3F6F   13 11 13 11
               3F73   13 11 13 11
               3F77   13 11 13 11
               3F7B   13 11 13 11
    411        3F7F   13 11 13 11          FCB $13,$11,$13,$11,$13,$11,$13,$11,$13,$11,$13,$11,$13,$11,$13,$11,$13,$11,$13,$11,$11,$15,$11,$15,$11,$15,$11,$15,$11,$15,$11,$15,$11,$15,$11,$15,$11,$15,$11,$15
               3F83   13 11 13 11
               3F87   13 11 13 11
               3F8B   13 11 13 11
               3F8F   13 11 13 11
               3F93   11 15 11 15
               3F97   11 15 11 15
               3F9B   11 15 11 15
               3F9F   11 15 11 15
               3FA3   11 15 11 15
    412        3FA7   11 15 11 15          FCB $11,$15,$11,$15,$11,$15,$11,$15,$11,$15,$11,$15,$11,$15,$11,$15,$11,$15,$11,$15,$11,$15,$11,$15,$11,$15,$11,$15,$11,$15,$11,$15,$11,$15,$11,$15,$11,$15,$11,$15
               3FAB   11 15 11 15
               3FAF   11 15 11 15
               3FB3   11 15 11 15
               3FB7   11 15 11 15
               3FBB   11 15 11 15
               3FBF   11 15 11 15
               3FC3   11 15 11 15
               3FC7   11 15 11 15
               3FCB   11 15 11 15
    413        3FCF   11 15 11 15          FCB $11,$15,$11,$15,$11,$15,$11,$15,$11,$15,$11,$15,$11,$15,$11,$15,$11,$15,$11,$15,$11,$15,$11,$15,$11,$15,$11,$15,$11,$15,$11,$15,$11,$15,$11,$15,$11,$15,$11,$15
               3FD3   11 15 11 15
               3FD7   11 15 11 15
               3FDB   11 15 11 15
               3FDF   11 15 11 15
               3FE3   11 15 11 15
               3FE7   11 15 11 15
               3FEB   11 15 11 15
               3FEF   11 15 11 15
               3FF3   11 15 11 15
    414        3FF7   13 11 13 11          FCB $13,$11,$13,$11,$13,$11,$13,$11,$13,$11,$13,$11,$13,$11,$13,$11,$13,$11,$13,$11,$13,$11,$13,$11,$13,$11,$13,$11,$13,$11,$13,$11,$13,$11,$13,$11,$13,$11,$13,$11
               3FFB   13 11 13 11
               3FFF   13 11 13 11
               4003   13 11 13 11
               4007   13 11 13 11
               400B   13 11 13 11
               400F   13 11 13 11
               4013   13 11 13 11
               4017   13 11 13 11
               401B   13 11 13 11
    415        401F   13 11 13 11          FCB $13,$11,$13,$11,$13,$11,$13,$11,$13,$11,$13,$11,$13,$11,$13,$11,$13,$11,$13,$11,$13,$11,$13,$11,$13,$11,$13,$11,$13,$11,$13,$11,$13,$11,$13,$11,$13,$11,$13,$11
               4023   13 11 13 11
               4027   13 11 13 11
               402B   13 11 13 11
               402F   13 11 13 11
               4033   13 11 13 11
               4037   13 11 13 11
               403B   13 11 13 11
               403F   13 11 13 11
               4043   13 11 13 11
    416        4047   13 11 13 11          FCB $13,$11,$13,$11,$13,$11,$13,$11,$13,$11,$13,$11,$13,$11,$13,$11,$13,$11,$13,$11,$13,$11,$13,$11,$13,$11,$13,$11,$13,$11,$13,$11,$13,$11,$13,$11,$13,$11,$13,$11
               404B   13 11 13 11
               404F   13 11 13 11
               4053   13 11 13 11
               4057   13 11 13 11
               405B   13 11 13 11
               405F   13 11 13 11
               4063   13 11 13 11
               4067   13 11 13 11
               406B   13 11 13 11
    417        406F   13 11 13 11          FCB $13,$11,$13,$11,$13,$11,$13,$11,$13,$11,$13,$11,$13,$11,$13,$11,$13,$11,$13,$11,$13,$11,$13,$11,$13,$11,$13,$11,$13,$11,$13,$11,$13,$11,$13,$11,$13,$11,$13,$11
               4073   13 11 13 11
               4077   13 11 13 11
               407B   13 11 13 11
               407F   13 11 13 11
               4083   13 11 13 11
               4087   13 11 13 11
               408B   13 11 13 11
               408F   13 11 13 11
               4093   13 11 13 11
    418        4097   13 11 13 11          FCB $13,$11,$13,$11,$13,$11,$13,$11,$13,$11,$13,$11,$13,$11,$13,$11,$13,$11,$13,$11,$13,$11,$13,$11,$13,$11,$13,$11,$13,$11,$13,$11,$13,$11,$13,$11,$13,$11,$13,$11
               409B   13 11 13 11
               409F   13 11 13 11
               40A3   13 11 13 11
               40A7   13 11 13 11
               40AB   13 11 13 11
               40AF   13 11 13 11
               40B3   13 11 13 11
               40B7   13 11 13 11
               40BB   13 11 13 11
    419        40BF   17 13 17 13          FCB $17,$13,$17,$13,$17,$13,$17,$13,$17,$13,$17,$13,$17,$13,$17,$13,$17,$13,$17,$13,$17,$13,$17,$13,$17,$13,$17,$13,$17,$13,$17,$13,$17,$13,$17,$13,$17,$13,$17,$13
               40C3   17 13 17 13
               40C7   17 13 17 13
               40CB   17 13 17 13
               40CF   17 13 17 13
               40D3   17 13 17 13
               40D7   17 13 17 13
               40DB   17 13 17 13
               40DF   17 13 17 13
               40E3   17 13 17 13
    420        40E7   17 13 17 13          FCB $17,$13,$17,$13,$17,$13,$17,$13,$17,$13,$17,$13,$17,$13,$17,$13,$17,$13,$17,$13,$17,$13,$17,$13,$17,$13,$17,$13,$17,$13,$17,$13,$17,$13,$17,$13,$17,$13,$17,$13
               40EB   17 13 17 13
               40EF   17 13 17 13
               40F3   17 13 17 13
               40F7   17 13 17 13
               40FB   17 13 17 13
               40FF   17 13 17 13
               4103   17 13 17 13
               4107   17 13 17 13
               410B   17 13 17 13
    421        410F   17 13 17 13          FCB $17,$13,$17,$13,$17,$13,$17,$13,$17,$13,$17,$13,$17,$13,$17,$13,$17,$13,$17,$13,$13,$11,$13,$11,$13,$11,$13,$11,$13,$11,$13,$11,$13,$11,$13,$11,$13,$11,$13,$11
               4113   17 13 17 13
               4117   17 13 17 13
               411B   17 13 17 13
               411F   17 13 17 13
               4123   13 11 13 11
               4127   13 11 13 11
               412B   13 11 13 11
               412F   13 11 13 11
               4133   13 11 13 11
    422        4137   13 11 13 11          FCB $13,$11,$13,$11,$13,$11,$13,$11,$13,$11,$13,$11,$13,$11,$13,$11,$13,$11,$13,$11,$13,$11,$13,$11,$13,$11,$13,$11,$13,$11,$13,$11,$13,$11,$13,$11,$13,$11,$13,$11
               413B   13 11 13 11
               413F   13 11 13 11
               4143   13 11 13 11
               4147   13 11 13 11
               414B   13 11 13 11
               414F   13 11 13 11
               4153   13 11 13 11
               4157   13 11 13 11
               415B   13 11 13 11
    423        415F   13 11 13 11          FCB $13,$11,$13,$11,$13,$11,$13,$11,$13,$11,$13,$11,$13,$11,$13,$11,$13,$11,$13,$11,$13,$11,$13,$11,$13,$11,$13,$11,$13,$11,$13,$11,$13,$11,$13,$11,$13,$11,$13,$11
               4163   13 11 13 11
               4167   13 11 13 11
               416B   13 11 13 11
               416F   13 11 13 11
               4173   13 11 13 11
               4177   13 11 13 11
               417B   13 11 13 11
               417F   13 11 13 11
               4183   13 11 13 11
    424        4187   17 13 17 13          FCB $17,$13,$17,$13,$17,$13,$17,$13,$17,$13,$17,$13,$17,$13,$17,$13,$17,$13,$17,$13,$17,$13,$17,$13,$17,$13,$17,$13,$17,$13,$17,$13,$17,$13,$17,$13,$17,$13,$17,$13
               418B   17 13 17 13
               418F   17 13 17 13
               4193   17 13 17 13
               4197   17 13 17 13
               419B   17 13 17 13
               419F   17 13 17 13
               41A3   17 13 17 13
               41A7   17 13 17 13
               41AB   17 13 17 13
    425        41AF   17 13 17 13          FCB $17,$13,$17,$13,$17,$13,$17,$13,$17,$13,$17,$13,$17,$13,$17,$13,$17,$13,$17,$13,$17,$13,$17,$13,$17,$13,$17,$13,$17,$13,$17,$13,$17,$13,$17,$13,$17,$13,$17,$13
               41B3   17 13 17 13
               41B7   17 13 17 13
               41BB   17 13 17 13
               41BF   17 13 17 13
               41C3   17 13 17 13
               41C7   17 13 17 13
               41CB   17 13 17 13
               41CF   17 13 17 13
               41D3   17 13 17 13
    426        41D7   17 13 17 13          FCB $17,$13,$17,$13,$17,$13,$17,$13,$17,$13,$17,$13,$17,$13,$17,$13,$17,$13,$17,$13,$17,$13,$17,$13,$17,$13,$17,$13,$17,$13,$17,$13,$17,$13,$17,$13,$17,$13,$17,$13
               41DB   17 13 17 13
               41DF   17 13 17 13
               41E3   17 13 17 13
               41E7   17 13 17 13
               41EB   17 13 17 13
               41EF   17 13 17 13
               41F3   17 13 17 13
               41F7   17 13 17 13
               41FB   17 13 17 13
    427        41FF   17 13 17 13          FCB $17,$13,$17,$13,$17,$13,$17,$13,$17,$13,$17,$13,$17,$13,$17,$13,$17,$13,$17,$13,$17,$13,$17,$13,$17,$13,$17,$13,$17,$13,$17,$13,$17,$13,$17,$13,$17,$13,$17,$13
               4203   17 13 17 13
               4207   17 13 17 13
               420B   17 13 17 13
               420F   17 13 17 13
               4213   17 13 17 13
               4217   17 13 17 13
               421B   17 13 17 13
               421F   17 13 17 13
               4223   17 13 17 13
    428        4227   17 13 17 13          FCB $17,$13,$17,$13,$17,$13,$17,$13,$17,$13,$17,$13,$17,$13,$17,$13,$17,$13,$17,$13,$17,$13,$17,$13,$17,$13,$17,$13,$17,$13,$17,$13,$17,$13,$17,$13,$17,$13,$17,$13
               422B   17 13 17 13
               422F   17 13 17 13
               4233   17 13 17 13
               4237   17 13 17 13
               423B   17 13 17 13
               423F   17 13 17 13
               4243   17 13 17 13
               4247   17 13 17 13
               424B   17 13 17 13
               ----------------------------------------------------------------

